C:/Users/user/AppData/Local/Temp/zcc00003AB099BD2.asm:
     1                          MODULE main_c
     2                          LINE 0, "main.c"
main.c:
                                
     1                          ;--------------------------------------------------------
     2                          ; File Created by SDCC : free open source ANSI-C Compiler
     3                          ; Version 4.2.0 #13081 (MINGW64)
     4                          ;--------------------------------------------------------
     5                          ; Processed by Z88DK
     6                          ;--------------------------------------------------------
     7                          
     8                          	EXTERN __divschar
     9                          	EXTERN __divschar_callee
    10                          	EXTERN __divsint
    11                          	EXTERN __divsint_callee
    12                          	EXTERN __divslong
    13                          	EXTERN __divslong_callee
    14                          	EXTERN __divslonglong
    15                          	EXTERN __divslonglong_callee
    16                          	EXTERN __divsuchar
    17                          	EXTERN __divsuchar_callee
    18                          	EXTERN __divuchar
    19                          	EXTERN __divuchar_callee
    20                          	EXTERN __divuint
    21                          	EXTERN __divuint_callee
    22                          	EXTERN __divulong
    23                          	EXTERN __divulong_callee
    24                          	EXTERN __divulonglong
    25                          	EXTERN __divulonglong_callee
    26                          	EXTERN __divuschar
    27                          	EXTERN __divuschar_callee
    28                          	EXTERN __modschar
    29                          	EXTERN __modschar_callee
    30                          	EXTERN __modsint
    31                          	EXTERN __modsint_callee
    32                          	EXTERN __modslong
    33                          	EXTERN __modslong_callee
    34                          	EXTERN __modslonglong
    35                          	EXTERN __modslonglong_callee
    36                          	EXTERN __modsuchar
    37                          	EXTERN __modsuchar_callee
    38                          	EXTERN __moduchar
    39                          	EXTERN __moduchar_callee
    40                          	EXTERN __moduint
    41                          	EXTERN __moduint_callee
    42                          	EXTERN __modulong
    43                          	EXTERN __modulong_callee
    44                          	EXTERN __modulonglong
    45                          	EXTERN __modulonglong_callee
    46                          	EXTERN __moduschar
    47                          	EXTERN __moduschar_callee
    48                          	EXTERN __mulint
    49                          	EXTERN __mulint_callee
    50                          	EXTERN __mullong
    51                          	EXTERN __mullong_callee
    52                          	EXTERN __mullonglong
    53                          	EXTERN __mullonglong_callee
    54                          	EXTERN __mulschar
    55                          	EXTERN __mulschar_callee
    56                          	EXTERN __mulsuchar
    57                          	EXTERN __mulsuchar_callee
    58                          	EXTERN __muluchar
    59                          	EXTERN __muluchar_callee
    60                          	EXTERN __muluschar
    61                          	EXTERN __muluschar_callee
    62                          	EXTERN __rlslonglong
    63                          	EXTERN __rlslonglong_callee
    64                          	EXTERN __rlulonglong
    65                          	EXTERN __rlulonglong_callee
    66                          	EXTERN __rrslonglong
    67                          	EXTERN __rrslonglong_callee
    68                          	EXTERN __rrulonglong
    69                          	EXTERN __rrulonglong_callee
    70                          	EXTERN ___mulsint2slong
    71                          	EXTERN ___mulsint2slong_callee
    72                          	EXTERN ___muluint2ulong
    73                          	EXTERN ___muluint2ulong_callee
    74                          	EXTERN ___sdcc_call_hl
    75                          	EXTERN ___sdcc_call_iy
    76                          	EXTERN ___sdcc_enter_ix
    77                          	EXTERN banked_call
    78                          	EXTERN _banked_ret
    79                          	EXTERN ___fs2schar
    80                          	EXTERN ___fs2schar_callee
    81                          	EXTERN ___fs2sint
    82                          	EXTERN ___fs2sint_callee
    83                          	EXTERN ___fs2slong
    84                          	EXTERN ___fs2slong_callee
    85                          	EXTERN ___fs2slonglong
    86                          	EXTERN ___fs2slonglong_callee
    87                          	EXTERN ___fs2uchar
    88                          	EXTERN ___fs2uchar_callee
    89                          	EXTERN ___fs2uint
    90                          	EXTERN ___fs2uint_callee
    91                          	EXTERN ___fs2ulong
    92                          	EXTERN ___fs2ulong_callee
    93                          	EXTERN ___fs2ulonglong
    94                          	EXTERN ___fs2ulonglong_callee
    95                          	EXTERN ___fsadd
    96                          	EXTERN ___fsadd_callee
    97                          	EXTERN ___fsdiv
    98                          	EXTERN ___fsdiv_callee
    99                          	EXTERN ___fseq
   100                          	EXTERN ___fseq_callee
   101                          	EXTERN ___fsgt
   102                          	EXTERN ___fsgt_callee
   103                          	EXTERN ___fslt
   104                          	EXTERN ___fslt_callee
   105                          	EXTERN ___fsmul
   106                          	EXTERN ___fsmul_callee
   107                          	EXTERN ___fsneq
   108                          	EXTERN ___fsneq_callee
   109                          	EXTERN ___fssub
   110                          	EXTERN ___fssub_callee
   111                          	EXTERN ___schar2fs
   112                          	EXTERN ___schar2fs_callee
   113                          	EXTERN ___sint2fs
   114                          	EXTERN ___sint2fs_callee
   115                          	EXTERN ___slong2fs
   116                          	EXTERN ___slong2fs_callee
   117                          	EXTERN ___slonglong2fs
   118                          	EXTERN ___slonglong2fs_callee
   119                          	EXTERN ___uchar2fs
   120                          	EXTERN ___uchar2fs_callee
   121                          	EXTERN ___uint2fs
   122                          	EXTERN ___uint2fs_callee
   123                          	EXTERN ___ulong2fs
   124                          	EXTERN ___ulong2fs_callee
   125                          	EXTERN ___ulonglong2fs
   126                          	EXTERN ___ulonglong2fs_callee
   127                          	EXTERN ____sdcc_2_copy_src_mhl_dst_deix
   128                          	EXTERN ____sdcc_2_copy_src_mhl_dst_bcix
   129                          	EXTERN ____sdcc_4_copy_src_mhl_dst_deix
   130                          	EXTERN ____sdcc_4_copy_src_mhl_dst_bcix
   131                          	EXTERN ____sdcc_4_copy_src_mhl_dst_mbc
   132                          	EXTERN ____sdcc_4_ldi_nosave_bc
   133                          	EXTERN ____sdcc_4_ldi_save_bc
   134                          	EXTERN ____sdcc_4_push_hlix
   135                          	EXTERN ____sdcc_4_push_mhl
   136                          	EXTERN ____sdcc_lib_setmem_hl
   137                          	EXTERN ____sdcc_ll_add_de_bc_hl
   138                          	EXTERN ____sdcc_ll_add_de_bc_hlix
   139                          	EXTERN ____sdcc_ll_add_de_hlix_bc
   140                          	EXTERN ____sdcc_ll_add_de_hlix_bcix
   141                          	EXTERN ____sdcc_ll_add_deix_bc_hl
   142                          	EXTERN ____sdcc_ll_add_deix_hlix
   143                          	EXTERN ____sdcc_ll_add_hlix_bc_deix
   144                          	EXTERN ____sdcc_ll_add_hlix_deix_bc
   145                          	EXTERN ____sdcc_ll_add_hlix_deix_bcix
   146                          	EXTERN ____sdcc_ll_asr_hlix_a
   147                          	EXTERN ____sdcc_ll_asr_mbc_a
   148                          	EXTERN ____sdcc_ll_copy_src_de_dst_hlix
   149                          	EXTERN ____sdcc_ll_copy_src_de_dst_hlsp
   150                          	EXTERN ____sdcc_ll_copy_src_deix_dst_hl
   151                          	EXTERN ____sdcc_ll_copy_src_deix_dst_hlix
   152                          	EXTERN ____sdcc_ll_copy_src_deixm_dst_hlsp
   153                          	EXTERN ____sdcc_ll_copy_src_desp_dst_hlsp
   154                          	EXTERN ____sdcc_ll_copy_src_hl_dst_de
   155                          	EXTERN ____sdcc_ll_copy_src_hlsp_dst_de
   156                          	EXTERN ____sdcc_ll_copy_src_hlsp_dst_deixm
   157                          	EXTERN ____sdcc_ll_lsl_hlix_a
   158                          	EXTERN ____sdcc_ll_lsl_mbc_a
   159                          	EXTERN ____sdcc_ll_lsr_hlix_a
   160                          	EXTERN ____sdcc_ll_lsr_mbc_a
   161                          	EXTERN ____sdcc_ll_push_hlix
   162                          	EXTERN ____sdcc_ll_push_mhl
   163                          	EXTERN ____sdcc_ll_sub_de_bc_hl
   164                          	EXTERN ____sdcc_ll_sub_de_bc_hlix
   165                          	EXTERN ____sdcc_ll_sub_de_hlix_bc
   166                          	EXTERN ____sdcc_ll_sub_de_hlix_bcix
   167                          	EXTERN ____sdcc_ll_sub_deix_bc_hl
   168                          	EXTERN ____sdcc_ll_sub_deix_hlix
   169                          	EXTERN ____sdcc_ll_sub_hlix_bc_deix
   170                          	EXTERN ____sdcc_ll_sub_hlix_deix_bc
   171                          	EXTERN ____sdcc_ll_sub_hlix_deix_bcix
   172                          	EXTERN ____sdcc_load_debc_deix
   173                          	EXTERN ____sdcc_load_dehl_deix
   174                          	EXTERN ____sdcc_load_debc_mhl
   175                          	EXTERN ____sdcc_load_hlde_mhl
   176                          	EXTERN ____sdcc_store_dehl_bcix
   177                          	EXTERN ____sdcc_store_debc_hlix
   178                          	EXTERN ____sdcc_store_debc_mhl
   179                          	EXTERN ____sdcc_cpu_pop_ei
   180                          	EXTERN ____sdcc_cpu_pop_ei_jp
   181                          	EXTERN ____sdcc_cpu_push_di
   182                          	EXTERN ____sdcc_outi
   183                          	EXTERN ____sdcc_outi_128
   184                          	EXTERN ____sdcc_outi_256
   185                          	EXTERN ____sdcc_ldi
   186                          	EXTERN ____sdcc_ldi_128
   187                          	EXTERN ____sdcc_ldi_256
   188                          	EXTERN ____sdcc_4_copy_srcd_hlix_dst_deix
   189                          	EXTERN ____sdcc_4_and_src_mbc_mhl_dst_deix
   190                          	EXTERN ____sdcc_4_or_src_mbc_mhl_dst_deix
   191                          	EXTERN ____sdcc_4_xor_src_mbc_mhl_dst_deix
   192                          	EXTERN ____sdcc_4_or_src_dehl_dst_bcix
   193                          	EXTERN ____sdcc_4_xor_src_dehl_dst_bcix
   194                          	EXTERN ____sdcc_4_and_src_dehl_dst_bcix
   195                          	EXTERN ____sdcc_4_xor_src_mbc_mhl_dst_debc
   196                          	EXTERN ____sdcc_4_or_src_mbc_mhl_dst_debc
   197                          	EXTERN ____sdcc_4_and_src_mbc_mhl_dst_debc
   198                          	EXTERN ____sdcc_4_cpl_src_mhl_dst_debc
   199                          	EXTERN ____sdcc_4_xor_src_debc_mhl_dst_debc
   200                          	EXTERN ____sdcc_4_or_src_debc_mhl_dst_debc
   201                          	EXTERN ____sdcc_4_and_src_debc_mhl_dst_debc
   202                          	EXTERN ____sdcc_4_and_src_debc_hlix_dst_debc
   203                          	EXTERN ____sdcc_4_or_src_debc_hlix_dst_debc
   204                          	EXTERN ____sdcc_4_xor_src_debc_hlix_dst_debc
   205                          
   206                          ;--------------------------------------------------------
   207                          ; Public variables in this module
   208                          ;--------------------------------------------------------
   209                          	GLOBAL _main
   210                          	GLOBAL _isrKeyboard
   211                          	GLOBAL _baseattack_nt
   212                          	GLOBAL __ORIGINAL_INT_MASK
   213                          	GLOBAL __joyStatus
   214                          	GLOBAL __lastKeyboardIntVal
   215                          	GLOBAL __kbdBufferWritePos
   216                          	GLOBAL __kbdBufferReadPos
   217                          	GLOBAL __randomSeed
   218                          	GLOBAL __song
   219                          	GLOBAL __beatCntr
   220                          	GLOBAL __itemCntr
   221                          	GLOBAL __LIST_DEVICE
   222                          	GLOBAL __EMULATION_MODE
   223                          	GLOBAL _cpm_cursor
   224                          	GLOBAL __kbdBuffer
   225                          	GLOBAL __NOTES_FINE
   226                          	GLOBAL __NOTES_COURSE
   227                          	GLOBAL _initNABULib
   228                          	GLOBAL _initNABULIBAudio
   229                          	GLOBAL _nop
   230                          	GLOBAL _NABU_DisableInterrupts
   231                          	GLOBAL _NABU_EnableInterrupts
   232                          	GLOBAL _RightShift
   233                          	GLOBAL _vt_clearToEndOfScreen
   234                          	GLOBAL _vt_clearToEndOfLine
   235                          	GLOBAL _vt_clearScreen
   236                          	GLOBAL _vt_clearLine
   237                          	GLOBAL _vt_clearToStartOfLine
   238                          	GLOBAL _vt_clearToStartOfScreen
   239                          	GLOBAL _vt_moveCursorDown
   240                          	GLOBAL _vt_cursorHome
   241                          	GLOBAL _vt_moveCursorLeft
   242                          	GLOBAL _vt_moveCursorRight
   243                          	GLOBAL _vt_moveCursorUp
   244                          	GLOBAL _vt_deleteLine
   245                          	GLOBAL _vt_setCursor
   246                          	GLOBAL _vt_foregroundColor
   247                          	GLOBAL _vt_insertLine
   248                          	GLOBAL _vt_restoreCursorPosition
   249                          	GLOBAL _vt_backgroundColor
   250                          	GLOBAL _vt_saveCursorPosition
   251                          	GLOBAL _vt_cursorUpAndInsert
   252                          	GLOBAL _vt_wrapOff
   253                          	GLOBAL _vt_wrapOn
   254                          	GLOBAL _vt_normalVideo
   255                          	GLOBAL _vt_reverseVideo
   256                          	GLOBAL _ayWrite
   257                          	GLOBAL _ayRead
   258                          	GLOBAL _playNoteDelay
   259                          	GLOBAL _isKeyPressed
   260                          	GLOBAL _getChar
   261                          	GLOBAL _getJoyStatus
   262                          	GLOBAL _nt_init
   263                          	GLOBAL _nt_stopSounds
   264                          	GLOBAL _nt_handleNote
   265                          ;--------------------------------------------------------
   266                          ; Externals used
   267                          ;--------------------------------------------------------
   268                          	GLOBAL _readLine
   269                          	GLOBAL _fputc_cons_ansi
   270                          	GLOBAL _fputc_cons_generic
   271                          	GLOBAL _fputc_cons_native
   272                          	GLOBAL _set_fputc_cons
   273                          	GLOBAL _perror
   274                          	GLOBAL _printk
   275                          	GLOBAL _getk_inkey
   276                          	GLOBAL _getk
   277                          	GLOBAL _remove
   278                          	GLOBAL _rename
   279                          	GLOBAL _fdgetpos
   280                          	GLOBAL _fdtell
   281                          	GLOBAL _fabandon
   282                          	GLOBAL _puts_cons
   283                          	GLOBAL _fgets_cons
   284                          	GLOBAL _fputc_cons
   285                          	GLOBAL _fgetc_cons_inkey
   286                          	GLOBAL _fgetc_cons
   287                          	GLOBAL _fchkstd
   288                          	GLOBAL _getarg
   289                          	GLOBAL _vsscanf
   290                          	GLOBAL _vfscanf
   291                          	GLOBAL _sscanf
   292                          	GLOBAL _fscanf
   293                          	GLOBAL _scanf
   294                          	GLOBAL _printn
   295                          	GLOBAL _vsnprintf
   296                          	GLOBAL _vfprintf
   297                          	GLOBAL _snprintf
   298                          	GLOBAL _sprintf
   299                          	GLOBAL _fprintf
   300                          	GLOBAL _printf
   301                          	GLOBAL _gets
   302                          	GLOBAL _fwrite
   303                          	GLOBAL _fread
   304                          	GLOBAL _fseek
   305                          	GLOBAL _fgetpos
   306                          	GLOBAL _ftell
   307                          	GLOBAL _puts
   308                          	GLOBAL _ferror
   309                          	GLOBAL _feof
   310                          	GLOBAL _ungetc
   311                          	GLOBAL _fgetc
   312                          	GLOBAL _fputc_callee
   313                          	GLOBAL _fputs_callee
   314                          	GLOBAL _fputc
   315                          	GLOBAL _fputs
   316                          	GLOBAL _fgets
   317                          	GLOBAL _closeall
   318                          	GLOBAL _fflush
   319                          	GLOBAL _fclose
   320                          	GLOBAL _funopen
   321                          	GLOBAL _fmemopen
   322                          	GLOBAL __freopen1
   323                          	GLOBAL _fdopen
   324                          	GLOBAL _freopen
   325                          	GLOBAL _fopen
   326                          	GLOBAL _fileno
   327                          	GLOBAL _fopen_zsock
   328                          	GLOBAL _rnd_erase
   329                          	GLOBAL _rnd_saveblock
   330                          	GLOBAL _rnd_loadblock
   331                          	GLOBAL _rmdir
   332                          	GLOBAL _getwd
   333                          	GLOBAL _chdir
   334                          	GLOBAL _getcwd
   335                          	GLOBAL _writebyte
   336                          	GLOBAL _readbyte
   337                          	GLOBAL _lseek
   338                          	GLOBAL _write
   339                          	GLOBAL _read
   340                          	GLOBAL _close
   341                          	GLOBAL _creat
   342                          	GLOBAL _open
   343                          	GLOBAL _gios_esc
   344                          	GLOBAL _gios_text
   345                          	GLOBAL _gios_1px_callee
   346                          	GLOBAL _gios_1px
   347                          	GLOBAL _gios_2px_callee
   348                          	GLOBAL _gios_2px
   349                          	GLOBAL _gios_1pm_callee
   350                          	GLOBAL _gios_1pm
   351                          	GLOBAL _gios
   352                          	GLOBAL _a_serialport
   353                          	GLOBAL _a_driveb
   354                          	GLOBAL _a_memsize
   355                          	GLOBAL _a_biosver
   356                          	GLOBAL _a_machinever
   357                          	GLOBAL _a_machine
   358                          	GLOBAL _a_cury
   359                          	GLOBAL _a_curx
   360                          	GLOBAL _a_ink
   361                          	GLOBAL _a_paper
   362                          	GLOBAL _a_border
   363                          	GLOBAL _a_keyspeed
   364                          	GLOBAL _a_statusline
   365                          	GLOBAL _get_dir_name
   366                          	GLOBAL _dir_get_entry_size
   367                          	GLOBAL _dir_get_entry_name
   368                          	GLOBAL _dir_get_entry_type
   369                          	GLOBAL _dir_move_next
   370                          	GLOBAL _dir_move_first
   371                          	GLOBAL _get_current_volume
   372                          	GLOBAL _change_volume
   373                          	GLOBAL __putoffset
   374                          	GLOBAL _swapuid
   375                          	GLOBAL _putoffset
   376                          	GLOBAL _parsefcb
   377                          	GLOBAL _setfcb
   378                          	GLOBAL _cpm_cache_flush
   379                          	GLOBAL _cpm_cache_get
   380                          	GLOBAL _getfcb
   381                          	GLOBAL _biosh
   382                          	GLOBAL _bios
   383                          	GLOBAL _bdosh_callee
   384                          	GLOBAL _bdosh
   385                          	GLOBAL _bdos_callee
   386                          	GLOBAL _bdos
   387                          	GLOBAL _get_dpb
   388                          	GLOBAL _unbcd
   389                          	GLOBAL _wcmatch
   390                          	GLOBAL _extract_bits_callee
   391                          	GLOBAL _extract_bits
   392                          	GLOBAL _msleep
   393                          	GLOBAL _sleep
   394                          	GLOBAL _t_delay
   395                          	GLOBAL _wpeek
   396                          	GLOBAL _bpeek
   397                          	GLOBAL _wpoke_callee
   398                          	GLOBAL _wpoke
   399                          	GLOBAL _bpoke_callee
   400                          	GLOBAL _bpoke
   401                          	GLOBAL _swapendian
   402                          	GLOBAL _outp_callee
   403                          	GLOBAL _outp
   404                          	GLOBAL _inp
   405                          	GLOBAL _isqrt
   406                          	GLOBAL _labs
   407                          	GLOBAL _abs
   408                          	GLOBAL __ldivu__callee
   409                          	GLOBAL __ldivu_
   410                          	GLOBAL __ldiv__callee
   411                          	GLOBAL __ldiv_
   412                          	GLOBAL __divu__callee
   413                          	GLOBAL __divu_
   414                          	GLOBAL __div__callee
   415                          	GLOBAL __div_
   416                          	GLOBAL _qsort_sdcc_callee
   417                          	GLOBAL _qsort_sdcc
   418                          	GLOBAL _qsort_sccz80_callee
   419                          	GLOBAL _qsort_sccz80
   420                          	GLOBAL _l_qsort_callee
   421                          	GLOBAL _l_qsort
   422                          	GLOBAL _l_bsearch_callee
   423                          	GLOBAL _l_bsearch
   424                          	GLOBAL _getopt
   425                          	GLOBAL _unsetenv
   426                          	GLOBAL _setenv
   427                          	GLOBAL _getenv_r
   428                          	GLOBAL _getenv
   429                          	GLOBAL _atexit
   430                          	GLOBAL _exit
   431                          	GLOBAL _HeapInfo_callee
   432                          	GLOBAL _HeapInfo
   433                          	GLOBAL _HeapRealloc_callee
   434                          	GLOBAL _HeapRealloc
   435                          	GLOBAL _HeapAlloc_callee
   436                          	GLOBAL _HeapAlloc
   437                          	GLOBAL _HeapFree_callee
   438                          	GLOBAL _HeapFree
   439                          	GLOBAL _HeapCalloc_callee
   440                          	GLOBAL _HeapCalloc
   441                          	GLOBAL _HeapSbrk_callee
   442                          	GLOBAL _HeapSbrk
   443                          	GLOBAL _HeapCreate
   444                          	GLOBAL _mallinfo_callee
   445                          	GLOBAL _mallinfo
   446                          	GLOBAL _realloc_callee
   447                          	GLOBAL _realloc
   448                          	GLOBAL _malloc
   449                          	GLOBAL _free
   450                          	GLOBAL _calloc_callee
   451                          	GLOBAL _calloc
   452                          	GLOBAL _sbrk_callee
   453                          	GLOBAL _sbrk
   454                          	GLOBAL _mallinit
   455                          	GLOBAL _srand
   456                          	GLOBAL _rand
   457                          	GLOBAL _ulltoa_callee
   458                          	GLOBAL _ulltoa
   459                          	GLOBAL _strtoull_callee
   460                          	GLOBAL _strtoull
   461                          	GLOBAL _strtoll_callee
   462                          	GLOBAL _strtoll
   463                          	GLOBAL _lltoa_callee
   464                          	GLOBAL _lltoa
   465                          	GLOBAL _atoll_callee
   466                          	GLOBAL _atoll
   467                          	GLOBAL _utoa_callee
   468                          	GLOBAL _utoa
   469                          	GLOBAL _ultoa_callee
   470                          	GLOBAL _ultoa
   471                          	GLOBAL _strtoul_callee
   472                          	GLOBAL _strtoul
   473                          	GLOBAL _strtol_callee
   474                          	GLOBAL _strtol
   475                          	GLOBAL _ltoa_callee
   476                          	GLOBAL _ltoa
   477                          	GLOBAL _itoa_callee
   478                          	GLOBAL _itoa
   479                          	GLOBAL _atol
   480                          	GLOBAL _atoi
   481                          	GLOBAL __sgoioblk_end
   482                          	GLOBAL __sgoioblk
   483                          	GLOBAL __FOPEN_MAX
   484                          	GLOBAL __RND_BLOCKSIZE
   485                          	GLOBAL _gios_ptsout
   486                          	GLOBAL _gios_intout
   487                          	GLOBAL _gios_ptsin
   488                          	GLOBAL _gios_intin
   489                          	GLOBAL _gios_ctl
   490                          	GLOBAL _gios_pb
   491                          	GLOBAL _fc_dirbuf
   492                          	GLOBAL _fc_dirpos
   493                          	GLOBAL _fc_dir
   494                          	GLOBAL __fcb
   495                          	GLOBAL __CLIB_OPEN_MAX
   496                          	GLOBAL _optreset
   497                          	GLOBAL _optopt
   498                          	GLOBAL _optind
   499                          	GLOBAL _opterr
   500                          	GLOBAL _optarg
   501                          ;--------------------------------------------------------
   502                          ; special function registers
   503                          ;--------------------------------------------------------
   504                          defc _IO_VDPDATA	=	0x00a0
   505                          defc _IO_VDPLATCH	=	0x00a1
   506                          defc _IO_AYDATA	=	0x0040
   507                          defc _IO_AYLATCH	=	0x0041
   508                          defc _IO_HCCA	=	0x0080
   509                          defc _IO_KEYBOARD	=	0x0090
   510                          defc _IO_KEYBOARD_STATUS	=	0x0091
   511                          defc _IO_CONTROL	=	0x0000
   512                          ;--------------------------------------------------------
   513                          ; ram data
   514                          ;--------------------------------------------------------
   515                          	SECTION bss_compiler
   516                          __kbdBuffer:
   517  0000  0000000000000000  	DEFS 256
              0000000000000000  
              0000000000000000  
              0000000000000000  
              0000000000000000  
              0000000000000000  
              0000000000000000  
              0000000000000000  
              0000000000000000  
              0000000000000000  
              0000000000000000  
              0000000000000000  
              0000000000000000  
              0000000000000000  
              0000000000000000  
              0000000000000000  
              0000000000000000  
              0000000000000000  
              0000000000000000  
              0000000000000000  
              0000000000000000  
              0000000000000000  
              0000000000000000  
              0000000000000000  
              0000000000000000  
              0000000000000000  
              0000000000000000  
              0000000000000000  
              0000000000000000  
              0000000000000000  
              0000000000000000  
              0000000000000000  
   518                          defc _cpm_cursor	=	0xff10
   519                          defc __EMULATION_MODE	=	0xff12
   520                          defc __LIST_DEVICE	=	0xff13
   521                          __itemCntr:
   522  0100  0000              	DEFS 2
   523                          __beatCntr:
   524  0102  00                	DEFS 1
   525                          __song:
   526  0103  0000              	DEFS 2
   527                          ;--------------------------------------------------------
   528                          ; ram data
   529                          ;--------------------------------------------------------
   530                          
   531                          IF 0
   532                          
   533                          ; .area _INITIALIZED removed by z88dk
   534                          
   535                          __randomSeed:
   536                          	DEFS 1
   537                          __kbdBufferReadPos:
   538                          	DEFS 1
   539                          __kbdBufferWritePos:
   540                          	DEFS 1
   541                          __lastKeyboardIntVal:
   542                          	DEFS 1
   543                          __joyStatus:
   544                          	DEFS 4
   545                          __ORIGINAL_INT_MASK:
   546                          	DEFS 1
   547                          _baseattack_nt:
   548                          	DEFS 2026
   549                          
   550                          ENDIF
   551                          
   552                          ;--------------------------------------------------------
   553                          ; absolute external ram data
   554                          ;--------------------------------------------------------
   555                          	SECTION IGNORE
   556                          ;--------------------------------------------------------
   557                          ; global & static initialisations
   558                          ;--------------------------------------------------------
   559                          	SECTION code_crt_init
   560                          ;--------------------------------------------------------
   561                          ; Home
   562                          ;--------------------------------------------------------
   563                          	SECTION IGNORE
   564                          ;--------------------------------------------------------
   565                          ; code
   566                          ;--------------------------------------------------------
   567                          	SECTION code_compiler
   568                          ;	---------------------------------
   569                          ; Function initNABULib
   570                          ; ---------------------------------
   571                          _initNABULib:
   572  0000  3e00              	ld	a,0x03
   573  0002  d300              	out	(_IO_CONTROL), a
   574  0004  cd0000            	call	_NABU_DisableInterrupts
   575  0007  f5                	push	af
   576  0008  ed5f              	ld	a, r
   577  000a  320000            	ld	(__randomSeed), a
   578  000d  f1                	pop	af
   579  000e  3a0000            	ld	a, (__randomSeed+0)
   580  0011  6f                	ld	l, a
   581  0012  2600              	ld	h,0x00
   582  0014  cd0000            	call	_srand
   583  0017  ed5e              	IM	2
   584  0019  3e00              	ld	a, 0xff
   585  001b  ed47              	ld	i, a
   586  001d  210000            	ld	hl, _isrKeyboard
   587  0020  220000            	ld	(0xff00 + 4), hl
   588  0023  3e00              	ld	a,0x0e
   589  0025  f5                	push	af
   590  0026  33                	inc	sp
   591  0027  cd0000            	call	_ayRead
   592  002a  33                	inc	sp
   593  002b  7d                	ld	a, l
   594  002c  320000            	ld	(__ORIGINAL_INT_MASK+0), a
   595  002f  3a0000            	ld	a, (__ORIGINAL_INT_MASK+0)
   596  0032  f600              	or	a,0x20
   597  0034  320000            	ld	(__ORIGINAL_INT_MASK+0), a
   598  0037  3a0000            	ld	a, (__ORIGINAL_INT_MASK+0)
   599  003a  57                	ld	d,a
   600  003b  1e00              	ld	e,0x0e
   601  003d  d5                	push	de
   602  003e  cd0000            	call	_ayWrite
   603  0041  f1                	pop	af
   604  0042  cd0000            	call	_NABU_EnableInterrupts
   605  0045  c30000            	jp	_initNABULIBAudio
   606                          	SECTION rodata_compiler
   607                          __NOTES_COURSE:
   608  0000  00                	DEFB +0x0d
   609  0001  00                	DEFB +0x0c
   610  0002  00                	DEFB +0x0b
   611  0003  00                	DEFB +0x0b
   612  0004  00                	DEFB +0x0a
   613  0005  00                	DEFB +0x0a
   614  0006  00                	DEFB +0x09
   615  0007  00                	DEFB +0x08
   616  0008  00                	DEFB +0x08
   617  0009  00                	DEFB +0x07
   618  000a  00                	DEFB +0x07
   619  000b  00                	DEFB +0x07
   620  000c  00                	DEFB +0x06
   621  000d  00                	DEFB +0x06
   622  000e  00                	DEFB +0x05
   623  000f  00                	DEFB +0x05
   624  0010  00                	DEFB +0x05
   625  0011  00                	DEFB +0x05
   626  0012  00                	DEFB +0x04
   627  0013  00                	DEFB +0x04
   628  0014  00                	DEFB +0x04
   629  0015  00                	DEFB +0x03
   630  0016  00                	DEFB +0x03
   631  0017  00                	DEFB +0x03
   632  0018  00                	DEFB +0x03
   633  0019  00                	DEFB +0x03
   634  001a  00                	DEFB +0x02
   635  001b  00                	DEFB +0x02
   636  001c  00                	DEFB +0x02
   637  001d  00                	DEFB +0x02
   638  001e  00                	DEFB +0x02
   639  001f  00                	DEFB +0x02
   640  0020  00                	DEFB +0x02
   641  0021  00                	DEFB +0x01
   642  0022  00                	DEFB +0x01
   643  0023  00                	DEFB +0x01
   644  0024  00                	DEFB +0x01
   645  0025  00                	DEFB +0x01
   646  0026  00                	DEFB +0x01
   647  0027  00                	DEFB +0x01
   648  0028  00                	DEFB +0x01
   649  0029  00                	DEFB +0x01
   650  002a  00                	DEFB +0x01
   651  002b  00                	DEFB +0x01
   652  002c  00                	DEFB +0x01
   653  002d  00                	DEFB +0x00
   654  002e  00                	DEFB +0x00
   655  002f  00                	DEFB +0x00
   656  0030  00                	DEFB +0x00
   657  0031  00                	DEFB +0x00
   658  0032  00                	DEFB +0x00
   659  0033  00                	DEFB +0x00
   660  0034  00                	DEFB +0x00
   661  0035  00                	DEFB +0x00
   662  0036  00                	DEFB +0x00
   663  0037  00                	DEFB +0x00
   664  0038  00                	DEFB +0x00
   665  0039  00                	DEFB +0x00
   666  003a  00                	DEFB +0x00
   667  003b  00                	DEFB +0x00
   668  003c  00                	DEFB +0x00
   669  003d  00                	DEFB +0x00
   670  003e  00                	DEFB +0x00
   671  003f  00                	DEFB +0x00
   672  0040  00                	DEFB +0x00
   673  0041  00                	DEFB +0x00
   674  0042  00                	DEFB +0x00
   675  0043  00                	DEFB +0x00
   676  0044  00                	DEFB +0x00
   677  0045  00                	DEFB +0x00
   678  0046  00                	DEFB +0x00
   679  0047  00                	DEFB +0x00
   680                          __NOTES_FINE:
   681  0048  00                	DEFB +0x5c
   682  0049  00                	DEFB +0x9c
   683  004a  00                	DEFB +0xe7
   684  004b  00                	DEFB +0x3c
   685  004c  00                	DEFB +0x9b
   686  004d  00                	DEFB +0x02
   687  004e  00                	DEFB +0x72
   688  004f  00                	DEFB +0xeb
   689  0050  00                	DEFB +0x6a
   690  0051  00                	DEFB +0xf2
   691  0052  00                	DEFB +0x7f
   692  0053  00                	DEFB +0x14
   693  0054  00                	DEFB +0xae
   694  0055  00                	DEFB +0x4e
   695  0056  00                	DEFB +0xf3
   696  0057  00                	DEFB +0x9e
   697  0058  00                	DEFB +0x4d
   698  0059  00                	DEFB +0x01
   699  005a  00                	DEFB +0xb9
   700  005b  00                	DEFB +0x75
   701  005c  00                	DEFB +0x35
   702  005d  00                	DEFB +0xf9
   703  005e  00                	DEFB +0xbf
   704  005f  00                	DEFB +0x8a
   705  0060  00                	DEFB +0x57
   706  0061  00                	DEFB +0x27
   707  0062  00                	DEFB +0xf9
   708  0063  00                	DEFB +0xcf
   709  0064  00                	DEFB +0xa6
   710  0065  00                	DEFB +0x80
   711  0066  00                	DEFB +0x5c
   712  0067  00                	DEFB +0x3a
   713  0068  00                	DEFB +0x1a
   714  0069  00                	DEFB +0xfc
   715  006a  00                	DEFB +0xdf
   716  006b  00                	DEFB +0xc5
   717  006c  00                	DEFB +0xab
   718  006d  00                	DEFB +0x93
   719  006e  00                	DEFB +0x7c
   720  006f  00                	DEFB +0x67
   721  0070  00                	DEFB +0x53
   722  0071  00                	DEFB +0x40
   723  0072  00                	DEFB +0x2e
   724  0073  00                	DEFB +0x1d
   725  0074  00                	DEFB +0x0d
   726  0075  00                	DEFB +0xfe
   727  0076  00                	DEFB +0xef
   728  0077  00                	DEFB +0xe2
   729  0078  00                	DEFB +0xd5
   730  0079  00                	DEFB +0xc9
   731  007a  00                	DEFB +0xbe
   732  007b  00                	DEFB +0xb3
   733  007c  00                	DEFB +0xa9
   734  007d  00                	DEFB +0xa0
   735  007e  00                	DEFB +0x97
   736  007f  00                	DEFB +0x8e
   737  0080  00                	DEFB +0x86
   738  0081  00                	DEFB +0x7f
   739  0082  00                	DEFB +0x77
   740  0083  00                	DEFB +0x71
   741  0084  00                	DEFB +0x6a
   742  0085  00                	DEFB +0x64
   743  0086  00                	DEFB +0x5f
   744  0087  00                	DEFB +0x59
   745  0088  00                	DEFB +0x54
   746  0089  00                	DEFB +0x50
   747  008a  00                	DEFB +0x4b
   748  008b  00                	DEFB +0x47
   749  008c  00                	DEFB +0x43
   750  008d  00                	DEFB +0x3f
   751  008e  00                	DEFB +0x3b
   752  008f  00                	DEFB +0x38
   753                          	SECTION code_compiler
   754                          ;	---------------------------------
   755                          ; Function initNABULIBAudio
   756                          ; ---------------------------------
   757                          _initNABULIBAudio:
   758  0048  af                	xor	a, a
   759  0049  57                	ld	d,a
   760  004a  1e00              	ld	e,0x06
   761  004c  d5                	push	de
   762  004d  cd0000            	call	_ayWrite
   763  0050  f1                	pop	af
   764  0051  110000            	ld	de,0x1008
   765  0054  d5                	push	de
   766  0055  cd0000            	call	_ayWrite
   767  0058  f1                	pop	af
   768  0059  110000            	ld	de,0x1009
   769  005c  d5                	push	de
   770  005d  cd0000            	call	_ayWrite
   771  0060  f1                	pop	af
   772  0061  110000            	ld	de,0x100a
   773  0064  d5                	push	de
   774  0065  cd0000            	call	_ayWrite
   775  0068  f1                	pop	af
   776  0069  110000            	ld	de,0x7807
   777  006c  d5                	push	de
   778  006d  cd0000            	call	_ayWrite
   779  0070  f1                	pop	af
   780  0071  c9                	ret
   781                          	SECTION code_compiler
   782                          ;	---------------------------------
   783                          ; Function nop
   784                          ; ---------------------------------
   785                          _nop:
   786  0072  00                	NOP
   787  0073  c9                	ret
   788                          	SECTION code_compiler
   789                          ;	---------------------------------
   790                          ; Function NABU_DisableInterrupts
   791                          ; ---------------------------------
   792                          _NABU_DisableInterrupts:
   793  0074  f3                	di
   794  0075  c9                	ret
   795                          	SECTION code_compiler
   796                          ;	---------------------------------
   797                          ; Function NABU_EnableInterrupts
   798                          ; ---------------------------------
   799                          _NABU_EnableInterrupts:
   800  0076  fb                	ei
   801  0077  c9                	ret
   802                          	SECTION code_compiler
   803                          ;	---------------------------------
   804                          ; Function RightShift
   805                          ; ---------------------------------
   806                          _RightShift:
   807  0078  dde5              	push	ix
   808  007a  dd210000          	ld	ix,0
   809  007e  dd39              	add	ix,sp
   810  0080  f5                	push	af
   811  0081  f5                	push	af
   812  0082  dd4e00            	ld	c,(ix+6)
   813  0085  dd4600            	ld	b,(ix+7)
   814  0088  0b                	dec	bc
   815  0089  dd6e00            	ld	l,(ix+4)
   816  008c  dd6600            	ld	h,(ix+5)
   817  008f  09                	add	hl, bc
   818  0090  eb                	ex	de, hl
   819  0091  dd4e00            	ld	c,(ix+8)
   820  0094  0600              	ld	b,0x00
   821  0096  7b                	ld	a, e
   822  0097  91                	sub	a, c
   823  0098  dd7700            	ld	(ix-2),a
   824  009b  7a                	ld	a, d
   825  009c  98                	sbc	a, b
   826  009d  dd7700            	ld	(ix-1),a
   827  00a0  dd7e00            	ld	a,(ix+4)
   828  00a3  c600              	add	a,0xff
   829  00a5  dd7700            	ld	(ix-4),a
   830  00a8  dd7e00            	ld	a,(ix+5)
   831  00ab  ce00              	adc	a,0xff
   832  00ad  dd7700            	ld	(ix-3),a
   833                          l_RightShift_00101:
   834  00b0  dd7e00            	ld	a,(ix-2)
   835  00b3  dd9600            	sub	a,(ix-4)
   836  00b6  2000              	jr	NZ,l_RightShift_00131
   837  00b8  dd7e00            	ld	a,(ix-1)
   838  00bb  dd9600            	sub	a,(ix-3)
   839  00be  2800              	jr	Z,l_RightShift_00103
   840                          l_RightShift_00131:
   841  00c0  dd6e00            	ld	l,(ix-2)
   842  00c3  dd6600            	ld	h,(ix-1)
   843  00c6  7e                	ld	a, (hl)
   844  00c7  12                	ld	(de), a
   845  00c8  1b                	dec	de
   846  00c9  dd6e00            	ld	l,(ix-2)
   847  00cc  dd6600            	ld	h,(ix-1)
   848  00cf  2b                	dec	hl
   849  00d0  dd7500            	ld	(ix-2),l
   850  00d3  dd7400            	ld	(ix-1),h
   851  00d6  1800              	jr	l_RightShift_00101
   852                          l_RightShift_00103:
   853  00d8  0b                	dec	bc
   854  00d9  dd6e00            	ld	l,(ix+4)
   855  00dc  dd6600            	ld	h,(ix+5)
   856  00df  09                	add	hl, bc
   857                          l_RightShift_00104:
   858  00e0  7d                	ld	a, l
   859  00e1  dd9600            	sub	a,(ix-4)
   860  00e4  2000              	jr	NZ,l_RightShift_00132
   861  00e6  7c                	ld	a, h
   862  00e7  dd9600            	sub	a,(ix-3)
   863  00ea  2800              	jr	Z,l_RightShift_00107
   864                          l_RightShift_00132:
   865  00ec  3600              	ld	(hl),0x20
   866  00ee  2b                	dec	hl
   867  00ef  1800              	jr	l_RightShift_00104
   868                          l_RightShift_00107:
   869  00f1  ddf9              	ld	sp, ix
   870  00f3  dde1              	pop	ix
   871  00f5  c9                	ret
   872                          	SECTION code_compiler
   873                          ;	---------------------------------
   874                          ; Function isrKeyboard
   875                          ; ---------------------------------
   876                          _isrKeyboard:
   877  00f6  f5                	push	af
   878  00f7  fde5              	push	iy
   879  00f9  fd210000          	ld	iy, 0
   880  00fd  d9                	exx
   881  00fe  db00              	in	a, (_IO_KEYBOARD)
   882  0100  4f                	ld	c,a
   883  0101  d600              	sub	a,0x80
   884  0103  3800              	jr	C,l_isrKeyboard_00111
   885  0105  3e00              	ld	a,0x83
   886  0107  91                	sub	a, c
   887  0108  3800              	jr	C,l_isrKeyboard_00111
   888  010a  fd210000          	ld	iy,__lastKeyboardIntVal
   889  010e  fd7100            	ld	(iy+0),c
   890  0111  1800              	jr	l_isrKeyboard_00112
   891                          l_isrKeyboard_00111:
   892  0113  79                	ld	a, c
   893  0114  d600              	sub	a,0x90
   894  0116  3800              	jr	C,l_isrKeyboard_00107
   895  0118  3e00              	ld	a,0x95
   896  011a  91                	sub	a, c
   897  011b  3000              	jr	NC,l_isrKeyboard_00112
   898                          l_isrKeyboard_00107:
   899  011d  3a0000            	ld	a, (__lastKeyboardIntVal+0)
   900  0120  fe00              	cp	a,0x80
   901  0122  2800              	jr	Z,l_isrKeyboard_00101
   902  0124  fe00              	cp	a,0x81
   903  0126  2800              	jr	Z,l_isrKeyboard_00102
   904  0128  fe00              	cp	a,0x82
   905  012a  2800              	jr	Z,l_isrKeyboard_00103
   906  012c  d600              	sub	a,0x83
   907  012e  2800              	jr	Z,l_isrKeyboard_00104
   908  0130  1800              	jr	l_isrKeyboard_00105
   909                          l_isrKeyboard_00101:
   910  0132  fd210000          	ld	iy,__lastKeyboardIntVal
   911  0136  fd360000          	ld	(iy+0),0x00
   912  013a  210000            	ld	hl,__joyStatus
   913  013d  71                	ld	(hl), c
   914  013e  1800              	jr	l_isrKeyboard_00112
   915                          l_isrKeyboard_00102:
   916  0140  fd210000          	ld	iy,__lastKeyboardIntVal
   917  0144  fd360000          	ld	(iy+0),0x00
   918  0148  210000            	ld	hl, +(__joyStatus + 1)
   919  014b  71                	ld	(hl), c
   920  014c  1800              	jr	l_isrKeyboard_00112
   921                          l_isrKeyboard_00103:
   922  014e  fd210000          	ld	iy,__lastKeyboardIntVal
   923  0152  fd360000          	ld	(iy+0),0x00
   924  0156  210000            	ld	hl, +(__joyStatus + 2)
   925  0159  71                	ld	(hl), c
   926  015a  1800              	jr	l_isrKeyboard_00112
   927                          l_isrKeyboard_00104:
   928  015c  fd210000          	ld	iy,__lastKeyboardIntVal
   929  0160  fd360000          	ld	(iy+0),0x00
   930  0164  210000            	ld	hl, +(__joyStatus + 3)
   931  0167  71                	ld	(hl), c
   932  0168  1800              	jr	l_isrKeyboard_00112
   933                          l_isrKeyboard_00105:
   934  016a  210000            	ld	hl,__kbdBuffer+0
   935  016d  ed5b0000          	ld	de, (__kbdBufferWritePos)
   936  0171  1600              	ld	d,0x00
   937  0173  19                	add	hl, de
   938  0174  71                	ld	(hl), c
   939  0175  3a0000            	ld	a, (__kbdBufferWritePos+0)
   940  0178  3c                	inc	a
   941  0179  320000            	ld	(__kbdBufferWritePos+0), a
   942                          l_isrKeyboard_00112:
   943  017c  d9                	exx
   944  017d  fde1              	pop	iy
   945  017f  f1                	pop	af
   946  0180  fb                	ei
   947  0181  ed4d              	reti
   948                          ;	---------------------------------
   949                          ; Function vt_clearToEndOfScreen
   950                          ; ---------------------------------
   951                          _vt_clearToEndOfScreen:
   952  0183  210000            	ld	hl,0x001b
   953  0186  e5                	push	hl
   954  0187  210000            	ld	hl,___str_0
   955  018a  e5                	push	hl
   956  018b  cd0000            	call	_printf
   957  018e  f1                	pop	af
   958  018f  f1                	pop	af
   959  0190  c9                	ret
   960                          	SECTION rodata_compiler
   961                          ___str_0:
   962  0090  25634a            	DEFM "%cJ"
   963  0093  00                	DEFB 0x00
   964                          	SECTION code_compiler
   965                          ;	---------------------------------
   966                          ; Function vt_clearToEndOfLine
   967                          ; ---------------------------------
   968                          _vt_clearToEndOfLine:
   969  0191  210000            	ld	hl,0x001b
   970  0194  e5                	push	hl
   971  0195  210000            	ld	hl,___str_1
   972  0198  e5                	push	hl
   973  0199  cd0000            	call	_printf
   974  019c  f1                	pop	af
   975  019d  f1                	pop	af
   976  019e  c9                	ret
   977                          	SECTION rodata_compiler
   978                          ___str_1:
   979  0094  25634b            	DEFM "%cK"
   980  0097  00                	DEFB 0x00
   981                          	SECTION code_compiler
   982                          ;	---------------------------------
   983                          ; Function vt_clearScreen
   984                          ; ---------------------------------
   985                          _vt_clearScreen:
   986  019f  3a0000            	ld	a, (__EMULATION_MODE+0)
   987  01a2  b7                	or	a, a
   988  01a3  2000              	jr	NZ,l_vt_clearScreen_00102
   989  01a5  210000            	ld	hl,0x001a
   990  01a8  e5                	push	hl
   991  01a9  210000            	ld	hl, +(__sgoioblk + 10)
   992  01ac  e5                	push	hl
   993  01ad  cd0000            	call	_fputc_callee
   994  01b0  1800              	jr	l_vt_clearScreen_00104
   995                          l_vt_clearScreen_00102:
   996  01b2  210000            	ld	hl,0x001b
   997  01b5  e5                	push	hl
   998  01b6  210000            	ld	hl,___str_2
   999  01b9  e5                	push	hl
  1000  01ba  cd0000            	call	_printf
  1001  01bd  f1                	pop	af
  1002  01be  f1                	pop	af
  1003                          l_vt_clearScreen_00104:
  1004  01bf  c9                	ret
  1005                          	SECTION rodata_compiler
  1006                          ___str_2:
  1007  0098  256345            	DEFM "%cE"
  1008  009b  00                	DEFB 0x00
  1009                          	SECTION code_compiler
  1010                          ;	---------------------------------
  1011                          ; Function vt_clearLine
  1012                          ; ---------------------------------
  1013                          _vt_clearLine:
  1014  01c0  210000            	ld	hl,0x001b
  1015  01c3  e5                	push	hl
  1016  01c4  210000            	ld	hl,___str_3
  1017  01c7  e5                	push	hl
  1018  01c8  cd0000            	call	_printf
  1019  01cb  f1                	pop	af
  1020  01cc  f1                	pop	af
  1021  01cd  c9                	ret
  1022                          	SECTION rodata_compiler
  1023                          ___str_3:
  1024  009c  25636c            	DEFM "%cl"
  1025  009f  00                	DEFB 0x00
  1026                          	SECTION code_compiler
  1027                          ;	---------------------------------
  1028                          ; Function vt_clearToStartOfLine
  1029                          ; ---------------------------------
  1030                          _vt_clearToStartOfLine:
  1031  01ce  210000            	ld	hl,0x001b
  1032  01d1  e5                	push	hl
  1033  01d2  210000            	ld	hl,___str_4
  1034  01d5  e5                	push	hl
  1035  01d6  cd0000            	call	_printf
  1036  01d9  f1                	pop	af
  1037  01da  f1                	pop	af
  1038  01db  c9                	ret
  1039                          	SECTION rodata_compiler
  1040                          ___str_4:
  1041  00a0  25636f            	DEFM "%co"
  1042  00a3  00                	DEFB 0x00
  1043                          	SECTION code_compiler
  1044                          ;	---------------------------------
  1045                          ; Function vt_clearToStartOfScreen
  1046                          ; ---------------------------------
  1047                          _vt_clearToStartOfScreen:
  1048  01dc  210000            	ld	hl,0x001b
  1049  01df  e5                	push	hl
  1050  01e0  210000            	ld	hl,___str_5
  1051  01e3  e5                	push	hl
  1052  01e4  cd0000            	call	_printf
  1053  01e7  f1                	pop	af
  1054  01e8  f1                	pop	af
  1055  01e9  c9                	ret
  1056                          	SECTION rodata_compiler
  1057                          ___str_5:
  1058  00a4  256364            	DEFM "%cd"
  1059  00a7  00                	DEFB 0x00
  1060                          	SECTION code_compiler
  1061                          ;	---------------------------------
  1062                          ; Function vt_moveCursorDown
  1063                          ; ---------------------------------
  1064                          _vt_moveCursorDown:
  1065  01ea  0e00              	ld	c,0x00
  1066                          l_vt_moveCursorDown_00103:
  1067  01ec  210000            	ld	hl,2
  1068  01ef  39                	add	hl, sp
  1069  01f0  79                	ld	a, c
  1070  01f1  96                	sub	a, (hl)
  1071  01f2  d0                	ret	NC
  1072  01f3  c5                	push	bc
  1073  01f4  210000            	ld	hl,0x001b
  1074  01f7  e5                	push	hl
  1075  01f8  210000            	ld	hl,___str_6
  1076  01fb  e5                	push	hl
  1077  01fc  cd0000            	call	_printf
  1078  01ff  f1                	pop	af
  1079  0200  f1                	pop	af
  1080  0201  c1                	pop	bc
  1081  0202  0c                	inc	c
  1082  0203  1800              	jr	l_vt_moveCursorDown_00103
  1083                          	SECTION rodata_compiler
  1084                          ___str_6:
  1085  00a8  256342            	DEFM "%cB"
  1086  00ab  00                	DEFB 0x00
  1087                          	SECTION code_compiler
  1088                          ;	---------------------------------
  1089                          ; Function vt_cursorHome
  1090                          ; ---------------------------------
  1091                          _vt_cursorHome:
  1092  0205  210000            	ld	hl,0x001b
  1093  0208  e5                	push	hl
  1094  0209  210000            	ld	hl,___str_7
  1095  020c  e5                	push	hl
  1096  020d  cd0000            	call	_printf
  1097  0210  f1                	pop	af
  1098  0211  f1                	pop	af
  1099  0212  c9                	ret
  1100                          	SECTION rodata_compiler
  1101                          ___str_7:
  1102  00ac  256348            	DEFM "%cH"
  1103  00af  00                	DEFB 0x00
  1104                          	SECTION code_compiler
  1105                          ;	---------------------------------
  1106                          ; Function vt_moveCursorLeft
  1107                          ; ---------------------------------
  1108                          _vt_moveCursorLeft:
  1109  0213  0e00              	ld	c,0x00
  1110                          l_vt_moveCursorLeft_00103:
  1111  0215  210000            	ld	hl,2
  1112  0218  39                	add	hl, sp
  1113  0219  79                	ld	a, c
  1114  021a  96                	sub	a, (hl)
  1115  021b  d0                	ret	NC
  1116  021c  c5                	push	bc
  1117  021d  210000            	ld	hl,0x001b
  1118  0220  e5                	push	hl
  1119  0221  210000            	ld	hl,___str_8
  1120  0224  e5                	push	hl
  1121  0225  cd0000            	call	_printf
  1122  0228  f1                	pop	af
  1123  0229  f1                	pop	af
  1124  022a  c1                	pop	bc
  1125  022b  0c                	inc	c
  1126  022c  1800              	jr	l_vt_moveCursorLeft_00103
  1127                          	SECTION rodata_compiler
  1128                          ___str_8:
  1129  00b0  256344            	DEFM "%cD"
  1130  00b3  00                	DEFB 0x00
  1131                          	SECTION code_compiler
  1132                          ;	---------------------------------
  1133                          ; Function vt_moveCursorRight
  1134                          ; ---------------------------------
  1135                          _vt_moveCursorRight:
  1136  022e  0e00              	ld	c,0x00
  1137                          l_vt_moveCursorRight_00103:
  1138  0230  210000            	ld	hl,2
  1139  0233  39                	add	hl, sp
  1140  0234  79                	ld	a, c
  1141  0235  96                	sub	a, (hl)
  1142  0236  d0                	ret	NC
  1143  0237  c5                	push	bc
  1144  0238  210000            	ld	hl,0x001b
  1145  023b  e5                	push	hl
  1146  023c  210000            	ld	hl,___str_9
  1147  023f  e5                	push	hl
  1148  0240  cd0000            	call	_printf
  1149  0243  f1                	pop	af
  1150  0244  f1                	pop	af
  1151  0245  c1                	pop	bc
  1152  0246  0c                	inc	c
  1153  0247  1800              	jr	l_vt_moveCursorRight_00103
  1154                          	SECTION rodata_compiler
  1155                          ___str_9:
  1156  00b4  256343            	DEFM "%cC"
  1157  00b7  00                	DEFB 0x00
  1158                          	SECTION code_compiler
  1159                          ;	---------------------------------
  1160                          ; Function vt_moveCursorUp
  1161                          ; ---------------------------------
  1162                          _vt_moveCursorUp:
  1163  0249  0e00              	ld	c,0x00
  1164                          l_vt_moveCursorUp_00103:
  1165  024b  210000            	ld	hl,2
  1166  024e  39                	add	hl, sp
  1167  024f  79                	ld	a, c
  1168  0250  96                	sub	a, (hl)
  1169  0251  d0                	ret	NC
  1170  0252  c5                	push	bc
  1171  0253  210000            	ld	hl,0x001b
  1172  0256  e5                	push	hl
  1173  0257  210000            	ld	hl,___str_10
  1174  025a  e5                	push	hl
  1175  025b  cd0000            	call	_printf
  1176  025e  f1                	pop	af
  1177  025f  f1                	pop	af
  1178  0260  c1                	pop	bc
  1179  0261  0c                	inc	c
  1180  0262  1800              	jr	l_vt_moveCursorUp_00103
  1181                          	SECTION rodata_compiler
  1182                          ___str_10:
  1183  00b8  256341            	DEFM "%cA"
  1184  00bb  00                	DEFB 0x00
  1185                          	SECTION code_compiler
  1186                          ;	---------------------------------
  1187                          ; Function vt_deleteLine
  1188                          ; ---------------------------------
  1189                          _vt_deleteLine:
  1190  0264  210000            	ld	hl,0x001b
  1191  0267  e5                	push	hl
  1192  0268  210000            	ld	hl,___str_11
  1193  026b  e5                	push	hl
  1194  026c  cd0000            	call	_printf
  1195  026f  f1                	pop	af
  1196  0270  f1                	pop	af
  1197  0271  c9                	ret
  1198                          	SECTION rodata_compiler
  1199                          ___str_11:
  1200  00bc  25634d            	DEFM "%cM"
  1201  00bf  00                	DEFB 0x00
  1202                          	SECTION code_compiler
  1203                          ;	---------------------------------
  1204                          ; Function vt_setCursor
  1205                          ; ---------------------------------
  1206                          _vt_setCursor:
  1207  0272  dde5              	push	ix
  1208  0274  dd210000          	ld	ix,0
  1209  0278  dd39              	add	ix,sp
  1210  027a  210000            	ld	hl,0x001b
  1211  027d  e5                	push	hl
  1212  027e  210000            	ld	hl, +(__sgoioblk + 10)
  1213  0281  e5                	push	hl
  1214  0282  cd0000            	call	_fputc_callee
  1215  0285  3a0000            	ld	a, (__EMULATION_MODE+0)
  1216  0288  b7                	or	a, a
  1217  0289  2000              	jr	NZ,l_vt_setCursor_00102
  1218  028b  210000            	ld	hl,0x003d
  1219  028e  e5                	push	hl
  1220  028f  210000            	ld	hl, +(__sgoioblk + 10)
  1221  0292  e5                	push	hl
  1222  0293  cd0000            	call	_fputc_callee
  1223  0296  1800              	jr	l_vt_setCursor_00103
  1224                          l_vt_setCursor_00102:
  1225  0298  210000            	ld	hl,0x0059
  1226  029b  e5                	push	hl
  1227  029c  210000            	ld	hl, +(__sgoioblk + 10)
  1228  029f  e5                	push	hl
  1229  02a0  cd0000            	call	_fputc_callee
  1230                          l_vt_setCursor_00103:
  1231  02a3  dd4e00            	ld	c,(ix+5)
  1232  02a6  0600              	ld	b,0x00
  1233  02a8  210000            	ld	hl,0x0020
  1234  02ab  09                	add	hl, bc
  1235  02ac  e5                	push	hl
  1236  02ad  210000            	ld	hl, +(__sgoioblk + 10)
  1237  02b0  e5                	push	hl
  1238  02b1  cd0000            	call	_fputc_callee
  1239  02b4  dd4e00            	ld	c,(ix+4)
  1240  02b7  0600              	ld	b,0x00
  1241  02b9  210000            	ld	hl,0x0020
  1242  02bc  09                	add	hl, bc
  1243  02bd  e5                	push	hl
  1244  02be  210000            	ld	hl, +(__sgoioblk + 10)
  1245  02c1  e5                	push	hl
  1246  02c2  cd0000            	call	_fputc_callee
  1247  02c5  dde1              	pop	ix
  1248  02c7  c9                	ret
  1249                          	SECTION code_compiler
  1250                          ;	---------------------------------
  1251                          ; Function vt_foregroundColor
  1252                          ; ---------------------------------
  1253                          _vt_foregroundColor:
  1254  02c8  dde5              	push	ix
  1255  02ca  dd210000          	ld	ix,0
  1256  02ce  dd39              	add	ix,sp
  1257  02d0  210000            	ld	hl,0x001b
  1258  02d3  e5                	push	hl
  1259  02d4  210000            	ld	hl, +(__sgoioblk + 10)
  1260  02d7  e5                	push	hl
  1261  02d8  cd0000            	call	_fputc_callee
  1262  02db  210000            	ld	hl,0x0062
  1263  02de  e5                	push	hl
  1264  02df  210000            	ld	hl, +(__sgoioblk + 10)
  1265  02e2  e5                	push	hl
  1266  02e3  cd0000            	call	_fputc_callee
  1267  02e6  dd4e00            	ld	c,(ix+4)
  1268  02e9  0600              	ld	b,0x00
  1269  02eb  c5                	push	bc
  1270  02ec  210000            	ld	hl, +(__sgoioblk + 10)
  1271  02ef  e5                	push	hl
  1272  02f0  cd0000            	call	_fputc_callee
  1273  02f3  dde1              	pop	ix
  1274  02f5  c9                	ret
  1275                          	SECTION code_compiler
  1276                          ;	---------------------------------
  1277                          ; Function vt_insertLine
  1278                          ; ---------------------------------
  1279                          _vt_insertLine:
  1280  02f6  210000            	ld	hl,0x001b
  1281  02f9  e5                	push	hl
  1282  02fa  210000            	ld	hl,___str_12
  1283  02fd  e5                	push	hl
  1284  02fe  cd0000            	call	_printf
  1285  0301  f1                	pop	af
  1286  0302  f1                	pop	af
  1287  0303  c9                	ret
  1288                          	SECTION rodata_compiler
  1289                          ___str_12:
  1290  00c0  25634c            	DEFM "%cL"
  1291  00c3  00                	DEFB 0x00
  1292                          	SECTION code_compiler
  1293                          ;	---------------------------------
  1294                          ; Function vt_restoreCursorPosition
  1295                          ; ---------------------------------
  1296                          _vt_restoreCursorPosition:
  1297  0304  210000            	ld	hl,0x001b
  1298  0307  e5                	push	hl
  1299  0308  210000            	ld	hl,___str_13
  1300  030b  e5                	push	hl
  1301  030c  cd0000            	call	_printf
  1302  030f  f1                	pop	af
  1303  0310  f1                	pop	af
  1304  0311  c9                	ret
  1305                          	SECTION rodata_compiler
  1306                          ___str_13:
  1307  00c4  25636b            	DEFM "%ck"
  1308  00c7  00                	DEFB 0x00
  1309                          	SECTION code_compiler
  1310                          ;	---------------------------------
  1311                          ; Function vt_backgroundColor
  1312                          ; ---------------------------------
  1313                          _vt_backgroundColor:
  1314  0312  dde5              	push	ix
  1315  0314  dd210000          	ld	ix,0
  1316  0318  dd39              	add	ix,sp
  1317  031a  210000            	ld	hl,0x001b
  1318  031d  e5                	push	hl
  1319  031e  210000            	ld	hl, +(__sgoioblk + 10)
  1320  0321  e5                	push	hl
  1321  0322  cd0000            	call	_fputc_callee
  1322  0325  210000            	ld	hl,0x0063
  1323  0328  e5                	push	hl
  1324  0329  210000            	ld	hl, +(__sgoioblk + 10)
  1325  032c  e5                	push	hl
  1326  032d  cd0000            	call	_fputc_callee
  1327  0330  dd4e00            	ld	c,(ix+4)
  1328  0333  0600              	ld	b,0x00
  1329  0335  c5                	push	bc
  1330  0336  210000            	ld	hl, +(__sgoioblk + 10)
  1331  0339  e5                	push	hl
  1332  033a  cd0000            	call	_fputc_callee
  1333  033d  dde1              	pop	ix
  1334  033f  c9                	ret
  1335                          	SECTION code_compiler
  1336                          ;	---------------------------------
  1337                          ; Function vt_saveCursorPosition
  1338                          ; ---------------------------------
  1339                          _vt_saveCursorPosition:
  1340  0340  210000            	ld	hl,0x001b
  1341  0343  e5                	push	hl
  1342  0344  210000            	ld	hl,___str_14
  1343  0347  e5                	push	hl
  1344  0348  cd0000            	call	_printf
  1345  034b  f1                	pop	af
  1346  034c  f1                	pop	af
  1347  034d  c9                	ret
  1348                          	SECTION rodata_compiler
  1349                          ___str_14:
  1350  00c8  25636a            	DEFM "%cj"
  1351  00cb  00                	DEFB 0x00
  1352                          	SECTION code_compiler
  1353                          ;	---------------------------------
  1354                          ; Function vt_cursorUpAndInsert
  1355                          ; ---------------------------------
  1356                          _vt_cursorUpAndInsert:
  1357  034e  210000            	ld	hl,0x001b
  1358  0351  e5                	push	hl
  1359  0352  210000            	ld	hl,___str_15
  1360  0355  e5                	push	hl
  1361  0356  cd0000            	call	_printf
  1362  0359  f1                	pop	af
  1363  035a  f1                	pop	af
  1364  035b  c9                	ret
  1365                          	SECTION rodata_compiler
  1366                          ___str_15:
  1367  00cc  256349            	DEFM "%cI"
  1368  00cf  00                	DEFB 0x00
  1369                          	SECTION code_compiler
  1370                          ;	---------------------------------
  1371                          ; Function vt_wrapOff
  1372                          ; ---------------------------------
  1373                          _vt_wrapOff:
  1374  035c  210000            	ld	hl,0x001b
  1375  035f  e5                	push	hl
  1376  0360  210000            	ld	hl,___str_16
  1377  0363  e5                	push	hl
  1378  0364  cd0000            	call	_printf
  1379  0367  f1                	pop	af
  1380  0368  f1                	pop	af
  1381  0369  c9                	ret
  1382                          	SECTION rodata_compiler
  1383                          ___str_16:
  1384  00d0  256377            	DEFM "%cw"
  1385  00d3  00                	DEFB 0x00
  1386                          	SECTION code_compiler
  1387                          ;	---------------------------------
  1388                          ; Function vt_wrapOn
  1389                          ; ---------------------------------
  1390                          _vt_wrapOn:
  1391  036a  210000            	ld	hl,0x001b
  1392  036d  e5                	push	hl
  1393  036e  210000            	ld	hl,___str_17
  1394  0371  e5                	push	hl
  1395  0372  cd0000            	call	_printf
  1396  0375  f1                	pop	af
  1397  0376  f1                	pop	af
  1398  0377  c9                	ret
  1399                          	SECTION rodata_compiler
  1400                          ___str_17:
  1401  00d4  256376            	DEFM "%cv"
  1402  00d7  00                	DEFB 0x00
  1403                          	SECTION code_compiler
  1404                          ;	---------------------------------
  1405                          ; Function vt_normalVideo
  1406                          ; ---------------------------------
  1407                          _vt_normalVideo:
  1408  0378  210000            	ld	hl,0x001b
  1409  037b  e5                	push	hl
  1410  037c  210000            	ld	hl,___str_18
  1411  037f  e5                	push	hl
  1412  0380  cd0000            	call	_printf
  1413  0383  f1                	pop	af
  1414  0384  f1                	pop	af
  1415  0385  c9                	ret
  1416                          	SECTION rodata_compiler
  1417                          ___str_18:
  1418  00d8  256371            	DEFM "%cq"
  1419  00db  00                	DEFB 0x00
  1420                          	SECTION code_compiler
  1421                          ;	---------------------------------
  1422                          ; Function vt_reverseVideo
  1423                          ; ---------------------------------
  1424                          _vt_reverseVideo:
  1425  0386  210000            	ld	hl,0x001b
  1426  0389  e5                	push	hl
  1427  038a  210000            	ld	hl,___str_19
  1428  038d  e5                	push	hl
  1429  038e  cd0000            	call	_printf
  1430  0391  f1                	pop	af
  1431  0392  f1                	pop	af
  1432  0393  c9                	ret
  1433                          	SECTION rodata_compiler
  1434                          ___str_19:
  1435  00dc  256370            	DEFM "%cp"
  1436  00df  00                	DEFB 0x00
  1437                          	SECTION code_compiler
  1438                          ;	---------------------------------
  1439                          ; Function ayWrite
  1440                          ; ---------------------------------
  1441                          _ayWrite:
  1442  0394  fd210000          	ld	iy,2
  1443  0398  fd39              	add	iy, sp
  1444  039a  fd7e00            	ld	a,(iy+0)
  1445  039d  d300              	out	(_IO_AYLATCH), a
  1446  039f  fd7e00            	ld	a,(iy+0+1)
  1447  03a2  d300              	out	(_IO_AYDATA), a
  1448  03a4  c9                	ret
  1449                          	SECTION code_compiler
  1450                          ;	---------------------------------
  1451                          ; Function ayRead
  1452                          ; ---------------------------------
  1453                          _ayRead:
  1454  03a5  210000            	ld	hl,2+0
  1455  03a8  39                	add	hl, sp
  1456  03a9  7e                	ld	a, (hl)
  1457  03aa  d300              	out	(_IO_AYLATCH), a
  1458  03ac  db00              	in	a, (_IO_AYDATA)
  1459  03ae  6f                	ld	l, a
  1460  03af  c9                	ret
  1461                          	SECTION code_compiler
  1462                          ;	---------------------------------
  1463                          ; Function playNoteDelay
  1464                          ; ---------------------------------
  1465                          _playNoteDelay:
  1466  03b0  dde5              	push	ix
  1467  03b2  dd210000          	ld	ix,0
  1468  03b6  dd39              	add	ix,sp
  1469  03b8  dd5600            	ld	d,(ix+7)
  1470  03bb  1e00              	ld	e,0x0b
  1471  03bd  d5                	push	de
  1472  03be  cd0000            	call	_ayWrite
  1473  03c1  f1                	pop	af
  1474  03c2  dd5600            	ld	d,(ix+6)
  1475  03c5  1e00              	ld	e,0x0c
  1476  03c7  d5                	push	de
  1477  03c8  cd0000            	call	_ayWrite
  1478  03cb  f1                	pop	af
  1479  03cc  dd7e00            	ld	a,(ix+4)
  1480  03cf  b7                	or	a, a
  1481  03d0  2800              	jr	Z,l_playNoteDelay_00101
  1482  03d2  dd7e00            	ld	a,(ix+4)
  1483  03d5  3d                	dec	a
  1484  03d6  2800              	jr	Z,l_playNoteDelay_00102
  1485  03d8  dd7e00            	ld	a,(ix+4)
  1486  03db  d600              	sub	a,0x02
  1487  03dd  ca0000            	jp	Z,l_playNoteDelay_00103
  1488  03e0  c30000            	jp	l_playNoteDelay_00105
  1489                          l_playNoteDelay_00101:
  1490  03e3  110000            	ld	de,0x1008
  1491  03e6  d5                	push	de
  1492  03e7  cd0000            	call	_ayWrite
  1493  03ea  f1                	pop	af
  1494  03eb  af                	xor	a, a
  1495  03ec  57                	ld	d,a
  1496  03ed  1e00              	ld	e,0x09
  1497  03ef  d5                	push	de
  1498  03f0  cd0000            	call	_ayWrite
  1499  03f3  f1                	pop	af
  1500  03f4  af                	xor	a, a
  1501  03f5  57                	ld	d,a
  1502  03f6  1e00              	ld	e,0x0a
  1503  03f8  d5                	push	de
  1504  03f9  cd0000            	call	_ayWrite
  1505  03fc  f1                	pop	af
  1506  03fd  010000            	ld	bc,__NOTES_FINE+0
  1507  0400  dd6e00            	ld	l,(ix+5)
  1508  0403  2600              	ld	h,0x00
  1509  0405  09                	add	hl, bc
  1510  0406  7e                	ld	a, (hl)
  1511  0407  f5                	push	af
  1512  0408  33                	inc	sp
  1513  0409  af                	xor	a, a
  1514  040a  f5                	push	af
  1515  040b  33                	inc	sp
  1516  040c  cd0000            	call	_ayWrite
  1517  040f  f1                	pop	af
  1518  0410  010000            	ld	bc,__NOTES_COURSE+0
  1519  0413  dd6e00            	ld	l,(ix+5)
  1520  0416  2600              	ld	h,0x00
  1521  0418  09                	add	hl, bc
  1522  0419  56                	ld	d, (hl)
  1523  041a  1e00              	ld	e,0x01
  1524  041c  d5                	push	de
  1525  041d  cd0000            	call	_ayWrite
  1526  0420  f1                	pop	af
  1527  0421  af                	xor	a, a
  1528  0422  57                	ld	d,a
  1529  0423  1e00              	ld	e,0x0d
  1530  0425  d5                	push	de
  1531  0426  cd0000            	call	_ayWrite
  1532  0429  f1                	pop	af
  1533  042a  c30000            	jp	l_playNoteDelay_00105
  1534                          l_playNoteDelay_00102:
  1535  042d  af                	xor	a, a
  1536  042e  57                	ld	d,a
  1537  042f  1e00              	ld	e,0x08
  1538  0431  d5                	push	de
  1539  0432  cd0000            	call	_ayWrite
  1540  0435  f1                	pop	af
  1541  0436  110000            	ld	de,0x1009
  1542  0439  d5                	push	de
  1543  043a  cd0000            	call	_ayWrite
  1544  043d  f1                	pop	af
  1545  043e  af                	xor	a, a
  1546  043f  57                	ld	d,a
  1547  0440  1e00              	ld	e,0x0a
  1548  0442  d5                	push	de
  1549  0443  cd0000            	call	_ayWrite
  1550  0446  f1                	pop	af
  1551  0447  010000            	ld	bc,__NOTES_FINE+0
  1552  044a  dd6e00            	ld	l,(ix+5)
  1553  044d  2600              	ld	h,0x00
  1554  044f  09                	add	hl, bc
  1555  0450  56                	ld	d, (hl)
  1556  0451  1e00              	ld	e,0x02
  1557  0453  d5                	push	de
  1558  0454  cd0000            	call	_ayWrite
  1559  0457  f1                	pop	af
  1560  0458  010000            	ld	bc,__NOTES_COURSE+0
  1561  045b  dd6e00            	ld	l,(ix+5)
  1562  045e  2600              	ld	h,0x00
  1563  0460  09                	add	hl, bc
  1564  0461  56                	ld	d, (hl)
  1565  0462  1e00              	ld	e,0x03
  1566  0464  d5                	push	de
  1567  0465  cd0000            	call	_ayWrite
  1568  0468  f1                	pop	af
  1569  0469  af                	xor	a, a
  1570  046a  57                	ld	d,a
  1571  046b  1e00              	ld	e,0x0d
  1572  046d  d5                	push	de
  1573  046e  cd0000            	call	_ayWrite
  1574  0471  f1                	pop	af
  1575  0472  1800              	jr	l_playNoteDelay_00105
  1576                          l_playNoteDelay_00103:
  1577  0474  af                	xor	a, a
  1578  0475  57                	ld	d,a
  1579  0476  1e00              	ld	e,0x08
  1580  0478  d5                	push	de
  1581  0479  cd0000            	call	_ayWrite
  1582  047c  f1                	pop	af
  1583  047d  af                	xor	a, a
  1584  047e  57                	ld	d,a
  1585  047f  1e00              	ld	e,0x09
  1586  0481  d5                	push	de
  1587  0482  cd0000            	call	_ayWrite
  1588  0485  f1                	pop	af
  1589  0486  110000            	ld	de,0x100a
  1590  0489  d5                	push	de
  1591  048a  cd0000            	call	_ayWrite
  1592  048d  f1                	pop	af
  1593  048e  010000            	ld	bc,__NOTES_FINE+0
  1594  0491  dd6e00            	ld	l,(ix+5)
  1595  0494  2600              	ld	h,0x00
  1596  0496  09                	add	hl, bc
  1597  0497  56                	ld	d, (hl)
  1598  0498  1e00              	ld	e,0x04
  1599  049a  d5                	push	de
  1600  049b  cd0000            	call	_ayWrite
  1601  049e  f1                	pop	af
  1602  049f  010000            	ld	bc,__NOTES_COURSE+0
  1603  04a2  dd6e00            	ld	l,(ix+5)
  1604  04a5  2600              	ld	h,0x00
  1605  04a7  09                	add	hl, bc
  1606  04a8  56                	ld	d, (hl)
  1607  04a9  1e00              	ld	e,0x05
  1608  04ab  d5                	push	de
  1609  04ac  cd0000            	call	_ayWrite
  1610  04af  f1                	pop	af
  1611  04b0  af                	xor	a, a
  1612  04b1  57                	ld	d,a
  1613  04b2  1e00              	ld	e,0x0d
  1614  04b4  d5                	push	de
  1615  04b5  cd0000            	call	_ayWrite
  1616  04b8  f1                	pop	af
  1617                          l_playNoteDelay_00105:
  1618  04b9  dde1              	pop	ix
  1619  04bb  c9                	ret
  1620                          	SECTION code_compiler
  1621                          ;	---------------------------------
  1622                          ; Function isKeyPressed
  1623                          ; ---------------------------------
  1624                          _isKeyPressed:
  1625  04bc  3a0000            	ld	a, (__kbdBufferWritePos+0)
  1626  04bf  fd210000          	ld	iy,__kbdBufferReadPos
  1627  04c3  fd9600            	sub	a,(iy+0)
  1628  04c6  2000              	jr	NZ,l_isKeyPressed_00103
  1629  04c8  3e00              	ld	a,0x01
  1630  04ca  1800              	jr	l_isKeyPressed_00104
  1631                          l_isKeyPressed_00103:
  1632  04cc  af                	xor	a,a
  1633                          l_isKeyPressed_00104:
  1634  04cd  ee00              	xor	a,0x01
  1635  04cf  6f                	ld	l, a
  1636  04d0  c9                	ret
  1637                          	SECTION code_compiler
  1638                          ;	---------------------------------
  1639                          ; Function getChar
  1640                          ; ---------------------------------
  1641                          _getChar:
  1642                          l_getChar_00101:
  1643  04d1  3a0000            	ld	a, (__kbdBufferWritePos+0)
  1644  04d4  fd210000          	ld	iy,__kbdBufferReadPos
  1645  04d8  fd9600            	sub	a,(iy+0)
  1646  04db  2800              	jr	Z,l_getChar_00101
  1647  04dd  010000            	ld	bc,__kbdBuffer+0
  1648  04e0  2a0000            	ld	hl, (__kbdBufferReadPos)
  1649  04e3  2600              	ld	h,0x00
  1650  04e5  09                	add	hl, bc
  1651  04e6  4e                	ld	c, (hl)
  1652  04e7  3a0000            	ld	a, (__kbdBufferReadPos+0)
  1653  04ea  3c                	inc	a
  1654  04eb  320000            	ld	(__kbdBufferReadPos+0), a
  1655  04ee  69                	ld	l, c
  1656  04ef  c9                	ret
  1657                          	SECTION code_compiler
  1658                          ;	---------------------------------
  1659                          ; Function getJoyStatus
  1660                          ; ---------------------------------
  1661                          _getJoyStatus:
  1662  04f0  3e00              	ld	a, +((__joyStatus) & 0xFF)
  1663  04f2  210000            	ld	hl,2
  1664  04f5  39                	add	hl, sp
  1665  04f6  86                	add	a, (hl)
  1666  04f7  6f                	ld	l, a
  1667  04f8  3e00              	ld	a, +((__joyStatus) / 256)
  1668  04fa  ce00              	adc	a,0x00
  1669  04fc  67                	ld	h, a
  1670  04fd  6e                	ld	l, (hl)
  1671  04fe  c9                	ret
  1672                          	SECTION code_compiler
  1673                          ;	---------------------------------
  1674                          ; Function nt_init
  1675                          ; ---------------------------------
  1676                          _nt_init:
  1677  04ff  fd210000          	ld	iy,2
  1678  0503  fd39              	add	iy, sp
  1679  0505  fd7e00            	ld	a,(iy+0)
  1680  0508  320000            	ld	(__song+0), a
  1681  050b  fd7e00            	ld	a,(iy+1)
  1682  050e  320000            	ld	(__song+1), a
  1683  0511  210000            	ld	hl,0x0000
  1684  0514  220000            	ld	(__itemCntr), hl
  1685  0517  210000            	ld	hl,__beatCntr + 0
  1686  051a  3600              	ld	(hl),0x00
  1687  051c  110000            	ld	de,0x0106
  1688  051f  d5                	push	de
  1689  0520  cd0000            	call	_ayWrite
  1690  0523  f1                	pop	af
  1691  0524  110000            	ld	de,0x7807
  1692  0527  d5                	push	de
  1693  0528  cd0000            	call	_ayWrite
  1694  052b  f1                	pop	af
  1695  052c  af                	xor	a, a
  1696  052d  57                	ld	d,a
  1697  052e  1e00              	ld	e,0x08
  1698  0530  d5                	push	de
  1699  0531  cd0000            	call	_ayWrite
  1700  0534  f1                	pop	af
  1701  0535  af                	xor	a, a
  1702  0536  57                	ld	d,a
  1703  0537  1e00              	ld	e,0x09
  1704  0539  d5                	push	de
  1705  053a  cd0000            	call	_ayWrite
  1706  053d  f1                	pop	af
  1707  053e  af                	xor	a, a
  1708  053f  57                	ld	d,a
  1709  0540  1e00              	ld	e,0x0a
  1710  0542  d5                	push	de
  1711  0543  cd0000            	call	_ayWrite
  1712  0546  f1                	pop	af
  1713  0547  c9                	ret
  1714                          	SECTION code_compiler
  1715                          ;	---------------------------------
  1716                          ; Function nt_stopSounds
  1717                          ; ---------------------------------
  1718                          _nt_stopSounds:
  1719  0548  af                	xor	a, a
  1720  0549  57                	ld	d,a
  1721  054a  1e00              	ld	e,0x08
  1722  054c  d5                	push	de
  1723  054d  cd0000            	call	_ayWrite
  1724  0550  f1                	pop	af
  1725  0551  af                	xor	a, a
  1726  0552  57                	ld	d,a
  1727  0553  1e00              	ld	e,0x09
  1728  0555  d5                	push	de
  1729  0556  cd0000            	call	_ayWrite
  1730  0559  f1                	pop	af
  1731  055a  af                	xor	a, a
  1732  055b  57                	ld	d,a
  1733  055c  1e00              	ld	e,0x0a
  1734  055e  d5                	push	de
  1735  055f  cd0000            	call	_ayWrite
  1736  0562  f1                	pop	af
  1737  0563  c9                	ret
  1738                          	SECTION code_compiler
  1739                          ;	---------------------------------
  1740                          ; Function nt_handleNote
  1741                          ; ---------------------------------
  1742                          _nt_handleNote:
  1743  0564  dde5              	push	ix
  1744  0566  dd210000          	ld	ix,0
  1745  056a  dd39              	add	ix,sp
  1746  056c  3b                	dec	sp
  1747                          l_nt_handleNote_00113:
  1748  056d  210000            	ld	hl,__itemCntr
  1749  0570  3a0000            	ld	a, (__song+0)
  1750  0573  86                	add	a, (hl)
  1751  0574  4f                	ld	c, a
  1752  0575  3a0000            	ld	a, (__song+1)
  1753  0578  23                	inc	hl
  1754  0579  8e                	adc	a, (hl)
  1755  057a  47                	ld	b, a
  1756  057b  0a                	ld	a, (bc)
  1757  057c  4f                	ld	c, a
  1758  057d  3a0000            	ld	a, (__beatCntr+0)
  1759  0580  91                	sub	a, c
  1760  0581  c20000            	jp	NZ,l_nt_handleNote_00115
  1761  0584  2a0000            	ld	hl, (__itemCntr)
  1762  0587  23                	inc	hl
  1763  0588  220000            	ld	(__itemCntr), hl
  1764  058b  fd2a0000          	ld	iy, (__song)
  1765  058f  ed5b0000          	ld	de, (__itemCntr)
  1766  0593  fd19              	add	iy, de
  1767  0595  fd7e00            	ld	a,(iy+0)
  1768  0598  dd7700            	ld	(ix-1),a
  1769  059b  b7                	or	a, a
  1770  059c  ca0000            	jp	Z,l_nt_handleNote_00107
  1771  059f  dd7e00            	ld	a,(ix-1)
  1772  05a2  d600              	sub	a,0x0a
  1773  05a4  2800              	jr	Z,l_nt_handleNote_00101
  1774  05a6  dd7e00            	ld	a,(ix-1)
  1775  05a9  d600              	sub	a,0x14
  1776  05ab  2800              	jr	Z,l_nt_handleNote_00102
  1777  05ad  dd7e00            	ld	a,(ix-1)
  1778  05b0  d600              	sub	a,0x63
  1779  05b2  ca0000            	jp	Z,l_nt_handleNote_00111
  1780  05b5  1800              	jr	l_nt_handleNote_00113
  1781                          l_nt_handleNote_00101:
  1782  05b7  ed4b0000          	ld	bc, (__itemCntr)
  1783  05bb  03                	inc	bc
  1784  05bc  2a0000            	ld	hl, (__song)
  1785  05bf  09                	add	hl, bc
  1786  05c0  7e                	ld	a, (hl)
  1787  05c1  c600              	add	a,0x08
  1788  05c3  2600              	ld	h,0x00
  1789  05c5  e5                	push	hl
  1790  05c6  33                	inc	sp
  1791  05c7  f5                	push	af
  1792  05c8  33                	inc	sp
  1793  05c9  cd0000            	call	_ayWrite
  1794  05cc  f1                	pop	af
  1795  05cd  2a0000            	ld	hl, (__itemCntr)
  1796  05d0  23                	inc	hl
  1797  05d1  23                	inc	hl
  1798  05d2  220000            	ld	(__itemCntr), hl
  1799  05d5  1800              	jr	l_nt_handleNote_00113
  1800                          l_nt_handleNote_00102:
  1801  05d7  ed4b0000          	ld	bc, (__itemCntr)
  1802  05db  03                	inc	bc
  1803  05dc  03                	inc	bc
  1804  05dd  2a0000            	ld	hl, (__song)
  1805  05e0  09                	add	hl, bc
  1806  05e1  7e                	ld	a, (hl)
  1807  05e2  dd7700            	ld	(ix-1),a
  1808  05e5  ed4b0000          	ld	bc, (__itemCntr)
  1809  05e9  03                	inc	bc
  1810  05ea  2a0000            	ld	hl, (__song)
  1811  05ed  09                	add	hl, bc
  1812  05ee  7e                	ld	a, (hl)
  1813  05ef  b7                	or	a, a
  1814  05f0  2800              	jr	Z,l_nt_handleNote_00103
  1815  05f2  fe00              	cp	a,0x01
  1816  05f4  2800              	jr	Z,l_nt_handleNote_00104
  1817  05f6  d600              	sub	a,0x02
  1818  05f8  ca0000            	jp	Z,l_nt_handleNote_00105
  1819  05fb  c30000            	jp	l_nt_handleNote_00106
  1820                          l_nt_handleNote_00103:
  1821  05fe  3e00              	ld	a, +((__NOTES_FINE) & 0xFF)
  1822  0600  dd8600            	add	a,(ix-1)
  1823  0603  4f                	ld	c, a
  1824  0604  3e00              	ld	a, +((__NOTES_FINE) / 256)
  1825  0606  ce00              	adc	a,0x00
  1826  0608  47                	ld	b, a
  1827  0609  0a                	ld	a, (bc)
  1828  060a  f5                	push	af
  1829  060b  33                	inc	sp
  1830  060c  af                	xor	a, a
  1831  060d  f5                	push	af
  1832  060e  33                	inc	sp
  1833  060f  cd0000            	call	_ayWrite
  1834  0612  f1                	pop	af
  1835  0613  3e00              	ld	a, +((__NOTES_COURSE) & 0xFF)
  1836  0615  dd8600            	add	a,(ix-1)
  1837  0618  4f                	ld	c, a
  1838  0619  3e00              	ld	a, +((__NOTES_COURSE) / 256)
  1839  061b  ce00              	adc	a,0x00
  1840  061d  47                	ld	b, a
  1841  061e  0a                	ld	a, (bc)
  1842  061f  57                	ld	d,a
  1843  0620  1e00              	ld	e,0x01
  1844  0622  d5                	push	de
  1845  0623  cd0000            	call	_ayWrite
  1846  0626  f1                	pop	af
  1847  0627  ed4b0000          	ld	bc, (__itemCntr)
  1848  062b  03                	inc	bc
  1849  062c  03                	inc	bc
  1850  062d  03                	inc	bc
  1851  062e  2a0000            	ld	hl, (__song)
  1852  0631  09                	add	hl, bc
  1853  0632  56                	ld	d, (hl)
  1854  0633  1e00              	ld	e,0x08
  1855  0635  d5                	push	de
  1856  0636  cd0000            	call	_ayWrite
  1857  0639  f1                	pop	af
  1858  063a  1800              	jr	l_nt_handleNote_00106
  1859                          l_nt_handleNote_00104:
  1860  063c  3e00              	ld	a, +((__NOTES_FINE) & 0xFF)
  1861  063e  dd8600            	add	a,(ix-1)
  1862  0641  4f                	ld	c, a
  1863  0642  3e00              	ld	a, +((__NOTES_FINE) / 256)
  1864  0644  ce00              	adc	a,0x00
  1865  0646  47                	ld	b, a
  1866  0647  0a                	ld	a, (bc)
  1867  0648  57                	ld	d,a
  1868  0649  1e00              	ld	e,0x02
  1869  064b  d5                	push	de
  1870  064c  cd0000            	call	_ayWrite
  1871  064f  f1                	pop	af
  1872  0650  3e00              	ld	a, +((__NOTES_COURSE) & 0xFF)
  1873  0652  dd8600            	add	a,(ix-1)
  1874  0655  4f                	ld	c, a
  1875  0656  3e00              	ld	a, +((__NOTES_COURSE) / 256)
  1876  0658  ce00              	adc	a,0x00
  1877  065a  47                	ld	b, a
  1878  065b  0a                	ld	a, (bc)
  1879  065c  57                	ld	d,a
  1880  065d  1e00              	ld	e,0x03
  1881  065f  d5                	push	de
  1882  0660  cd0000            	call	_ayWrite
  1883  0663  f1                	pop	af
  1884  0664  ed4b0000          	ld	bc, (__itemCntr)
  1885  0668  03                	inc	bc
  1886  0669  03                	inc	bc
  1887  066a  03                	inc	bc
  1888  066b  2a0000            	ld	hl, (__song)
  1889  066e  09                	add	hl, bc
  1890  066f  56                	ld	d, (hl)
  1891  0670  1e00              	ld	e,0x09
  1892  0672  d5                	push	de
  1893  0673  cd0000            	call	_ayWrite
  1894  0676  f1                	pop	af
  1895  0677  1800              	jr	l_nt_handleNote_00106
  1896                          l_nt_handleNote_00105:
  1897  0679  3e00              	ld	a, +((__NOTES_FINE) & 0xFF)
  1898  067b  dd8600            	add	a,(ix-1)
  1899  067e  4f                	ld	c, a
  1900  067f  3e00              	ld	a, +((__NOTES_FINE) / 256)
  1901  0681  ce00              	adc	a,0x00
  1902  0683  47                	ld	b, a
  1903  0684  0a                	ld	a, (bc)
  1904  0685  57                	ld	d,a
  1905  0686  1e00              	ld	e,0x04
  1906  0688  d5                	push	de
  1907  0689  cd0000            	call	_ayWrite
  1908  068c  f1                	pop	af
  1909  068d  3e00              	ld	a, +((__NOTES_COURSE) & 0xFF)
  1910  068f  dd8600            	add	a,(ix-1)
  1911  0692  4f                	ld	c, a
  1912  0693  3e00              	ld	a, +((__NOTES_COURSE) / 256)
  1913  0695  ce00              	adc	a,0x00
  1914  0697  47                	ld	b, a
  1915  0698  0a                	ld	a, (bc)
  1916  0699  57                	ld	d,a
  1917  069a  1e00              	ld	e,0x05
  1918  069c  d5                	push	de
  1919  069d  cd0000            	call	_ayWrite
  1920  06a0  f1                	pop	af
  1921  06a1  ed4b0000          	ld	bc, (__itemCntr)
  1922  06a5  03                	inc	bc
  1923  06a6  03                	inc	bc
  1924  06a7  03                	inc	bc
  1925  06a8  2a0000            	ld	hl, (__song)
  1926  06ab  09                	add	hl, bc
  1927  06ac  56                	ld	d, (hl)
  1928  06ad  1e00              	ld	e,0x0a
  1929  06af  d5                	push	de
  1930  06b0  cd0000            	call	_ayWrite
  1931  06b3  f1                	pop	af
  1932                          l_nt_handleNote_00106:
  1933  06b4  210000            	ld	hl,__itemCntr
  1934  06b7  7e                	ld	a, (hl)
  1935  06b8  c600              	add	a,0x04
  1936  06ba  77                	ld	(hl), a
  1937  06bb  d20000            	jp	NC,l_nt_handleNote_00113
  1938  06be  23                	inc	hl
  1939  06bf  34                	inc	(hl)
  1940  06c0  c30000            	jp	l_nt_handleNote_00113
  1941                          l_nt_handleNote_00107:
  1942  06c3  af                	xor	a, a
  1943  06c4  57                	ld	d,a
  1944  06c5  1e00              	ld	e,0x08
  1945  06c7  d5                	push	de
  1946  06c8  cd0000            	call	_ayWrite
  1947  06cb  f1                	pop	af
  1948  06cc  ed4b0000          	ld	bc, (__itemCntr)
  1949  06d0  03                	inc	bc
  1950  06d1  2a0000            	ld	hl, (__song)
  1951  06d4  09                	add	hl, bc
  1952  06d5  7e                	ld	a, (hl)
  1953  06d6  b7                	or	a, a
  1954  06d7  2800              	jr	Z,l_nt_handleNote_00109
  1955  06d9  110000            	ld	de,0x7807
  1956  06dc  d5                	push	de
  1957  06dd  cd0000            	call	_ayWrite
  1958  06e0  f1                	pop	af
  1959  06e1  1800              	jr	l_nt_handleNote_00110
  1960                          l_nt_handleNote_00109:
  1961  06e3  110000            	ld	de,0x7107
  1962  06e6  d5                	push	de
  1963  06e7  cd0000            	call	_ayWrite
  1964  06ea  f1                	pop	af
  1965                          l_nt_handleNote_00110:
  1966  06eb  2a0000            	ld	hl, (__itemCntr)
  1967  06ee  23                	inc	hl
  1968  06ef  23                	inc	hl
  1969  06f0  220000            	ld	(__itemCntr), hl
  1970  06f3  c30000            	jp	l_nt_handleNote_00113
  1971                          l_nt_handleNote_00111:
  1972  06f6  210000            	ld	hl,0x0000
  1973  06f9  220000            	ld	(__itemCntr), hl
  1974  06fc  210000            	ld	hl,__beatCntr + 0
  1975  06ff  3600              	ld	(hl),0x00
  1976  0701  c30000            	jp	l_nt_handleNote_00113
  1977                          l_nt_handleNote_00115:
  1978  0704  210000            	ld	hl,__beatCntr+0
  1979  0707  34                	inc	(hl)
  1980  0708  33                	inc	sp
  1981  0709  dde1              	pop	ix
  1982  070b  c9                	ret
  1983                          	SECTION code_compiler
  1984                          ;	---------------------------------
  1985                          ; Function main
  1986                          ; ---------------------------------
  1987                          _main:
  1988  070c  cd0000            	call	_initNABULib
  1989  070f  210000            	ld	hl,_baseattack_nt
  1990  0712  e5                	push	hl
  1991  0713  cd0000            	call	_nt_init
  1992  0716  210000            	ld	hl,___str_20
  1993  0719  e3                	ex	(sp),hl
  1994  071a  cd0000            	call	_puts
  1995  071d  f1                	pop	af
  1996  071e  010000            	ld	bc,0x0000
  1997                          l_main_00107:
  1998  0721  c5                	push	bc
  1999  0722  210000            	ld	hl,0x01a4
  2000  0725  e5                	push	hl
  2001  0726  c5                	push	bc
  2002  0727  cd0000            	call	__moduint_callee
  2003  072a  c1                	pop	bc
  2004  072b  7c                	ld	a, h
  2005  072c  b5                	or	a, l
  2006  072d  2000              	jr	NZ,l_main_00102
  2007  072f  c5                	push	bc
  2008  0730  cd0000            	call	_nt_handleNote
  2009  0733  c1                	pop	bc
  2010                          l_main_00102:
  2011  0734  c5                	push	bc
  2012  0735  cd0000            	call	_isKeyPressed
  2013  0738  7d                	ld	a, l
  2014  0739  c1                	pop	bc
  2015  073a  b7                	or	a, a
  2016  073b  2800              	jr	Z,l_main_00104
  2017  073d  c5                	push	bc
  2018  073e  cd0000            	call	_getChar
  2019  0741  7d                	ld	a, l
  2020  0742  c1                	pop	bc
  2021  0743  d600              	sub	a,0x71
  2022  0745  2800              	jr	Z,l_main_00108
  2023                          l_main_00104:
  2024  0747  03                	inc	bc
  2025  0748  1800              	jr	l_main_00107
  2026                          l_main_00108:
  2027  074a  c30000            	jp	_nt_stopSounds
  2028                          	SECTION rodata_compiler
  2029                          ___str_20:
  2030  00e0  5072657373207120  	DEFM "Press q to quit"
              746f2071756974    
  2031  00ef  00                	DEFB 0x00
  2032                          	SECTION data_compiler
  2033                          __randomSeed:
  2034  0000  00                	DEFB +0x00
  2035                          __kbdBufferReadPos:
  2036  0001  00                	DEFB +0x00
  2037                          __kbdBufferWritePos:
  2038  0002  00                	DEFB +0x00
  2039                          __lastKeyboardIntVal:
  2040  0003  00                	DEFB +0x00
  2041                          __joyStatus:
  2042  0004  00                	DEFB +0x00
  2043  0005  00                	DEFB 0x00
  2044  0006  00                	DEFB 0x00
  2045  0007  00                	DEFB 0x00
  2046                          __ORIGINAL_INT_MASK:
  2047  0008  00                	DEFB +0x00
  2048                          _baseattack_nt:
  2049  0009  00                	DEFB +0x00
  2050  000a  0a                	DEFB +0x0a
  2051  000b  00                	DEFB +0x00
  2052  000c  00                	DEFB +0x00
  2053  000d  14                	DEFB +0x14
  2054  000e  00                	DEFB +0x00
  2055  000f  11                	DEFB +0x11
  2056  0010  0c                	DEFB +0x0c
  2057  0011  01                	DEFB +0x01
  2058  0012  0a                	DEFB +0x0a
  2059  0013  00                	DEFB +0x00
  2060  0014  01                	DEFB +0x01
  2061  0015  14                	DEFB +0x14
  2062  0016  00                	DEFB +0x00
  2063  0017  11                	DEFB +0x11
  2064  0018  0c                	DEFB +0x0c
  2065  0019  02                	DEFB +0x02
  2066  001a  14                	DEFB +0x14
  2067  001b  00                	DEFB +0x00
  2068  001c  05                	DEFB +0x05
  2069  001d  0f                	DEFB +0x0f
  2070  001e  03                	DEFB +0x03
  2071  001f  0a                	DEFB +0x0a
  2072  0020  00                	DEFB +0x00
  2073  0021  04                	DEFB +0x04
  2074  0022  0a                	DEFB +0x0a
  2075  0023  00                	DEFB +0x00
  2076  0024  04                	DEFB +0x04
  2077  0025  14                	DEFB +0x14
  2078  0026  00                	DEFB +0x00
  2079  0027  11                	DEFB +0x11
  2080  0028  0c                	DEFB +0x0c
  2081  0029  04                	DEFB +0x04
  2082  002a  14                	DEFB +0x14
  2083  002b  02                	DEFB +0x02
  2084  002c  21                	DEFB +0x21
  2085  002d  02                	DEFB +0x02
  2086  002e  05                	DEFB +0x05
  2087  002f  0a                	DEFB +0x0a
  2088  0030  00                	DEFB +0x00
  2089  0031  05                	DEFB +0x05
  2090  0032  0a                	DEFB +0x0a
  2091  0033  02                	DEFB +0x02
  2092  0034  05                	DEFB +0x05
  2093  0035  14                	DEFB +0x14
  2094  0036  00                	DEFB +0x00
  2095  0037  11                	DEFB +0x11
  2096  0038  0c                	DEFB +0x0c
  2097  0039  06                	DEFB +0x06
  2098  003a  14                	DEFB +0x14
  2099  003b  00                	DEFB +0x00
  2100  003c  05                	DEFB +0x05
  2101  003d  0f                	DEFB +0x0f
  2102  003e  07                	DEFB +0x07
  2103  003f  0a                	DEFB +0x0a
  2104  0040  00                	DEFB +0x00
  2105  0041  07                	DEFB +0x07
  2106  0042  0a                	DEFB +0x0a
  2107  0043  02                	DEFB +0x02
  2108  0044  07                	DEFB +0x07
  2109  0045  14                	DEFB +0x14
  2110  0046  02                	DEFB +0x02
  2111  0047  1f                	DEFB +0x1f
  2112  0048  03                	DEFB +0x03
  2113  0049  08                	DEFB +0x08
  2114  004a  0a                	DEFB +0x0a
  2115  004b  00                	DEFB +0x00
  2116  004c  08                	DEFB +0x08
  2117  004d  0a                	DEFB +0x0a
  2118  004e  02                	DEFB +0x02
  2119  004f  08                	DEFB +0x08
  2120  0050  14                	DEFB +0x14
  2121  0051  00                	DEFB +0x00
  2122  0052  11                	DEFB +0x11
  2123  0053  0c                	DEFB +0x0c
  2124  0054  08                	DEFB +0x08
  2125  0055  14                	DEFB +0x14
  2126  0056  02                	DEFB +0x02
  2127  0057  21                	DEFB +0x21
  2128  0058  04                	DEFB +0x04
  2129  0059  09                	DEFB +0x09
  2130  005a  0a                	DEFB +0x0a
  2131  005b  00                	DEFB +0x00
  2132  005c  09                	DEFB +0x09
  2133  005d  14                	DEFB +0x14
  2134  005e  00                	DEFB +0x00
  2135  005f  11                	DEFB +0x11
  2136  0060  0c                	DEFB +0x0c
  2137  0061  0a                	DEFB +0x0a
  2138  0062  0a                	DEFB +0x0a
  2139  0063  02                	DEFB +0x02
  2140  0064  0a                	DEFB +0x0a
  2141  0065  14                	DEFB +0x14
  2142  0066  00                	DEFB +0x00
  2143  0067  05                	DEFB +0x05
  2144  0068  0f                	DEFB +0x0f
  2145  0069  0a                	DEFB +0x0a
  2146  006a  14                	DEFB +0x14
  2147  006b  02                	DEFB +0x02
  2148  006c  21                	DEFB +0x21
  2149  006d  04                	DEFB +0x04
  2150  006e  0b                	DEFB +0x0b
  2151  006f  0a                	DEFB +0x0a
  2152  0070  00                	DEFB +0x00
  2153  0071  0c                	DEFB +0x0c
  2154  0072  0a                	DEFB +0x0a
  2155  0073  00                	DEFB +0x00
  2156  0074  0c                	DEFB +0x0c
  2157  0075  14                	DEFB +0x14
  2158  0076  00                	DEFB +0x00
  2159  0077  11                	DEFB +0x11
  2160  0078  0c                	DEFB +0x0c
  2161  0079  0c                	DEFB +0x0c
  2162  007a  14                	DEFB +0x14
  2163  007b  02                	DEFB +0x02
  2164  007c  21                	DEFB +0x21
  2165  007d  05                	DEFB +0x05
  2166  007e  0d                	DEFB +0x0d
  2167  007f  0a                	DEFB +0x0a
  2168  0080  00                	DEFB +0x00
  2169  0081  0d                	DEFB +0x0d
  2170  0082  0a                	DEFB +0x0a
  2171  0083  02                	DEFB +0x02
  2172  0084  0d                	DEFB +0x0d
  2173  0085  14                	DEFB +0x14
  2174  0086  00                	DEFB +0x00
  2175  0087  11                	DEFB +0x11
  2176  0088  0c                	DEFB +0x0c
  2177  0089  0e                	DEFB +0x0e
  2178  008a  14                	DEFB +0x14
  2179  008b  00                	DEFB +0x00
  2180  008c  05                	DEFB +0x05
  2181  008d  0f                	DEFB +0x0f
  2182  008e  0e                	DEFB +0x0e
  2183  008f  14                	DEFB +0x14
  2184  0090  02                	DEFB +0x02
  2185  0091  26                	DEFB +0x26
  2186  0092  06                	DEFB +0x06
  2187  0093  0f                	DEFB +0x0f
  2188  0094  0a                	DEFB +0x0a
  2189  0095  00                	DEFB +0x00
  2190  0096  0f                	DEFB +0x0f
  2191  0097  0a                	DEFB +0x0a
  2192  0098  02                	DEFB +0x02
  2193  0099  10                	DEFB +0x10
  2194  009a  0a                	DEFB +0x0a
  2195  009b  00                	DEFB +0x00
  2196  009c  10                	DEFB +0x10
  2197  009d  14                	DEFB +0x14
  2198  009e  00                	DEFB +0x00
  2199  009f  15                	DEFB +0x15
  2200  00a0  0c                	DEFB +0x0c
  2201  00a1  10                	DEFB +0x10
  2202  00a2  14                	DEFB +0x14
  2203  00a3  02                	DEFB +0x02
  2204  00a4  24                	DEFB +0x24
  2205  00a5  06                	DEFB +0x06
  2206  00a6  11                	DEFB +0x11
  2207  00a7  0a                	DEFB +0x0a
  2208  00a8  00                	DEFB +0x00
  2209  00a9  11                	DEFB +0x11
  2210  00aa  0a                	DEFB +0x0a
  2211  00ab  02                	DEFB +0x02
  2212  00ac  11                	DEFB +0x11
  2213  00ad  14                	DEFB +0x14
  2214  00ae  00                	DEFB +0x00
  2215  00af  15                	DEFB +0x15
  2216  00b0  0c                	DEFB +0x0c
  2217  00b1  12                	DEFB +0x12
  2218  00b2  14                	DEFB +0x14
  2219  00b3  00                	DEFB +0x00
  2220  00b4  09                	DEFB +0x09
  2221  00b5  0f                	DEFB +0x0f
  2222  00b6  13                	DEFB +0x13
  2223  00b7  0a                	DEFB +0x0a
  2224  00b8  00                	DEFB +0x00
  2225  00b9  14                	DEFB +0x14
  2226  00ba  0a                	DEFB +0x0a
  2227  00bb  00                	DEFB +0x00
  2228  00bc  14                	DEFB +0x14
  2229  00bd  14                	DEFB +0x14
  2230  00be  00                	DEFB +0x00
  2231  00bf  15                	DEFB +0x15
  2232  00c0  0c                	DEFB +0x0c
  2233  00c1  14                	DEFB +0x14
  2234  00c2  14                	DEFB +0x14
  2235  00c3  02                	DEFB +0x02
  2236  00c4  24                	DEFB +0x24
  2237  00c5  08                	DEFB +0x08
  2238  00c6  15                	DEFB +0x15
  2239  00c7  0a                	DEFB +0x0a
  2240  00c8  00                	DEFB +0x00
  2241  00c9  15                	DEFB +0x15
  2242  00ca  0a                	DEFB +0x0a
  2243  00cb  02                	DEFB +0x02
  2244  00cc  15                	DEFB +0x15
  2245  00cd  14                	DEFB +0x14
  2246  00ce  00                	DEFB +0x00
  2247  00cf  15                	DEFB +0x15
  2248  00d0  0c                	DEFB +0x0c
  2249  00d1  16                	DEFB +0x16
  2250  00d2  14                	DEFB +0x14
  2251  00d3  00                	DEFB +0x00
  2252  00d4  09                	DEFB +0x09
  2253  00d5  0f                	DEFB +0x0f
  2254  00d6  17                	DEFB +0x17
  2255  00d7  0a                	DEFB +0x0a
  2256  00d8  00                	DEFB +0x00
  2257  00d9  17                	DEFB +0x17
  2258  00da  0a                	DEFB +0x0a
  2259  00db  02                	DEFB +0x02
  2260  00dc  17                	DEFB +0x17
  2261  00dd  14                	DEFB +0x14
  2262  00de  02                	DEFB +0x02
  2263  00df  23                	DEFB +0x23
  2264  00e0  08                	DEFB +0x08
  2265  00e1  18                	DEFB +0x18
  2266  00e2  0a                	DEFB +0x0a
  2267  00e3  00                	DEFB +0x00
  2268  00e4  18                	DEFB +0x18
  2269  00e5  0a                	DEFB +0x0a
  2270  00e6  02                	DEFB +0x02
  2271  00e7  18                	DEFB +0x18
  2272  00e8  14                	DEFB +0x14
  2273  00e9  00                	DEFB +0x00
  2274  00ea  15                	DEFB +0x15
  2275  00eb  0c                	DEFB +0x0c
  2276  00ec  18                	DEFB +0x18
  2277  00ed  14                	DEFB +0x14
  2278  00ee  02                	DEFB +0x02
  2279  00ef  24                	DEFB +0x24
  2280  00f0  09                	DEFB +0x09
  2281  00f1  19                	DEFB +0x19
  2282  00f2  0a                	DEFB +0x0a
  2283  00f3  00                	DEFB +0x00
  2284  00f4  19                	DEFB +0x19
  2285  00f5  14                	DEFB +0x14
  2286  00f6  00                	DEFB +0x00
  2287  00f7  15                	DEFB +0x15
  2288  00f8  0c                	DEFB +0x0c
  2289  00f9  1a                	DEFB +0x1a
  2290  00fa  0a                	DEFB +0x0a
  2291  00fb  02                	DEFB +0x02
  2292  00fc  1a                	DEFB +0x1a
  2293  00fd  14                	DEFB +0x14
  2294  00fe  00                	DEFB +0x00
  2295  00ff  09                	DEFB +0x09
  2296  0100  0f                	DEFB +0x0f
  2297  0101  1a                	DEFB +0x1a
  2298  0102  14                	DEFB +0x14
  2299  0103  02                	DEFB +0x02
  2300  0104  24                	DEFB +0x24
  2301  0105  0a                	DEFB +0x0a
  2302  0106  1b                	DEFB +0x1b
  2303  0107  0a                	DEFB +0x0a
  2304  0108  00                	DEFB +0x00
  2305  0109  1c                	DEFB +0x1c
  2306  010a  0a                	DEFB +0x0a
  2307  010b  00                	DEFB +0x00
  2308  010c  1c                	DEFB +0x1c
  2309  010d  14                	DEFB +0x14
  2310  010e  00                	DEFB +0x00
  2311  010f  15                	DEFB +0x15
  2312  0110  0c                	DEFB +0x0c
  2313  0111  1c                	DEFB +0x1c
  2314  0112  14                	DEFB +0x14
  2315  0113  02                	DEFB +0x02
  2316  0114  23                	DEFB +0x23
  2317  0115  0a                	DEFB +0x0a
  2318  0116  1d                	DEFB +0x1d
  2319  0117  0a                	DEFB +0x0a
  2320  0118  00                	DEFB +0x00
  2321  0119  1d                	DEFB +0x1d
  2322  011a  0a                	DEFB +0x0a
  2323  011b  02                	DEFB +0x02
  2324  011c  1d                	DEFB +0x1d
  2325  011d  14                	DEFB +0x14
  2326  011e  00                	DEFB +0x00
  2327  011f  15                	DEFB +0x15
  2328  0120  0c                	DEFB +0x0c
  2329  0121  1e                	DEFB +0x1e
  2330  0122  14                	DEFB +0x14
  2331  0123  00                	DEFB +0x00
  2332  0124  09                	DEFB +0x09
  2333  0125  0f                	DEFB +0x0f
  2334  0126  1e                	DEFB +0x1e
  2335  0127  14                	DEFB +0x14
  2336  0128  02                	DEFB +0x02
  2337  0129  24                	DEFB +0x24
  2338  012a  0b                	DEFB +0x0b
  2339  012b  1f                	DEFB +0x1f
  2340  012c  0a                	DEFB +0x0a
  2341  012d  00                	DEFB +0x00
  2342  012e  1f                	DEFB +0x1f
  2343  012f  0a                	DEFB +0x0a
  2344  0130  02                	DEFB +0x02
  2345  0131  20                	DEFB +0x20
  2346  0132  0a                	DEFB +0x0a
  2347  0133  00                	DEFB +0x00
  2348  0134  20                	DEFB +0x20
  2349  0135  14                	DEFB +0x14
  2350  0136  00                	DEFB +0x00
  2351  0137  13                	DEFB +0x13
  2352  0138  0c                	DEFB +0x0c
  2353  0139  20                	DEFB +0x20
  2354  013a  14                	DEFB +0x14
  2355  013b  02                	DEFB +0x02
  2356  013c  23                	DEFB +0x23
  2357  013d  0b                	DEFB +0x0b
  2358  013e  21                	DEFB +0x21
  2359  013f  0a                	DEFB +0x0a
  2360  0140  00                	DEFB +0x00
  2361  0141  21                	DEFB +0x21
  2362  0142  0a                	DEFB +0x0a
  2363  0143  02                	DEFB +0x02
  2364  0144  21                	DEFB +0x21
  2365  0145  14                	DEFB +0x14
  2366  0146  00                	DEFB +0x00
  2367  0147  13                	DEFB +0x13
  2368  0148  0c                	DEFB +0x0c
  2369  0149  22                	DEFB +0x22
  2370  014a  14                	DEFB +0x14
  2371  014b  00                	DEFB +0x00
  2372  014c  07                	DEFB +0x07
  2373  014d  0f                	DEFB +0x0f
  2374  014e  23                	DEFB +0x23
  2375  014f  0a                	DEFB +0x0a
  2376  0150  00                	DEFB +0x00
  2377  0151  24                	DEFB +0x24
  2378  0152  0a                	DEFB +0x0a
  2379  0153  00                	DEFB +0x00
  2380  0154  24                	DEFB +0x24
  2381  0155  14                	DEFB +0x14
  2382  0156  00                	DEFB +0x00
  2383  0157  13                	DEFB +0x13
  2384  0158  0c                	DEFB +0x0c
  2385  0159  24                	DEFB +0x24
  2386  015a  14                	DEFB +0x14
  2387  015b  02                	DEFB +0x02
  2388  015c  23                	DEFB +0x23
  2389  015d  0b                	DEFB +0x0b
  2390  015e  25                	DEFB +0x25
  2391  015f  0a                	DEFB +0x0a
  2392  0160  00                	DEFB +0x00
  2393  0161  25                	DEFB +0x25
  2394  0162  0a                	DEFB +0x0a
  2395  0163  02                	DEFB +0x02
  2396  0164  25                	DEFB +0x25
  2397  0165  14                	DEFB +0x14
  2398  0166  00                	DEFB +0x00
  2399  0167  13                	DEFB +0x13
  2400  0168  0c                	DEFB +0x0c
  2401  0169  26                	DEFB +0x26
  2402  016a  14                	DEFB +0x14
  2403  016b  00                	DEFB +0x00
  2404  016c  07                	DEFB +0x07
  2405  016d  0f                	DEFB +0x0f
  2406  016e  27                	DEFB +0x27
  2407  016f  0a                	DEFB +0x0a
  2408  0170  00                	DEFB +0x00
  2409  0171  27                	DEFB +0x27
  2410  0172  0a                	DEFB +0x0a
  2411  0173  02                	DEFB +0x02
  2412  0174  27                	DEFB +0x27
  2413  0175  14                	DEFB +0x14
  2414  0176  02                	DEFB +0x02
  2415  0177  21                	DEFB +0x21
  2416  0178  0b                	DEFB +0x0b
  2417  0179  28                	DEFB +0x28
  2418  017a  0a                	DEFB +0x0a
  2419  017b  00                	DEFB +0x00
  2420  017c  28                	DEFB +0x28
  2421  017d  0a                	DEFB +0x0a
  2422  017e  02                	DEFB +0x02
  2423  017f  28                	DEFB +0x28
  2424  0180  14                	DEFB +0x14
  2425  0181  00                	DEFB +0x00
  2426  0182  13                	DEFB +0x13
  2427  0183  0c                	DEFB +0x0c
  2428  0184  28                	DEFB +0x28
  2429  0185  14                	DEFB +0x14
  2430  0186  02                	DEFB +0x02
  2431  0187  23                	DEFB +0x23
  2432  0188  0b                	DEFB +0x0b
  2433  0189  29                	DEFB +0x29
  2434  018a  0a                	DEFB +0x0a
  2435  018b  00                	DEFB +0x00
  2436  018c  29                	DEFB +0x29
  2437  018d  14                	DEFB +0x14
  2438  018e  00                	DEFB +0x00
  2439  018f  13                	DEFB +0x13
  2440  0190  0c                	DEFB +0x0c
  2441  0191  2a                	DEFB +0x2a
  2442  0192  0a                	DEFB +0x0a
  2443  0193  02                	DEFB +0x02
  2444  0194  2a                	DEFB +0x2a
  2445  0195  14                	DEFB +0x14
  2446  0196  00                	DEFB +0x00
  2447  0197  07                	DEFB +0x07
  2448  0198  0f                	DEFB +0x0f
  2449  0199  2a                	DEFB +0x2a
  2450  019a  14                	DEFB +0x14
  2451  019b  02                	DEFB +0x02
  2452  019c  23                	DEFB +0x23
  2453  019d  0b                	DEFB +0x0b
  2454  019e  2b                	DEFB +0x2b
  2455  019f  0a                	DEFB +0x0a
  2456  01a0  00                	DEFB +0x00
  2457  01a1  2c                	DEFB +0x2c
  2458  01a2  0a                	DEFB +0x0a
  2459  01a3  00                	DEFB +0x00
  2460  01a4  2c                	DEFB +0x2c
  2461  01a5  14                	DEFB +0x14
  2462  01a6  00                	DEFB +0x00
  2463  01a7  13                	DEFB +0x13
  2464  01a8  0c                	DEFB +0x0c
  2465  01a9  2c                	DEFB +0x2c
  2466  01aa  14                	DEFB +0x14
  2467  01ab  02                	DEFB +0x02
  2468  01ac  23                	DEFB +0x23
  2469  01ad  0b                	DEFB +0x0b
  2470  01ae  2d                	DEFB +0x2d
  2471  01af  0a                	DEFB +0x0a
  2472  01b0  00                	DEFB +0x00
  2473  01b1  2d                	DEFB +0x2d
  2474  01b2  0a                	DEFB +0x0a
  2475  01b3  02                	DEFB +0x02
  2476  01b4  2d                	DEFB +0x2d
  2477  01b5  14                	DEFB +0x14
  2478  01b6  00                	DEFB +0x00
  2479  01b7  13                	DEFB +0x13
  2480  01b8  0c                	DEFB +0x0c
  2481  01b9  2e                	DEFB +0x2e
  2482  01ba  14                	DEFB +0x14
  2483  01bb  00                	DEFB +0x00
  2484  01bc  07                	DEFB +0x07
  2485  01bd  0f                	DEFB +0x0f
  2486  01be  2e                	DEFB +0x2e
  2487  01bf  14                	DEFB +0x14
  2488  01c0  02                	DEFB +0x02
  2489  01c1  1f                	DEFB +0x1f
  2490  01c2  0b                	DEFB +0x0b
  2491  01c3  2f                	DEFB +0x2f
  2492  01c4  0a                	DEFB +0x0a
  2493  01c5  00                	DEFB +0x00
  2494  01c6  2f                	DEFB +0x2f
  2495  01c7  0a                	DEFB +0x0a
  2496  01c8  02                	DEFB +0x02
  2497  01c9  30                	DEFB +0x30
  2498  01ca  0a                	DEFB +0x0a
  2499  01cb  00                	DEFB +0x00
  2500  01cc  30                	DEFB +0x30
  2501  01cd  14                	DEFB +0x14
  2502  01ce  00                	DEFB +0x00
  2503  01cf  0e                	DEFB +0x0e
  2504  01d0  0c                	DEFB +0x0c
  2505  01d1  30                	DEFB +0x30
  2506  01d2  14                	DEFB +0x14
  2507  01d3  02                	DEFB +0x02
  2508  01d4  21                	DEFB +0x21
  2509  01d5  0c                	DEFB +0x0c
  2510  01d6  31                	DEFB +0x31
  2511  01d7  0a                	DEFB +0x0a
  2512  01d8  00                	DEFB +0x00
  2513  01d9  31                	DEFB +0x31
  2514  01da  0a                	DEFB +0x0a
  2515  01db  02                	DEFB +0x02
  2516  01dc  31                	DEFB +0x31
  2517  01dd  14                	DEFB +0x14
  2518  01de  00                	DEFB +0x00
  2519  01df  0e                	DEFB +0x0e
  2520  01e0  0c                	DEFB +0x0c
  2521  01e1  32                	DEFB +0x32
  2522  01e2  14                	DEFB +0x14
  2523  01e3  00                	DEFB +0x00
  2524  01e4  02                	DEFB +0x02
  2525  01e5  0f                	DEFB +0x0f
  2526  01e6  33                	DEFB +0x33
  2527  01e7  0a                	DEFB +0x0a
  2528  01e8  00                	DEFB +0x00
  2529  01e9  34                	DEFB +0x34
  2530  01ea  0a                	DEFB +0x0a
  2531  01eb  00                	DEFB +0x00
  2532  01ec  34                	DEFB +0x34
  2533  01ed  14                	DEFB +0x14
  2534  01ee  00                	DEFB +0x00
  2535  01ef  0e                	DEFB +0x0e
  2536  01f0  0c                	DEFB +0x0c
  2537  01f1  34                	DEFB +0x34
  2538  01f2  14                	DEFB +0x14
  2539  01f3  02                	DEFB +0x02
  2540  01f4  21                	DEFB +0x21
  2541  01f5  0c                	DEFB +0x0c
  2542  01f6  35                	DEFB +0x35
  2543  01f7  0a                	DEFB +0x0a
  2544  01f8  00                	DEFB +0x00
  2545  01f9  35                	DEFB +0x35
  2546  01fa  14                	DEFB +0x14
  2547  01fb  00                	DEFB +0x00
  2548  01fc  0e                	DEFB +0x0e
  2549  01fd  0c                	DEFB +0x0c
  2550  01fe  36                	DEFB +0x36
  2551  01ff  0a                	DEFB +0x0a
  2552  0200  02                	DEFB +0x02
  2553  0201  36                	DEFB +0x36
  2554  0202  14                	DEFB +0x14
  2555  0203  00                	DEFB +0x00
  2556  0204  02                	DEFB +0x02
  2557  0205  0f                	DEFB +0x0f
  2558  0206  37                	DEFB +0x37
  2559  0207  0a                	DEFB +0x0a
  2560  0208  00                	DEFB +0x00
  2561  0209  37                	DEFB +0x37
  2562  020a  0a                	DEFB +0x0a
  2563  020b  02                	DEFB +0x02
  2564  020c  37                	DEFB +0x37
  2565  020d  14                	DEFB +0x14
  2566  020e  02                	DEFB +0x02
  2567  020f  1f                	DEFB +0x1f
  2568  0210  0c                	DEFB +0x0c
  2569  0211  38                	DEFB +0x38
  2570  0212  0a                	DEFB +0x0a
  2571  0213  00                	DEFB +0x00
  2572  0214  38                	DEFB +0x38
  2573  0215  0a                	DEFB +0x0a
  2574  0216  02                	DEFB +0x02
  2575  0217  38                	DEFB +0x38
  2576  0218  14                	DEFB +0x14
  2577  0219  00                	DEFB +0x00
  2578  021a  0e                	DEFB +0x0e
  2579  021b  0c                	DEFB +0x0c
  2580  021c  38                	DEFB +0x38
  2581  021d  14                	DEFB +0x14
  2582  021e  02                	DEFB +0x02
  2583  021f  21                	DEFB +0x21
  2584  0220  0c                	DEFB +0x0c
  2585  0221  39                	DEFB +0x39
  2586  0222  0a                	DEFB +0x0a
  2587  0223  00                	DEFB +0x00
  2588  0224  39                	DEFB +0x39
  2589  0225  14                	DEFB +0x14
  2590  0226  00                	DEFB +0x00
  2591  0227  0e                	DEFB +0x0e
  2592  0228  0c                	DEFB +0x0c
  2593  0229  3a                	DEFB +0x3a
  2594  022a  0a                	DEFB +0x0a
  2595  022b  02                	DEFB +0x02
  2596  022c  3a                	DEFB +0x3a
  2597  022d  14                	DEFB +0x14
  2598  022e  00                	DEFB +0x00
  2599  022f  02                	DEFB +0x02
  2600  0230  0f                	DEFB +0x0f
  2601  0231  3a                	DEFB +0x3a
  2602  0232  14                	DEFB +0x14
  2603  0233  02                	DEFB +0x02
  2604  0234  21                	DEFB +0x21
  2605  0235  0c                	DEFB +0x0c
  2606  0236  3b                	DEFB +0x3b
  2607  0237  0a                	DEFB +0x0a
  2608  0238  00                	DEFB +0x00
  2609  0239  3c                	DEFB +0x3c
  2610  023a  0a                	DEFB +0x0a
  2611  023b  00                	DEFB +0x00
  2612  023c  3c                	DEFB +0x3c
  2613  023d  14                	DEFB +0x14
  2614  023e  00                	DEFB +0x00
  2615  023f  0e                	DEFB +0x0e
  2616  0240  0c                	DEFB +0x0c
  2617  0241  3c                	DEFB +0x3c
  2618  0242  14                	DEFB +0x14
  2619  0243  02                	DEFB +0x02
  2620  0244  21                	DEFB +0x21
  2621  0245  0c                	DEFB +0x0c
  2622  0246  3d                	DEFB +0x3d
  2623  0247  0a                	DEFB +0x0a
  2624  0248  00                	DEFB +0x00
  2625  0249  3d                	DEFB +0x3d
  2626  024a  0a                	DEFB +0x0a
  2627  024b  02                	DEFB +0x02
  2628  024c  3d                	DEFB +0x3d
  2629  024d  14                	DEFB +0x14
  2630  024e  00                	DEFB +0x00
  2631  024f  0e                	DEFB +0x0e
  2632  0250  0c                	DEFB +0x0c
  2633  0251  3e                	DEFB +0x3e
  2634  0252  14                	DEFB +0x14
  2635  0253  00                	DEFB +0x00
  2636  0254  02                	DEFB +0x02
  2637  0255  0f                	DEFB +0x0f
  2638  0256  3e                	DEFB +0x3e
  2639  0257  14                	DEFB +0x14
  2640  0258  02                	DEFB +0x02
  2641  0259  1f                	DEFB +0x1f
  2642  025a  0c                	DEFB +0x0c
  2643  025b  3f                	DEFB +0x3f
  2644  025c  0a                	DEFB +0x0a
  2645  025d  00                	DEFB +0x00
  2646  025e  3f                	DEFB +0x3f
  2647  025f  0a                	DEFB +0x0a
  2648  0260  02                	DEFB +0x02
  2649  0261  40                	DEFB +0x40
  2650  0262  0a                	DEFB +0x0a
  2651  0263  00                	DEFB +0x00
  2652  0264  40                	DEFB +0x40
  2653  0265  14                	DEFB +0x14
  2654  0266  00                	DEFB +0x00
  2655  0267  11                	DEFB +0x11
  2656  0268  0c                	DEFB +0x0c
  2657  0269  40                	DEFB +0x40
  2658  026a  14                	DEFB +0x14
  2659  026b  02                	DEFB +0x02
  2660  026c  21                	DEFB +0x21
  2661  026d  0c                	DEFB +0x0c
  2662  026e  41                	DEFB +0x41
  2663  026f  0a                	DEFB +0x0a
  2664  0270  00                	DEFB +0x00
  2665  0271  41                	DEFB +0x41
  2666  0272  0a                	DEFB +0x0a
  2667  0273  02                	DEFB +0x02
  2668  0274  41                	DEFB +0x41
  2669  0275  14                	DEFB +0x14
  2670  0276  00                	DEFB +0x00
  2671  0277  11                	DEFB +0x11
  2672  0278  0c                	DEFB +0x0c
  2673  0279  42                	DEFB +0x42
  2674  027a  14                	DEFB +0x14
  2675  027b  00                	DEFB +0x00
  2676  027c  05                	DEFB +0x05
  2677  027d  0f                	DEFB +0x0f
  2678  027e  43                	DEFB +0x43
  2679  027f  0a                	DEFB +0x0a
  2680  0280  00                	DEFB +0x00
  2681  0281  44                	DEFB +0x44
  2682  0282  0a                	DEFB +0x0a
  2683  0283  00                	DEFB +0x00
  2684  0284  44                	DEFB +0x44
  2685  0285  14                	DEFB +0x14
  2686  0286  00                	DEFB +0x00
  2687  0287  11                	DEFB +0x11
  2688  0288  0c                	DEFB +0x0c
  2689  0289  44                	DEFB +0x44
  2690  028a  14                	DEFB +0x14
  2691  028b  02                	DEFB +0x02
  2692  028c  21                	DEFB +0x21
  2693  028d  0c                	DEFB +0x0c
  2694  028e  45                	DEFB +0x45
  2695  028f  0a                	DEFB +0x0a
  2696  0290  00                	DEFB +0x00
  2697  0291  45                	DEFB +0x45
  2698  0292  0a                	DEFB +0x0a
  2699  0293  02                	DEFB +0x02
  2700  0294  45                	DEFB +0x45
  2701  0295  14                	DEFB +0x14
  2702  0296  00                	DEFB +0x00
  2703  0297  11                	DEFB +0x11
  2704  0298  0c                	DEFB +0x0c
  2705  0299  46                	DEFB +0x46
  2706  029a  14                	DEFB +0x14
  2707  029b  00                	DEFB +0x00
  2708  029c  05                	DEFB +0x05
  2709  029d  0f                	DEFB +0x0f
  2710  029e  47                	DEFB +0x47
  2711  029f  0a                	DEFB +0x0a
  2712  02a0  00                	DEFB +0x00
  2713  02a1  47                	DEFB +0x47
  2714  02a2  0a                	DEFB +0x0a
  2715  02a3  02                	DEFB +0x02
  2716  02a4  47                	DEFB +0x47
  2717  02a5  14                	DEFB +0x14
  2718  02a6  02                	DEFB +0x02
  2719  02a7  1f                	DEFB +0x1f
  2720  02a8  0c                	DEFB +0x0c
  2721  02a9  48                	DEFB +0x48
  2722  02aa  0a                	DEFB +0x0a
  2723  02ab  00                	DEFB +0x00
  2724  02ac  48                	DEFB +0x48
  2725  02ad  0a                	DEFB +0x0a
  2726  02ae  02                	DEFB +0x02
  2727  02af  48                	DEFB +0x48
  2728  02b0  14                	DEFB +0x14
  2729  02b1  00                	DEFB +0x00
  2730  02b2  11                	DEFB +0x11
  2731  02b3  0c                	DEFB +0x0c
  2732  02b4  48                	DEFB +0x48
  2733  02b5  14                	DEFB +0x14
  2734  02b6  02                	DEFB +0x02
  2735  02b7  21                	DEFB +0x21
  2736  02b8  0c                	DEFB +0x0c
  2737  02b9  49                	DEFB +0x49
  2738  02ba  0a                	DEFB +0x0a
  2739  02bb  00                	DEFB +0x00
  2740  02bc  49                	DEFB +0x49
  2741  02bd  14                	DEFB +0x14
  2742  02be  00                	DEFB +0x00
  2743  02bf  11                	DEFB +0x11
  2744  02c0  0c                	DEFB +0x0c
  2745  02c1  4a                	DEFB +0x4a
  2746  02c2  0a                	DEFB +0x0a
  2747  02c3  02                	DEFB +0x02
  2748  02c4  4a                	DEFB +0x4a
  2749  02c5  14                	DEFB +0x14
  2750  02c6  00                	DEFB +0x00
  2751  02c7  05                	DEFB +0x05
  2752  02c8  0f                	DEFB +0x0f
  2753  02c9  4a                	DEFB +0x4a
  2754  02ca  14                	DEFB +0x14
  2755  02cb  02                	DEFB +0x02
  2756  02cc  21                	DEFB +0x21
  2757  02cd  0c                	DEFB +0x0c
  2758  02ce  4b                	DEFB +0x4b
  2759  02cf  0a                	DEFB +0x0a
  2760  02d0  00                	DEFB +0x00
  2761  02d1  4c                	DEFB +0x4c
  2762  02d2  0a                	DEFB +0x0a
  2763  02d3  00                	DEFB +0x00
  2764  02d4  4c                	DEFB +0x4c
  2765  02d5  14                	DEFB +0x14
  2766  02d6  00                	DEFB +0x00
  2767  02d7  11                	DEFB +0x11
  2768  02d8  0c                	DEFB +0x0c
  2769  02d9  4c                	DEFB +0x4c
  2770  02da  14                	DEFB +0x14
  2771  02db  02                	DEFB +0x02
  2772  02dc  21                	DEFB +0x21
  2773  02dd  0c                	DEFB +0x0c
  2774  02de  4d                	DEFB +0x4d
  2775  02df  0a                	DEFB +0x0a
  2776  02e0  00                	DEFB +0x00
  2777  02e1  4d                	DEFB +0x4d
  2778  02e2  0a                	DEFB +0x0a
  2779  02e3  02                	DEFB +0x02
  2780  02e4  4d                	DEFB +0x4d
  2781  02e5  14                	DEFB +0x14
  2782  02e6  00                	DEFB +0x00
  2783  02e7  11                	DEFB +0x11
  2784  02e8  0c                	DEFB +0x0c
  2785  02e9  4e                	DEFB +0x4e
  2786  02ea  14                	DEFB +0x14
  2787  02eb  00                	DEFB +0x00
  2788  02ec  05                	DEFB +0x05
  2789  02ed  0f                	DEFB +0x0f
  2790  02ee  4e                	DEFB +0x4e
  2791  02ef  14                	DEFB +0x14
  2792  02f0  02                	DEFB +0x02
  2793  02f1  26                	DEFB +0x26
  2794  02f2  0c                	DEFB +0x0c
  2795  02f3  4f                	DEFB +0x4f
  2796  02f4  0a                	DEFB +0x0a
  2797  02f5  00                	DEFB +0x00
  2798  02f6  4f                	DEFB +0x4f
  2799  02f7  0a                	DEFB +0x0a
  2800  02f8  02                	DEFB +0x02
  2801  02f9  50                	DEFB +0x50
  2802  02fa  0a                	DEFB +0x0a
  2803  02fb  00                	DEFB +0x00
  2804  02fc  50                	DEFB +0x50
  2805  02fd  14                	DEFB +0x14
  2806  02fe  00                	DEFB +0x00
  2807  02ff  15                	DEFB +0x15
  2808  0300  0c                	DEFB +0x0c
  2809  0301  50                	DEFB +0x50
  2810  0302  14                	DEFB +0x14
  2811  0303  02                	DEFB +0x02
  2812  0304  24                	DEFB +0x24
  2813  0305  0c                	DEFB +0x0c
  2814  0306  51                	DEFB +0x51
  2815  0307  0a                	DEFB +0x0a
  2816  0308  00                	DEFB +0x00
  2817  0309  51                	DEFB +0x51
  2818  030a  0a                	DEFB +0x0a
  2819  030b  02                	DEFB +0x02
  2820  030c  51                	DEFB +0x51
  2821  030d  14                	DEFB +0x14
  2822  030e  00                	DEFB +0x00
  2823  030f  15                	DEFB +0x15
  2824  0310  0c                	DEFB +0x0c
  2825  0311  52                	DEFB +0x52
  2826  0312  14                	DEFB +0x14
  2827  0313  00                	DEFB +0x00
  2828  0314  09                	DEFB +0x09
  2829  0315  0f                	DEFB +0x0f
  2830  0316  53                	DEFB +0x53
  2831  0317  0a                	DEFB +0x0a
  2832  0318  00                	DEFB +0x00
  2833  0319  54                	DEFB +0x54
  2834  031a  0a                	DEFB +0x0a
  2835  031b  00                	DEFB +0x00
  2836  031c  54                	DEFB +0x54
  2837  031d  14                	DEFB +0x14
  2838  031e  00                	DEFB +0x00
  2839  031f  15                	DEFB +0x15
  2840  0320  0c                	DEFB +0x0c
  2841  0321  54                	DEFB +0x54
  2842  0322  14                	DEFB +0x14
  2843  0323  02                	DEFB +0x02
  2844  0324  24                	DEFB +0x24
  2845  0325  0c                	DEFB +0x0c
  2846  0326  55                	DEFB +0x55
  2847  0327  0a                	DEFB +0x0a
  2848  0328  00                	DEFB +0x00
  2849  0329  55                	DEFB +0x55
  2850  032a  0a                	DEFB +0x0a
  2851  032b  02                	DEFB +0x02
  2852  032c  55                	DEFB +0x55
  2853  032d  14                	DEFB +0x14
  2854  032e  00                	DEFB +0x00
  2855  032f  15                	DEFB +0x15
  2856  0330  0c                	DEFB +0x0c
  2857  0331  56                	DEFB +0x56
  2858  0332  14                	DEFB +0x14
  2859  0333  00                	DEFB +0x00
  2860  0334  09                	DEFB +0x09
  2861  0335  0f                	DEFB +0x0f
  2862  0336  57                	DEFB +0x57
  2863  0337  0a                	DEFB +0x0a
  2864  0338  00                	DEFB +0x00
  2865  0339  57                	DEFB +0x57
  2866  033a  0a                	DEFB +0x0a
  2867  033b  02                	DEFB +0x02
  2868  033c  57                	DEFB +0x57
  2869  033d  14                	DEFB +0x14
  2870  033e  02                	DEFB +0x02
  2871  033f  23                	DEFB +0x23
  2872  0340  0c                	DEFB +0x0c
  2873  0341  58                	DEFB +0x58
  2874  0342  0a                	DEFB +0x0a
  2875  0343  00                	DEFB +0x00
  2876  0344  58                	DEFB +0x58
  2877  0345  0a                	DEFB +0x0a
  2878  0346  02                	DEFB +0x02
  2879  0347  58                	DEFB +0x58
  2880  0348  14                	DEFB +0x14
  2881  0349  00                	DEFB +0x00
  2882  034a  15                	DEFB +0x15
  2883  034b  0c                	DEFB +0x0c
  2884  034c  58                	DEFB +0x58
  2885  034d  14                	DEFB +0x14
  2886  034e  02                	DEFB +0x02
  2887  034f  24                	DEFB +0x24
  2888  0350  0c                	DEFB +0x0c
  2889  0351  59                	DEFB +0x59
  2890  0352  0a                	DEFB +0x0a
  2891  0353  00                	DEFB +0x00
  2892  0354  59                	DEFB +0x59
  2893  0355  14                	DEFB +0x14
  2894  0356  00                	DEFB +0x00
  2895  0357  15                	DEFB +0x15
  2896  0358  0c                	DEFB +0x0c
  2897  0359  5a                	DEFB +0x5a
  2898  035a  0a                	DEFB +0x0a
  2899  035b  02                	DEFB +0x02
  2900  035c  5a                	DEFB +0x5a
  2901  035d  14                	DEFB +0x14
  2902  035e  00                	DEFB +0x00
  2903  035f  09                	DEFB +0x09
  2904  0360  0f                	DEFB +0x0f
  2905  0361  5a                	DEFB +0x5a
  2906  0362  14                	DEFB +0x14
  2907  0363  02                	DEFB +0x02
  2908  0364  24                	DEFB +0x24
  2909  0365  0c                	DEFB +0x0c
  2910  0366  5b                	DEFB +0x5b
  2911  0367  0a                	DEFB +0x0a
  2912  0368  00                	DEFB +0x00
  2913  0369  5c                	DEFB +0x5c
  2914  036a  0a                	DEFB +0x0a
  2915  036b  00                	DEFB +0x00
  2916  036c  5c                	DEFB +0x5c
  2917  036d  14                	DEFB +0x14
  2918  036e  00                	DEFB +0x00
  2919  036f  15                	DEFB +0x15
  2920  0370  0c                	DEFB +0x0c
  2921  0371  5c                	DEFB +0x5c
  2922  0372  14                	DEFB +0x14
  2923  0373  02                	DEFB +0x02
  2924  0374  24                	DEFB +0x24
  2925  0375  0c                	DEFB +0x0c
  2926  0376  5d                	DEFB +0x5d
  2927  0377  0a                	DEFB +0x0a
  2928  0378  00                	DEFB +0x00
  2929  0379  5d                	DEFB +0x5d
  2930  037a  0a                	DEFB +0x0a
  2931  037b  02                	DEFB +0x02
  2932  037c  5d                	DEFB +0x5d
  2933  037d  14                	DEFB +0x14
  2934  037e  00                	DEFB +0x00
  2935  037f  15                	DEFB +0x15
  2936  0380  0c                	DEFB +0x0c
  2937  0381  5e                	DEFB +0x5e
  2938  0382  14                	DEFB +0x14
  2939  0383  00                	DEFB +0x00
  2940  0384  09                	DEFB +0x09
  2941  0385  0f                	DEFB +0x0f
  2942  0386  5e                	DEFB +0x5e
  2943  0387  14                	DEFB +0x14
  2944  0388  02                	DEFB +0x02
  2945  0389  21                	DEFB +0x21
  2946  038a  0c                	DEFB +0x0c
  2947  038b  5f                	DEFB +0x5f
  2948  038c  0a                	DEFB +0x0a
  2949  038d  00                	DEFB +0x00
  2950  038e  5f                	DEFB +0x5f
  2951  038f  0a                	DEFB +0x0a
  2952  0390  02                	DEFB +0x02
  2953  0391  60                	DEFB +0x60
  2954  0392  0a                	DEFB +0x0a
  2955  0393  00                	DEFB +0x00
  2956  0394  60                	DEFB +0x60
  2957  0395  14                	DEFB +0x14
  2958  0396  00                	DEFB +0x00
  2959  0397  13                	DEFB +0x13
  2960  0398  0c                	DEFB +0x0c
  2961  0399  60                	DEFB +0x60
  2962  039a  14                	DEFB +0x14
  2963  039b  02                	DEFB +0x02
  2964  039c  23                	DEFB +0x23
  2965  039d  0c                	DEFB +0x0c
  2966  039e  61                	DEFB +0x61
  2967  039f  0a                	DEFB +0x0a
  2968  03a0  00                	DEFB +0x00
  2969  03a1  61                	DEFB +0x61
  2970  03a2  0a                	DEFB +0x0a
  2971  03a3  02                	DEFB +0x02
  2972  03a4  61                	DEFB +0x61
  2973  03a5  14                	DEFB +0x14
  2974  03a6  00                	DEFB +0x00
  2975  03a7  13                	DEFB +0x13
  2976  03a8  0c                	DEFB +0x0c
  2977  03a9  62                	DEFB +0x62
  2978  03aa  14                	DEFB +0x14
  2979  03ab  00                	DEFB +0x00
  2980  03ac  07                	DEFB +0x07
  2981  03ad  0f                	DEFB +0x0f
  2982  03ae  63                	DEFB +0x63
  2983  03af  0a                	DEFB +0x0a
  2984  03b0  00                	DEFB +0x00
  2985  03b1  64                	DEFB +0x64
  2986  03b2  0a                	DEFB +0x0a
  2987  03b3  00                	DEFB +0x00
  2988  03b4  64                	DEFB +0x64
  2989  03b5  14                	DEFB +0x14
  2990  03b6  00                	DEFB +0x00
  2991  03b7  13                	DEFB +0x13
  2992  03b8  0c                	DEFB +0x0c
  2993  03b9  64                	DEFB +0x64
  2994  03ba  14                	DEFB +0x14
  2995  03bb  02                	DEFB +0x02
  2996  03bc  23                	DEFB +0x23
  2997  03bd  0c                	DEFB +0x0c
  2998  03be  65                	DEFB +0x65
  2999  03bf  0a                	DEFB +0x0a
  3000  03c0  00                	DEFB +0x00
  3001  03c1  65                	DEFB +0x65
  3002  03c2  0a                	DEFB +0x0a
  3003  03c3  02                	DEFB +0x02
  3004  03c4  65                	DEFB +0x65
  3005  03c5  14                	DEFB +0x14
  3006  03c6  00                	DEFB +0x00
  3007  03c7  13                	DEFB +0x13
  3008  03c8  0c                	DEFB +0x0c
  3009  03c9  66                	DEFB +0x66
  3010  03ca  14                	DEFB +0x14
  3011  03cb  00                	DEFB +0x00
  3012  03cc  07                	DEFB +0x07
  3013  03cd  0f                	DEFB +0x0f
  3014  03ce  67                	DEFB +0x67
  3015  03cf  0a                	DEFB +0x0a
  3016  03d0  00                	DEFB +0x00
  3017  03d1  67                	DEFB +0x67
  3018  03d2  0a                	DEFB +0x0a
  3019  03d3  02                	DEFB +0x02
  3020  03d4  67                	DEFB +0x67
  3021  03d5  14                	DEFB +0x14
  3022  03d6  02                	DEFB +0x02
  3023  03d7  21                	DEFB +0x21
  3024  03d8  0c                	DEFB +0x0c
  3025  03d9  68                	DEFB +0x68
  3026  03da  0a                	DEFB +0x0a
  3027  03db  00                	DEFB +0x00
  3028  03dc  68                	DEFB +0x68
  3029  03dd  0a                	DEFB +0x0a
  3030  03de  02                	DEFB +0x02
  3031  03df  68                	DEFB +0x68
  3032  03e0  14                	DEFB +0x14
  3033  03e1  00                	DEFB +0x00
  3034  03e2  13                	DEFB +0x13
  3035  03e3  0c                	DEFB +0x0c
  3036  03e4  68                	DEFB +0x68
  3037  03e5  14                	DEFB +0x14
  3038  03e6  02                	DEFB +0x02
  3039  03e7  23                	DEFB +0x23
  3040  03e8  0c                	DEFB +0x0c
  3041  03e9  69                	DEFB +0x69
  3042  03ea  0a                	DEFB +0x0a
  3043  03eb  00                	DEFB +0x00
  3044  03ec  69                	DEFB +0x69
  3045  03ed  14                	DEFB +0x14
  3046  03ee  00                	DEFB +0x00
  3047  03ef  13                	DEFB +0x13
  3048  03f0  0c                	DEFB +0x0c
  3049  03f1  6a                	DEFB +0x6a
  3050  03f2  0a                	DEFB +0x0a
  3051  03f3  02                	DEFB +0x02
  3052  03f4  6a                	DEFB +0x6a
  3053  03f5  14                	DEFB +0x14
  3054  03f6  00                	DEFB +0x00
  3055  03f7  07                	DEFB +0x07
  3056  03f8  0f                	DEFB +0x0f
  3057  03f9  6a                	DEFB +0x6a
  3058  03fa  14                	DEFB +0x14
  3059  03fb  02                	DEFB +0x02
  3060  03fc  23                	DEFB +0x23
  3061  03fd  0c                	DEFB +0x0c
  3062  03fe  6b                	DEFB +0x6b
  3063  03ff  0a                	DEFB +0x0a
  3064  0400  00                	DEFB +0x00
  3065  0401  6c                	DEFB +0x6c
  3066  0402  0a                	DEFB +0x0a
  3067  0403  00                	DEFB +0x00
  3068  0404  6c                	DEFB +0x6c
  3069  0405  14                	DEFB +0x14
  3070  0406  00                	DEFB +0x00
  3071  0407  13                	DEFB +0x13
  3072  0408  0c                	DEFB +0x0c
  3073  0409  6c                	DEFB +0x6c
  3074  040a  14                	DEFB +0x14
  3075  040b  02                	DEFB +0x02
  3076  040c  23                	DEFB +0x23
  3077  040d  0c                	DEFB +0x0c
  3078  040e  6d                	DEFB +0x6d
  3079  040f  0a                	DEFB +0x0a
  3080  0410  00                	DEFB +0x00
  3081  0411  6d                	DEFB +0x6d
  3082  0412  0a                	DEFB +0x0a
  3083  0413  02                	DEFB +0x02
  3084  0414  6d                	DEFB +0x6d
  3085  0415  14                	DEFB +0x14
  3086  0416  00                	DEFB +0x00
  3087  0417  13                	DEFB +0x13
  3088  0418  0c                	DEFB +0x0c
  3089  0419  6e                	DEFB +0x6e
  3090  041a  14                	DEFB +0x14
  3091  041b  00                	DEFB +0x00
  3092  041c  07                	DEFB +0x07
  3093  041d  0f                	DEFB +0x0f
  3094  041e  6e                	DEFB +0x6e
  3095  041f  14                	DEFB +0x14
  3096  0420  02                	DEFB +0x02
  3097  0421  1f                	DEFB +0x1f
  3098  0422  0c                	DEFB +0x0c
  3099  0423  6f                	DEFB +0x6f
  3100  0424  0a                	DEFB +0x0a
  3101  0425  00                	DEFB +0x00
  3102  0426  6f                	DEFB +0x6f
  3103  0427  0a                	DEFB +0x0a
  3104  0428  02                	DEFB +0x02
  3105  0429  70                	DEFB +0x70
  3106  042a  0a                	DEFB +0x0a
  3107  042b  00                	DEFB +0x00
  3108  042c  70                	DEFB +0x70
  3109  042d  14                	DEFB +0x14
  3110  042e  00                	DEFB +0x00
  3111  042f  0e                	DEFB +0x0e
  3112  0430  0c                	DEFB +0x0c
  3113  0431  70                	DEFB +0x70
  3114  0432  14                	DEFB +0x14
  3115  0433  02                	DEFB +0x02
  3116  0434  21                	DEFB +0x21
  3117  0435  0c                	DEFB +0x0c
  3118  0436  71                	DEFB +0x71
  3119  0437  0a                	DEFB +0x0a
  3120  0438  00                	DEFB +0x00
  3121  0439  71                	DEFB +0x71
  3122  043a  0a                	DEFB +0x0a
  3123  043b  02                	DEFB +0x02
  3124  043c  71                	DEFB +0x71
  3125  043d  14                	DEFB +0x14
  3126  043e  00                	DEFB +0x00
  3127  043f  0e                	DEFB +0x0e
  3128  0440  0c                	DEFB +0x0c
  3129  0441  72                	DEFB +0x72
  3130  0442  14                	DEFB +0x14
  3131  0443  00                	DEFB +0x00
  3132  0444  02                	DEFB +0x02
  3133  0445  0f                	DEFB +0x0f
  3134  0446  73                	DEFB +0x73
  3135  0447  0a                	DEFB +0x0a
  3136  0448  00                	DEFB +0x00
  3137  0449  74                	DEFB +0x74
  3138  044a  0a                	DEFB +0x0a
  3139  044b  00                	DEFB +0x00
  3140  044c  74                	DEFB +0x74
  3141  044d  14                	DEFB +0x14
  3142  044e  00                	DEFB +0x00
  3143  044f  0e                	DEFB +0x0e
  3144  0450  0c                	DEFB +0x0c
  3145  0451  74                	DEFB +0x74
  3146  0452  14                	DEFB +0x14
  3147  0453  02                	DEFB +0x02
  3148  0454  21                	DEFB +0x21
  3149  0455  0c                	DEFB +0x0c
  3150  0456  75                	DEFB +0x75
  3151  0457  0a                	DEFB +0x0a
  3152  0458  00                	DEFB +0x00
  3153  0459  75                	DEFB +0x75
  3154  045a  0a                	DEFB +0x0a
  3155  045b  02                	DEFB +0x02
  3156  045c  75                	DEFB +0x75
  3157  045d  14                	DEFB +0x14
  3158  045e  00                	DEFB +0x00
  3159  045f  0e                	DEFB +0x0e
  3160  0460  0c                	DEFB +0x0c
  3161  0461  76                	DEFB +0x76
  3162  0462  14                	DEFB +0x14
  3163  0463  00                	DEFB +0x00
  3164  0464  02                	DEFB +0x02
  3165  0465  0f                	DEFB +0x0f
  3166  0466  77                	DEFB +0x77
  3167  0467  0a                	DEFB +0x0a
  3168  0468  00                	DEFB +0x00
  3169  0469  77                	DEFB +0x77
  3170  046a  0a                	DEFB +0x0a
  3171  046b  02                	DEFB +0x02
  3172  046c  77                	DEFB +0x77
  3173  046d  14                	DEFB +0x14
  3174  046e  02                	DEFB +0x02
  3175  046f  1f                	DEFB +0x1f
  3176  0470  0c                	DEFB +0x0c
  3177  0471  78                	DEFB +0x78
  3178  0472  0a                	DEFB +0x0a
  3179  0473  00                	DEFB +0x00
  3180  0474  78                	DEFB +0x78
  3181  0475  0a                	DEFB +0x0a
  3182  0476  02                	DEFB +0x02
  3183  0477  78                	DEFB +0x78
  3184  0478  14                	DEFB +0x14
  3185  0479  00                	DEFB +0x00
  3186  047a  0e                	DEFB +0x0e
  3187  047b  0c                	DEFB +0x0c
  3188  047c  78                	DEFB +0x78
  3189  047d  14                	DEFB +0x14
  3190  047e  02                	DEFB +0x02
  3191  047f  21                	DEFB +0x21
  3192  0480  0c                	DEFB +0x0c
  3193  0481  79                	DEFB +0x79
  3194  0482  0a                	DEFB +0x0a
  3195  0483  00                	DEFB +0x00
  3196  0484  79                	DEFB +0x79
  3197  0485  14                	DEFB +0x14
  3198  0486  00                	DEFB +0x00
  3199  0487  0e                	DEFB +0x0e
  3200  0488  0c                	DEFB +0x0c
  3201  0489  7a                	DEFB +0x7a
  3202  048a  0a                	DEFB +0x0a
  3203  048b  02                	DEFB +0x02
  3204  048c  7a                	DEFB +0x7a
  3205  048d  14                	DEFB +0x14
  3206  048e  00                	DEFB +0x00
  3207  048f  02                	DEFB +0x02
  3208  0490  0f                	DEFB +0x0f
  3209  0491  7a                	DEFB +0x7a
  3210  0492  14                	DEFB +0x14
  3211  0493  02                	DEFB +0x02
  3212  0494  21                	DEFB +0x21
  3213  0495  0c                	DEFB +0x0c
  3214  0496  7b                	DEFB +0x7b
  3215  0497  0a                	DEFB +0x0a
  3216  0498  00                	DEFB +0x00
  3217  0499  7c                	DEFB +0x7c
  3218  049a  0a                	DEFB +0x0a
  3219  049b  00                	DEFB +0x00
  3220  049c  7c                	DEFB +0x7c
  3221  049d  14                	DEFB +0x14
  3222  049e  00                	DEFB +0x00
  3223  049f  0e                	DEFB +0x0e
  3224  04a0  0c                	DEFB +0x0c
  3225  04a1  7c                	DEFB +0x7c
  3226  04a2  14                	DEFB +0x14
  3227  04a3  02                	DEFB +0x02
  3228  04a4  21                	DEFB +0x21
  3229  04a5  0c                	DEFB +0x0c
  3230  04a6  7d                	DEFB +0x7d
  3231  04a7  0a                	DEFB +0x0a
  3232  04a8  00                	DEFB +0x00
  3233  04a9  7d                	DEFB +0x7d
  3234  04aa  0a                	DEFB +0x0a
  3235  04ab  02                	DEFB +0x02
  3236  04ac  7d                	DEFB +0x7d
  3237  04ad  14                	DEFB +0x14
  3238  04ae  00                	DEFB +0x00
  3239  04af  0e                	DEFB +0x0e
  3240  04b0  0c                	DEFB +0x0c
  3241  04b1  7e                	DEFB +0x7e
  3242  04b2  14                	DEFB +0x14
  3243  04b3  00                	DEFB +0x00
  3244  04b4  02                	DEFB +0x02
  3245  04b5  0f                	DEFB +0x0f
  3246  04b6  7f                	DEFB +0x7f
  3247  04b7  0a                	DEFB +0x0a
  3248  04b8  00                	DEFB +0x00
  3249  04b9  80                	DEFB +0x80
  3250  04ba  0a                	DEFB +0x0a
  3251  04bb  00                	DEFB +0x00
  3252  04bc  80                	DEFB +0x80
  3253  04bd  14                	DEFB +0x14
  3254  04be  00                	DEFB +0x00
  3255  04bf  11                	DEFB +0x11
  3256  04c0  0c                	DEFB +0x0c
  3257  04c1  80                	DEFB +0x80
  3258  04c2  14                	DEFB +0x14
  3259  04c3  01                	DEFB +0x01
  3260  04c4  21                	DEFB +0x21
  3261  04c5  0b                	DEFB +0x0b
  3262  04c6  81                	DEFB +0x81
  3263  04c7  0a                	DEFB +0x0a
  3264  04c8  00                	DEFB +0x00
  3265  04c9  81                	DEFB +0x81
  3266  04ca  14                	DEFB +0x14
  3267  04cb  00                	DEFB +0x00
  3268  04cc  11                	DEFB +0x11
  3269  04cd  0c                	DEFB +0x0c
  3270  04ce  82                	DEFB +0x82
  3271  04cf  14                	DEFB +0x14
  3272  04d0  00                	DEFB +0x00
  3273  04d1  05                	DEFB +0x05
  3274  04d2  0f                	DEFB +0x0f
  3275  04d3  83                	DEFB +0x83
  3276  04d4  0a                	DEFB +0x0a
  3277  04d5  00                	DEFB +0x00
  3278  04d6  84                	DEFB +0x84
  3279  04d7  0a                	DEFB +0x0a
  3280  04d8  00                	DEFB +0x00
  3281  04d9  84                	DEFB +0x84
  3282  04da  14                	DEFB +0x14
  3283  04db  00                	DEFB +0x00
  3284  04dc  11                	DEFB +0x11
  3285  04dd  0c                	DEFB +0x0c
  3286  04de  85                	DEFB +0x85
  3287  04df  0a                	DEFB +0x0a
  3288  04e0  00                	DEFB +0x00
  3289  04e1  85                	DEFB +0x85
  3290  04e2  14                	DEFB +0x14
  3291  04e3  00                	DEFB +0x00
  3292  04e4  11                	DEFB +0x11
  3293  04e5  0c                	DEFB +0x0c
  3294  04e6  86                	DEFB +0x86
  3295  04e7  14                	DEFB +0x14
  3296  04e8  00                	DEFB +0x00
  3297  04e9  05                	DEFB +0x05
  3298  04ea  0f                	DEFB +0x0f
  3299  04eb  87                	DEFB +0x87
  3300  04ec  0a                	DEFB +0x0a
  3301  04ed  00                	DEFB +0x00
  3302  04ee  88                	DEFB +0x88
  3303  04ef  0a                	DEFB +0x0a
  3304  04f0  00                	DEFB +0x00
  3305  04f1  88                	DEFB +0x88
  3306  04f2  14                	DEFB +0x14
  3307  04f3  00                	DEFB +0x00
  3308  04f4  11                	DEFB +0x11
  3309  04f5  0c                	DEFB +0x0c
  3310  04f6  89                	DEFB +0x89
  3311  04f7  0a                	DEFB +0x0a
  3312  04f8  00                	DEFB +0x00
  3313  04f9  89                	DEFB +0x89
  3314  04fa  14                	DEFB +0x14
  3315  04fb  00                	DEFB +0x00
  3316  04fc  11                	DEFB +0x11
  3317  04fd  0c                	DEFB +0x0c
  3318  04fe  8a                	DEFB +0x8a
  3319  04ff  14                	DEFB +0x14
  3320  0500  00                	DEFB +0x00
  3321  0501  05                	DEFB +0x05
  3322  0502  0f                	DEFB +0x0f
  3323  0503  8b                	DEFB +0x8b
  3324  0504  0a                	DEFB +0x0a
  3325  0505  00                	DEFB +0x00
  3326  0506  8c                	DEFB +0x8c
  3327  0507  0a                	DEFB +0x0a
  3328  0508  00                	DEFB +0x00
  3329  0509  8c                	DEFB +0x8c
  3330  050a  14                	DEFB +0x14
  3331  050b  00                	DEFB +0x00
  3332  050c  11                	DEFB +0x11
  3333  050d  0c                	DEFB +0x0c
  3334  050e  8d                	DEFB +0x8d
  3335  050f  0a                	DEFB +0x0a
  3336  0510  00                	DEFB +0x00
  3337  0511  8d                	DEFB +0x8d
  3338  0512  14                	DEFB +0x14
  3339  0513  00                	DEFB +0x00
  3340  0514  11                	DEFB +0x11
  3341  0515  0c                	DEFB +0x0c
  3342  0516  8e                	DEFB +0x8e
  3343  0517  14                	DEFB +0x14
  3344  0518  00                	DEFB +0x00
  3345  0519  05                	DEFB +0x05
  3346  051a  0f                	DEFB +0x0f
  3347  051b  8f                	DEFB +0x8f
  3348  051c  0a                	DEFB +0x0a
  3349  051d  00                	DEFB +0x00
  3350  051e  8f                	DEFB +0x8f
  3351  051f  0a                	DEFB +0x0a
  3352  0520  01                	DEFB +0x01
  3353  0521  90                	DEFB +0x90
  3354  0522  0a                	DEFB +0x0a
  3355  0523  00                	DEFB +0x00
  3356  0524  90                	DEFB +0x90
  3357  0525  14                	DEFB +0x14
  3358  0526  00                	DEFB +0x00
  3359  0527  15                	DEFB +0x15
  3360  0528  0c                	DEFB +0x0c
  3361  0529  90                	DEFB +0x90
  3362  052a  14                	DEFB +0x14
  3363  052b  01                	DEFB +0x01
  3364  052c  24                	DEFB +0x24
  3365  052d  0b                	DEFB +0x0b
  3366  052e  91                	DEFB +0x91
  3367  052f  0a                	DEFB +0x0a
  3368  0530  00                	DEFB +0x00
  3369  0531  91                	DEFB +0x91
  3370  0532  14                	DEFB +0x14
  3371  0533  00                	DEFB +0x00
  3372  0534  15                	DEFB +0x15
  3373  0535  0c                	DEFB +0x0c
  3374  0536  92                	DEFB +0x92
  3375  0537  14                	DEFB +0x14
  3376  0538  00                	DEFB +0x00
  3377  0539  09                	DEFB +0x09
  3378  053a  0f                	DEFB +0x0f
  3379  053b  93                	DEFB +0x93
  3380  053c  0a                	DEFB +0x0a
  3381  053d  00                	DEFB +0x00
  3382  053e  94                	DEFB +0x94
  3383  053f  0a                	DEFB +0x0a
  3384  0540  00                	DEFB +0x00
  3385  0541  94                	DEFB +0x94
  3386  0542  14                	DEFB +0x14
  3387  0543  00                	DEFB +0x00
  3388  0544  15                	DEFB +0x15
  3389  0545  0c                	DEFB +0x0c
  3390  0546  95                	DEFB +0x95
  3391  0547  0a                	DEFB +0x0a
  3392  0548  00                	DEFB +0x00
  3393  0549  95                	DEFB +0x95
  3394  054a  14                	DEFB +0x14
  3395  054b  00                	DEFB +0x00
  3396  054c  15                	DEFB +0x15
  3397  054d  0c                	DEFB +0x0c
  3398  054e  96                	DEFB +0x96
  3399  054f  14                	DEFB +0x14
  3400  0550  00                	DEFB +0x00
  3401  0551  09                	DEFB +0x09
  3402  0552  0f                	DEFB +0x0f
  3403  0553  97                	DEFB +0x97
  3404  0554  0a                	DEFB +0x0a
  3405  0555  00                	DEFB +0x00
  3406  0556  98                	DEFB +0x98
  3407  0557  0a                	DEFB +0x0a
  3408  0558  00                	DEFB +0x00
  3409  0559  98                	DEFB +0x98
  3410  055a  14                	DEFB +0x14
  3411  055b  00                	DEFB +0x00
  3412  055c  15                	DEFB +0x15
  3413  055d  0c                	DEFB +0x0c
  3414  055e  99                	DEFB +0x99
  3415  055f  0a                	DEFB +0x0a
  3416  0560  00                	DEFB +0x00
  3417  0561  99                	DEFB +0x99
  3418  0562  14                	DEFB +0x14
  3419  0563  00                	DEFB +0x00
  3420  0564  15                	DEFB +0x15
  3421  0565  0c                	DEFB +0x0c
  3422  0566  9a                	DEFB +0x9a
  3423  0567  14                	DEFB +0x14
  3424  0568  00                	DEFB +0x00
  3425  0569  09                	DEFB +0x09
  3426  056a  0f                	DEFB +0x0f
  3427  056b  9b                	DEFB +0x9b
  3428  056c  0a                	DEFB +0x0a
  3429  056d  00                	DEFB +0x00
  3430  056e  9c                	DEFB +0x9c
  3431  056f  0a                	DEFB +0x0a
  3432  0570  00                	DEFB +0x00
  3433  0571  9c                	DEFB +0x9c
  3434  0572  14                	DEFB +0x14
  3435  0573  00                	DEFB +0x00
  3436  0574  15                	DEFB +0x15
  3437  0575  0c                	DEFB +0x0c
  3438  0576  9d                	DEFB +0x9d
  3439  0577  0a                	DEFB +0x0a
  3440  0578  00                	DEFB +0x00
  3441  0579  9d                	DEFB +0x9d
  3442  057a  14                	DEFB +0x14
  3443  057b  00                	DEFB +0x00
  3444  057c  15                	DEFB +0x15
  3445  057d  0c                	DEFB +0x0c
  3446  057e  9e                	DEFB +0x9e
  3447  057f  14                	DEFB +0x14
  3448  0580  00                	DEFB +0x00
  3449  0581  09                	DEFB +0x09
  3450  0582  0f                	DEFB +0x0f
  3451  0583  9f                	DEFB +0x9f
  3452  0584  0a                	DEFB +0x0a
  3453  0585  00                	DEFB +0x00
  3454  0586  9f                	DEFB +0x9f
  3455  0587  0a                	DEFB +0x0a
  3456  0588  01                	DEFB +0x01
  3457  0589  a0                	DEFB +0xa0
  3458  058a  0a                	DEFB +0x0a
  3459  058b  00                	DEFB +0x00
  3460  058c  a0                	DEFB +0xa0
  3461  058d  14                	DEFB +0x14
  3462  058e  00                	DEFB +0x00
  3463  058f  13                	DEFB +0x13
  3464  0590  0c                	DEFB +0x0c
  3465  0591  a0                	DEFB +0xa0
  3466  0592  14                	DEFB +0x14
  3467  0593  01                	DEFB +0x01
  3468  0594  23                	DEFB +0x23
  3469  0595  0b                	DEFB +0x0b
  3470  0596  a1                	DEFB +0xa1
  3471  0597  0a                	DEFB +0x0a
  3472  0598  00                	DEFB +0x00
  3473  0599  a1                	DEFB +0xa1
  3474  059a  14                	DEFB +0x14
  3475  059b  00                	DEFB +0x00
  3476  059c  13                	DEFB +0x13
  3477  059d  0c                	DEFB +0x0c
  3478  059e  a2                	DEFB +0xa2
  3479  059f  14                	DEFB +0x14
  3480  05a0  00                	DEFB +0x00
  3481  05a1  07                	DEFB +0x07
  3482  05a2  0f                	DEFB +0x0f
  3483  05a3  a3                	DEFB +0xa3
  3484  05a4  0a                	DEFB +0x0a
  3485  05a5  00                	DEFB +0x00
  3486  05a6  a4                	DEFB +0xa4
  3487  05a7  0a                	DEFB +0x0a
  3488  05a8  00                	DEFB +0x00
  3489  05a9  a4                	DEFB +0xa4
  3490  05aa  14                	DEFB +0x14
  3491  05ab  00                	DEFB +0x00
  3492  05ac  13                	DEFB +0x13
  3493  05ad  0c                	DEFB +0x0c
  3494  05ae  a5                	DEFB +0xa5
  3495  05af  0a                	DEFB +0x0a
  3496  05b0  00                	DEFB +0x00
  3497  05b1  a5                	DEFB +0xa5
  3498  05b2  14                	DEFB +0x14
  3499  05b3  00                	DEFB +0x00
  3500  05b4  13                	DEFB +0x13
  3501  05b5  0c                	DEFB +0x0c
  3502  05b6  a6                	DEFB +0xa6
  3503  05b7  14                	DEFB +0x14
  3504  05b8  00                	DEFB +0x00
  3505  05b9  07                	DEFB +0x07
  3506  05ba  0f                	DEFB +0x0f
  3507  05bb  a7                	DEFB +0xa7
  3508  05bc  0a                	DEFB +0x0a
  3509  05bd  00                	DEFB +0x00
  3510  05be  a8                	DEFB +0xa8
  3511  05bf  0a                	DEFB +0x0a
  3512  05c0  00                	DEFB +0x00
  3513  05c1  a8                	DEFB +0xa8
  3514  05c2  14                	DEFB +0x14
  3515  05c3  00                	DEFB +0x00
  3516  05c4  13                	DEFB +0x13
  3517  05c5  0c                	DEFB +0x0c
  3518  05c6  a9                	DEFB +0xa9
  3519  05c7  0a                	DEFB +0x0a
  3520  05c8  00                	DEFB +0x00
  3521  05c9  a9                	DEFB +0xa9
  3522  05ca  14                	DEFB +0x14
  3523  05cb  00                	DEFB +0x00
  3524  05cc  13                	DEFB +0x13
  3525  05cd  0c                	DEFB +0x0c
  3526  05ce  aa                	DEFB +0xaa
  3527  05cf  14                	DEFB +0x14
  3528  05d0  00                	DEFB +0x00
  3529  05d1  07                	DEFB +0x07
  3530  05d2  0f                	DEFB +0x0f
  3531  05d3  ab                	DEFB +0xab
  3532  05d4  0a                	DEFB +0x0a
  3533  05d5  00                	DEFB +0x00
  3534  05d6  ac                	DEFB +0xac
  3535  05d7  0a                	DEFB +0x0a
  3536  05d8  00                	DEFB +0x00
  3537  05d9  ac                	DEFB +0xac
  3538  05da  14                	DEFB +0x14
  3539  05db  00                	DEFB +0x00
  3540  05dc  13                	DEFB +0x13
  3541  05dd  0c                	DEFB +0x0c
  3542  05de  ad                	DEFB +0xad
  3543  05df  0a                	DEFB +0x0a
  3544  05e0  00                	DEFB +0x00
  3545  05e1  ad                	DEFB +0xad
  3546  05e2  14                	DEFB +0x14
  3547  05e3  00                	DEFB +0x00
  3548  05e4  13                	DEFB +0x13
  3549  05e5  0c                	DEFB +0x0c
  3550  05e6  ae                	DEFB +0xae
  3551  05e7  14                	DEFB +0x14
  3552  05e8  00                	DEFB +0x00
  3553  05e9  07                	DEFB +0x07
  3554  05ea  0f                	DEFB +0x0f
  3555  05eb  af                	DEFB +0xaf
  3556  05ec  0a                	DEFB +0x0a
  3557  05ed  00                	DEFB +0x00
  3558  05ee  af                	DEFB +0xaf
  3559  05ef  0a                	DEFB +0x0a
  3560  05f0  01                	DEFB +0x01
  3561  05f1  b0                	DEFB +0xb0
  3562  05f2  0a                	DEFB +0x0a
  3563  05f3  00                	DEFB +0x00
  3564  05f4  b0                	DEFB +0xb0
  3565  05f5  14                	DEFB +0x14
  3566  05f6  00                	DEFB +0x00
  3567  05f7  0e                	DEFB +0x0e
  3568  05f8  0c                	DEFB +0x0c
  3569  05f9  b0                	DEFB +0xb0
  3570  05fa  14                	DEFB +0x14
  3571  05fb  01                	DEFB +0x01
  3572  05fc  21                	DEFB +0x21
  3573  05fd  0b                	DEFB +0x0b
  3574  05fe  b1                	DEFB +0xb1
  3575  05ff  0a                	DEFB +0x0a
  3576  0600  00                	DEFB +0x00
  3577  0601  b1                	DEFB +0xb1
  3578  0602  14                	DEFB +0x14
  3579  0603  00                	DEFB +0x00
  3580  0604  0e                	DEFB +0x0e
  3581  0605  0c                	DEFB +0x0c
  3582  0606  b2                	DEFB +0xb2
  3583  0607  14                	DEFB +0x14
  3584  0608  00                	DEFB +0x00
  3585  0609  02                	DEFB +0x02
  3586  060a  0f                	DEFB +0x0f
  3587  060b  b3                	DEFB +0xb3
  3588  060c  0a                	DEFB +0x0a
  3589  060d  00                	DEFB +0x00
  3590  060e  b4                	DEFB +0xb4
  3591  060f  0a                	DEFB +0x0a
  3592  0610  00                	DEFB +0x00
  3593  0611  b4                	DEFB +0xb4
  3594  0612  14                	DEFB +0x14
  3595  0613  00                	DEFB +0x00
  3596  0614  0e                	DEFB +0x0e
  3597  0615  0c                	DEFB +0x0c
  3598  0616  b5                	DEFB +0xb5
  3599  0617  0a                	DEFB +0x0a
  3600  0618  00                	DEFB +0x00
  3601  0619  b5                	DEFB +0xb5
  3602  061a  14                	DEFB +0x14
  3603  061b  00                	DEFB +0x00
  3604  061c  0e                	DEFB +0x0e
  3605  061d  0c                	DEFB +0x0c
  3606  061e  b6                	DEFB +0xb6
  3607  061f  14                	DEFB +0x14
  3608  0620  00                	DEFB +0x00
  3609  0621  02                	DEFB +0x02
  3610  0622  0f                	DEFB +0x0f
  3611  0623  b7                	DEFB +0xb7
  3612  0624  0a                	DEFB +0x0a
  3613  0625  00                	DEFB +0x00
  3614  0626  b8                	DEFB +0xb8
  3615  0627  0a                	DEFB +0x0a
  3616  0628  00                	DEFB +0x00
  3617  0629  b8                	DEFB +0xb8
  3618  062a  14                	DEFB +0x14
  3619  062b  00                	DEFB +0x00
  3620  062c  0e                	DEFB +0x0e
  3621  062d  0c                	DEFB +0x0c
  3622  062e  b9                	DEFB +0xb9
  3623  062f  0a                	DEFB +0x0a
  3624  0630  00                	DEFB +0x00
  3625  0631  b9                	DEFB +0xb9
  3626  0632  14                	DEFB +0x14
  3627  0633  00                	DEFB +0x00
  3628  0634  0e                	DEFB +0x0e
  3629  0635  0c                	DEFB +0x0c
  3630  0636  ba                	DEFB +0xba
  3631  0637  14                	DEFB +0x14
  3632  0638  00                	DEFB +0x00
  3633  0639  02                	DEFB +0x02
  3634  063a  0f                	DEFB +0x0f
  3635  063b  bb                	DEFB +0xbb
  3636  063c  0a                	DEFB +0x0a
  3637  063d  00                	DEFB +0x00
  3638  063e  bc                	DEFB +0xbc
  3639  063f  0a                	DEFB +0x0a
  3640  0640  00                	DEFB +0x00
  3641  0641  bc                	DEFB +0xbc
  3642  0642  14                	DEFB +0x14
  3643  0643  00                	DEFB +0x00
  3644  0644  0e                	DEFB +0x0e
  3645  0645  0c                	DEFB +0x0c
  3646  0646  bd                	DEFB +0xbd
  3647  0647  0a                	DEFB +0x0a
  3648  0648  00                	DEFB +0x00
  3649  0649  bd                	DEFB +0xbd
  3650  064a  14                	DEFB +0x14
  3651  064b  00                	DEFB +0x00
  3652  064c  0e                	DEFB +0x0e
  3653  064d  0c                	DEFB +0x0c
  3654  064e  be                	DEFB +0xbe
  3655  064f  14                	DEFB +0x14
  3656  0650  00                	DEFB +0x00
  3657  0651  02                	DEFB +0x02
  3658  0652  0f                	DEFB +0x0f
  3659  0653  bf                	DEFB +0xbf
  3660  0654  0a                	DEFB +0x0a
  3661  0655  00                	DEFB +0x00
  3662  0656  c0                	DEFB +0xc0
  3663  0657  0a                	DEFB +0x0a
  3664  0658  00                	DEFB +0x00
  3665  0659  c0                	DEFB +0xc0
  3666  065a  14                	DEFB +0x14
  3667  065b  00                	DEFB +0x00
  3668  065c  11                	DEFB +0x11
  3669  065d  0c                	DEFB +0x0c
  3670  065e  c1                	DEFB +0xc1
  3671  065f  0a                	DEFB +0x0a
  3672  0660  00                	DEFB +0x00
  3673  0661  c1                	DEFB +0xc1
  3674  0662  14                	DEFB +0x14
  3675  0663  00                	DEFB +0x00
  3676  0664  11                	DEFB +0x11
  3677  0665  0c                	DEFB +0x0c
  3678  0666  c2                	DEFB +0xc2
  3679  0667  14                	DEFB +0x14
  3680  0668  00                	DEFB +0x00
  3681  0669  05                	DEFB +0x05
  3682  066a  0f                	DEFB +0x0f
  3683  066b  c3                	DEFB +0xc3
  3684  066c  0a                	DEFB +0x0a
  3685  066d  00                	DEFB +0x00
  3686  066e  c4                	DEFB +0xc4
  3687  066f  0a                	DEFB +0x0a
  3688  0670  00                	DEFB +0x00
  3689  0671  c4                	DEFB +0xc4
  3690  0672  14                	DEFB +0x14
  3691  0673  00                	DEFB +0x00
  3692  0674  11                	DEFB +0x11
  3693  0675  0c                	DEFB +0x0c
  3694  0676  c5                	DEFB +0xc5
  3695  0677  0a                	DEFB +0x0a
  3696  0678  00                	DEFB +0x00
  3697  0679  c5                	DEFB +0xc5
  3698  067a  14                	DEFB +0x14
  3699  067b  00                	DEFB +0x00
  3700  067c  11                	DEFB +0x11
  3701  067d  0c                	DEFB +0x0c
  3702  067e  c6                	DEFB +0xc6
  3703  067f  14                	DEFB +0x14
  3704  0680  00                	DEFB +0x00
  3705  0681  05                	DEFB +0x05
  3706  0682  0f                	DEFB +0x0f
  3707  0683  c7                	DEFB +0xc7
  3708  0684  0a                	DEFB +0x0a
  3709  0685  00                	DEFB +0x00
  3710  0686  c8                	DEFB +0xc8
  3711  0687  0a                	DEFB +0x0a
  3712  0688  00                	DEFB +0x00
  3713  0689  c8                	DEFB +0xc8
  3714  068a  14                	DEFB +0x14
  3715  068b  00                	DEFB +0x00
  3716  068c  11                	DEFB +0x11
  3717  068d  0c                	DEFB +0x0c
  3718  068e  c9                	DEFB +0xc9
  3719  068f  0a                	DEFB +0x0a
  3720  0690  00                	DEFB +0x00
  3721  0691  c9                	DEFB +0xc9
  3722  0692  14                	DEFB +0x14
  3723  0693  00                	DEFB +0x00
  3724  0694  11                	DEFB +0x11
  3725  0695  0c                	DEFB +0x0c
  3726  0696  ca                	DEFB +0xca
  3727  0697  14                	DEFB +0x14
  3728  0698  00                	DEFB +0x00
  3729  0699  05                	DEFB +0x05
  3730  069a  0f                	DEFB +0x0f
  3731  069b  cb                	DEFB +0xcb
  3732  069c  0a                	DEFB +0x0a
  3733  069d  00                	DEFB +0x00
  3734  069e  cc                	DEFB +0xcc
  3735  069f  0a                	DEFB +0x0a
  3736  06a0  00                	DEFB +0x00
  3737  06a1  cc                	DEFB +0xcc
  3738  06a2  14                	DEFB +0x14
  3739  06a3  00                	DEFB +0x00
  3740  06a4  11                	DEFB +0x11
  3741  06a5  0c                	DEFB +0x0c
  3742  06a6  cd                	DEFB +0xcd
  3743  06a7  0a                	DEFB +0x0a
  3744  06a8  00                	DEFB +0x00
  3745  06a9  cd                	DEFB +0xcd
  3746  06aa  14                	DEFB +0x14
  3747  06ab  00                	DEFB +0x00
  3748  06ac  11                	DEFB +0x11
  3749  06ad  0c                	DEFB +0x0c
  3750  06ae  ce                	DEFB +0xce
  3751  06af  14                	DEFB +0x14
  3752  06b0  00                	DEFB +0x00
  3753  06b1  05                	DEFB +0x05
  3754  06b2  0f                	DEFB +0x0f
  3755  06b3  cf                	DEFB +0xcf
  3756  06b4  0a                	DEFB +0x0a
  3757  06b5  00                	DEFB +0x00
  3758  06b6  cf                	DEFB +0xcf
  3759  06b7  0a                	DEFB +0x0a
  3760  06b8  01                	DEFB +0x01
  3761  06b9  d0                	DEFB +0xd0
  3762  06ba  0a                	DEFB +0x0a
  3763  06bb  00                	DEFB +0x00
  3764  06bc  d0                	DEFB +0xd0
  3765  06bd  14                	DEFB +0x14
  3766  06be  00                	DEFB +0x00
  3767  06bf  15                	DEFB +0x15
  3768  06c0  0c                	DEFB +0x0c
  3769  06c1  d0                	DEFB +0xd0
  3770  06c2  14                	DEFB +0x14
  3771  06c3  01                	DEFB +0x01
  3772  06c4  24                	DEFB +0x24
  3773  06c5  0b                	DEFB +0x0b
  3774  06c6  d1                	DEFB +0xd1
  3775  06c7  0a                	DEFB +0x0a
  3776  06c8  00                	DEFB +0x00
  3777  06c9  d1                	DEFB +0xd1
  3778  06ca  14                	DEFB +0x14
  3779  06cb  00                	DEFB +0x00
  3780  06cc  15                	DEFB +0x15
  3781  06cd  0c                	DEFB +0x0c
  3782  06ce  d2                	DEFB +0xd2
  3783  06cf  14                	DEFB +0x14
  3784  06d0  00                	DEFB +0x00
  3785  06d1  09                	DEFB +0x09
  3786  06d2  0f                	DEFB +0x0f
  3787  06d3  d3                	DEFB +0xd3
  3788  06d4  0a                	DEFB +0x0a
  3789  06d5  00                	DEFB +0x00
  3790  06d6  d4                	DEFB +0xd4
  3791  06d7  0a                	DEFB +0x0a
  3792  06d8  00                	DEFB +0x00
  3793  06d9  d4                	DEFB +0xd4
  3794  06da  14                	DEFB +0x14
  3795  06db  00                	DEFB +0x00
  3796  06dc  15                	DEFB +0x15
  3797  06dd  0c                	DEFB +0x0c
  3798  06de  d5                	DEFB +0xd5
  3799  06df  0a                	DEFB +0x0a
  3800  06e0  00                	DEFB +0x00
  3801  06e1  d5                	DEFB +0xd5
  3802  06e2  14                	DEFB +0x14
  3803  06e3  00                	DEFB +0x00
  3804  06e4  15                	DEFB +0x15
  3805  06e5  0c                	DEFB +0x0c
  3806  06e6  d6                	DEFB +0xd6
  3807  06e7  14                	DEFB +0x14
  3808  06e8  00                	DEFB +0x00
  3809  06e9  09                	DEFB +0x09
  3810  06ea  0f                	DEFB +0x0f
  3811  06eb  d7                	DEFB +0xd7
  3812  06ec  0a                	DEFB +0x0a
  3813  06ed  00                	DEFB +0x00
  3814  06ee  d8                	DEFB +0xd8
  3815  06ef  0a                	DEFB +0x0a
  3816  06f0  00                	DEFB +0x00
  3817  06f1  d8                	DEFB +0xd8
  3818  06f2  14                	DEFB +0x14
  3819  06f3  00                	DEFB +0x00
  3820  06f4  15                	DEFB +0x15
  3821  06f5  0c                	DEFB +0x0c
  3822  06f6  d9                	DEFB +0xd9
  3823  06f7  0a                	DEFB +0x0a
  3824  06f8  00                	DEFB +0x00
  3825  06f9  d9                	DEFB +0xd9
  3826  06fa  14                	DEFB +0x14
  3827  06fb  00                	DEFB +0x00
  3828  06fc  15                	DEFB +0x15
  3829  06fd  0c                	DEFB +0x0c
  3830  06fe  da                	DEFB +0xda
  3831  06ff  14                	DEFB +0x14
  3832  0700  00                	DEFB +0x00
  3833  0701  09                	DEFB +0x09
  3834  0702  0f                	DEFB +0x0f
  3835  0703  db                	DEFB +0xdb
  3836  0704  0a                	DEFB +0x0a
  3837  0705  00                	DEFB +0x00
  3838  0706  dc                	DEFB +0xdc
  3839  0707  0a                	DEFB +0x0a
  3840  0708  00                	DEFB +0x00
  3841  0709  dc                	DEFB +0xdc
  3842  070a  14                	DEFB +0x14
  3843  070b  00                	DEFB +0x00
  3844  070c  15                	DEFB +0x15
  3845  070d  0c                	DEFB +0x0c
  3846  070e  dd                	DEFB +0xdd
  3847  070f  0a                	DEFB +0x0a
  3848  0710  00                	DEFB +0x00
  3849  0711  dd                	DEFB +0xdd
  3850  0712  14                	DEFB +0x14
  3851  0713  00                	DEFB +0x00
  3852  0714  15                	DEFB +0x15
  3853  0715  0c                	DEFB +0x0c
  3854  0716  de                	DEFB +0xde
  3855  0717  14                	DEFB +0x14
  3856  0718  00                	DEFB +0x00
  3857  0719  09                	DEFB +0x09
  3858  071a  0f                	DEFB +0x0f
  3859  071b  df                	DEFB +0xdf
  3860  071c  0a                	DEFB +0x0a
  3861  071d  00                	DEFB +0x00
  3862  071e  df                	DEFB +0xdf
  3863  071f  0a                	DEFB +0x0a
  3864  0720  01                	DEFB +0x01
  3865  0721  e0                	DEFB +0xe0
  3866  0722  0a                	DEFB +0x0a
  3867  0723  00                	DEFB +0x00
  3868  0724  e0                	DEFB +0xe0
  3869  0725  14                	DEFB +0x14
  3870  0726  00                	DEFB +0x00
  3871  0727  13                	DEFB +0x13
  3872  0728  0c                	DEFB +0x0c
  3873  0729  e0                	DEFB +0xe0
  3874  072a  14                	DEFB +0x14
  3875  072b  01                	DEFB +0x01
  3876  072c  23                	DEFB +0x23
  3877  072d  0b                	DEFB +0x0b
  3878  072e  e1                	DEFB +0xe1
  3879  072f  0a                	DEFB +0x0a
  3880  0730  00                	DEFB +0x00
  3881  0731  e1                	DEFB +0xe1
  3882  0732  14                	DEFB +0x14
  3883  0733  00                	DEFB +0x00
  3884  0734  13                	DEFB +0x13
  3885  0735  0c                	DEFB +0x0c
  3886  0736  e2                	DEFB +0xe2
  3887  0737  14                	DEFB +0x14
  3888  0738  00                	DEFB +0x00
  3889  0739  07                	DEFB +0x07
  3890  073a  0f                	DEFB +0x0f
  3891  073b  e3                	DEFB +0xe3
  3892  073c  0a                	DEFB +0x0a
  3893  073d  00                	DEFB +0x00
  3894  073e  e4                	DEFB +0xe4
  3895  073f  0a                	DEFB +0x0a
  3896  0740  00                	DEFB +0x00
  3897  0741  e4                	DEFB +0xe4
  3898  0742  14                	DEFB +0x14
  3899  0743  00                	DEFB +0x00
  3900  0744  13                	DEFB +0x13
  3901  0745  0c                	DEFB +0x0c
  3902  0746  e5                	DEFB +0xe5
  3903  0747  0a                	DEFB +0x0a
  3904  0748  00                	DEFB +0x00
  3905  0749  e5                	DEFB +0xe5
  3906  074a  14                	DEFB +0x14
  3907  074b  00                	DEFB +0x00
  3908  074c  13                	DEFB +0x13
  3909  074d  0c                	DEFB +0x0c
  3910  074e  e6                	DEFB +0xe6
  3911  074f  14                	DEFB +0x14
  3912  0750  00                	DEFB +0x00
  3913  0751  07                	DEFB +0x07
  3914  0752  0f                	DEFB +0x0f
  3915  0753  e7                	DEFB +0xe7
  3916  0754  0a                	DEFB +0x0a
  3917  0755  00                	DEFB +0x00
  3918  0756  e8                	DEFB +0xe8
  3919  0757  0a                	DEFB +0x0a
  3920  0758  00                	DEFB +0x00
  3921  0759  e8                	DEFB +0xe8
  3922  075a  14                	DEFB +0x14
  3923  075b  00                	DEFB +0x00
  3924  075c  13                	DEFB +0x13
  3925  075d  0c                	DEFB +0x0c
  3926  075e  e9                	DEFB +0xe9
  3927  075f  0a                	DEFB +0x0a
  3928  0760  00                	DEFB +0x00
  3929  0761  e9                	DEFB +0xe9
  3930  0762  14                	DEFB +0x14
  3931  0763  00                	DEFB +0x00
  3932  0764  13                	DEFB +0x13
  3933  0765  0c                	DEFB +0x0c
  3934  0766  ea                	DEFB +0xea
  3935  0767  14                	DEFB +0x14
  3936  0768  00                	DEFB +0x00
  3937  0769  07                	DEFB +0x07
  3938  076a  0f                	DEFB +0x0f
  3939  076b  eb                	DEFB +0xeb
  3940  076c  0a                	DEFB +0x0a
  3941  076d  00                	DEFB +0x00
  3942  076e  ec                	DEFB +0xec
  3943  076f  0a                	DEFB +0x0a
  3944  0770  00                	DEFB +0x00
  3945  0771  ec                	DEFB +0xec
  3946  0772  14                	DEFB +0x14
  3947  0773  00                	DEFB +0x00
  3948  0774  13                	DEFB +0x13
  3949  0775  0c                	DEFB +0x0c
  3950  0776  ed                	DEFB +0xed
  3951  0777  0a                	DEFB +0x0a
  3952  0778  00                	DEFB +0x00
  3953  0779  ed                	DEFB +0xed
  3954  077a  14                	DEFB +0x14
  3955  077b  00                	DEFB +0x00
  3956  077c  13                	DEFB +0x13
  3957  077d  0c                	DEFB +0x0c
  3958  077e  ee                	DEFB +0xee
  3959  077f  14                	DEFB +0x14
  3960  0780  00                	DEFB +0x00
  3961  0781  07                	DEFB +0x07
  3962  0782  0f                	DEFB +0x0f
  3963  0783  ef                	DEFB +0xef
  3964  0784  0a                	DEFB +0x0a
  3965  0785  00                	DEFB +0x00
  3966  0786  ef                	DEFB +0xef
  3967  0787  0a                	DEFB +0x0a
  3968  0788  01                	DEFB +0x01
  3969  0789  f0                	DEFB +0xf0
  3970  078a  0a                	DEFB +0x0a
  3971  078b  00                	DEFB +0x00
  3972  078c  f0                	DEFB +0xf0
  3973  078d  14                	DEFB +0x14
  3974  078e  00                	DEFB +0x00
  3975  078f  0e                	DEFB +0x0e
  3976  0790  0c                	DEFB +0x0c
  3977  0791  f0                	DEFB +0xf0
  3978  0792  14                	DEFB +0x14
  3979  0793  01                	DEFB +0x01
  3980  0794  21                	DEFB +0x21
  3981  0795  0b                	DEFB +0x0b
  3982  0796  f1                	DEFB +0xf1
  3983  0797  0a                	DEFB +0x0a
  3984  0798  00                	DEFB +0x00
  3985  0799  f1                	DEFB +0xf1
  3986  079a  14                	DEFB +0x14
  3987  079b  00                	DEFB +0x00
  3988  079c  0e                	DEFB +0x0e
  3989  079d  0c                	DEFB +0x0c
  3990  079e  f2                	DEFB +0xf2
  3991  079f  14                	DEFB +0x14
  3992  07a0  00                	DEFB +0x00
  3993  07a1  02                	DEFB +0x02
  3994  07a2  0f                	DEFB +0x0f
  3995  07a3  f3                	DEFB +0xf3
  3996  07a4  0a                	DEFB +0x0a
  3997  07a5  00                	DEFB +0x00
  3998  07a6  f4                	DEFB +0xf4
  3999  07a7  0a                	DEFB +0x0a
  4000  07a8  00                	DEFB +0x00
  4001  07a9  f4                	DEFB +0xf4
  4002  07aa  14                	DEFB +0x14
  4003  07ab  00                	DEFB +0x00
  4004  07ac  0e                	DEFB +0x0e
  4005  07ad  0c                	DEFB +0x0c
  4006  07ae  f5                	DEFB +0xf5
  4007  07af  0a                	DEFB +0x0a
  4008  07b0  00                	DEFB +0x00
  4009  07b1  f5                	DEFB +0xf5
  4010  07b2  14                	DEFB +0x14
  4011  07b3  00                	DEFB +0x00
  4012  07b4  0e                	DEFB +0x0e
  4013  07b5  0c                	DEFB +0x0c
  4014  07b6  f6                	DEFB +0xf6
  4015  07b7  14                	DEFB +0x14
  4016  07b8  00                	DEFB +0x00
  4017  07b9  02                	DEFB +0x02
  4018  07ba  0f                	DEFB +0x0f
  4019  07bb  f7                	DEFB +0xf7
  4020  07bc  0a                	DEFB +0x0a
  4021  07bd  00                	DEFB +0x00
  4022  07be  f8                	DEFB +0xf8
  4023  07bf  0a                	DEFB +0x0a
  4024  07c0  00                	DEFB +0x00
  4025  07c1  f8                	DEFB +0xf8
  4026  07c2  14                	DEFB +0x14
  4027  07c3  00                	DEFB +0x00
  4028  07c4  0e                	DEFB +0x0e
  4029  07c5  0c                	DEFB +0x0c
  4030  07c6  f9                	DEFB +0xf9
  4031  07c7  0a                	DEFB +0x0a
  4032  07c8  00                	DEFB +0x00
  4033  07c9  f9                	DEFB +0xf9
  4034  07ca  14                	DEFB +0x14
  4035  07cb  00                	DEFB +0x00
  4036  07cc  0e                	DEFB +0x0e
  4037  07cd  0c                	DEFB +0x0c
  4038  07ce  fa                	DEFB +0xfa
  4039  07cf  14                	DEFB +0x14
  4040  07d0  00                	DEFB +0x00
  4041  07d1  02                	DEFB +0x02
  4042  07d2  0f                	DEFB +0x0f
  4043  07d3  fb                	DEFB +0xfb
  4044  07d4  0a                	DEFB +0x0a
  4045  07d5  00                	DEFB +0x00
  4046  07d6  fc                	DEFB +0xfc
  4047  07d7  0a                	DEFB +0x0a
  4048  07d8  00                	DEFB +0x00
  4049  07d9  fc                	DEFB +0xfc
  4050  07da  14                	DEFB +0x14
  4051  07db  00                	DEFB +0x00
  4052  07dc  0e                	DEFB +0x0e
  4053  07dd  0c                	DEFB +0x0c
  4054  07de  fd                	DEFB +0xfd
  4055  07df  0a                	DEFB +0x0a
  4056  07e0  00                	DEFB +0x00
  4057  07e1  fd                	DEFB +0xfd
  4058  07e2  14                	DEFB +0x14
  4059  07e3  00                	DEFB +0x00
  4060  07e4  0e                	DEFB +0x0e
  4061  07e5  0c                	DEFB +0x0c
  4062  07e6  fe                	DEFB +0xfe
  4063  07e7  14                	DEFB +0x14
  4064  07e8  00                	DEFB +0x00
  4065  07e9  02                	DEFB +0x02
  4066  07ea  0f                	DEFB +0x0f
  4067  07eb  ff                	DEFB +0xff
  4068  07ec  0a                	DEFB +0x0a
  4069  07ed  00                	DEFB +0x00
  4070  07ee  ff                	DEFB +0xff
  4071  07ef  0a                	DEFB +0x0a
  4072  07f0  01                	DEFB +0x01
  4073  07f1  ff                	DEFB +0xff
  4074  07f2  63                	DEFB +0x63
  4075                          	SECTION IGNORE
  4076                          
