C:/Users/dj/AppData/Local/Temp/zcc00003F74275A2.asm:
     1                          MODULE main_c
     2                          LINE 0, "main.c"
main.c:
                                
     1                          ;--------------------------------------------------------
     2                          ; File Created by SDCC : free open source ANSI-C Compiler
     3                          ; Version 4.2.0 #13081 (MINGW64)
     4                          ;--------------------------------------------------------
     5                          ; Processed by Z88DK
     6                          ;--------------------------------------------------------
     7                          
     8                          	EXTERN __divschar
     9                          	EXTERN __divschar_callee
    10                          	EXTERN __divsint
    11                          	EXTERN __divsint_callee
    12                          	EXTERN __divslong
    13                          	EXTERN __divslong_callee
    14                          	EXTERN __divslonglong
    15                          	EXTERN __divslonglong_callee
    16                          	EXTERN __divsuchar
    17                          	EXTERN __divsuchar_callee
    18                          	EXTERN __divuchar
    19                          	EXTERN __divuchar_callee
    20                          	EXTERN __divuint
    21                          	EXTERN __divuint_callee
    22                          	EXTERN __divulong
    23                          	EXTERN __divulong_callee
    24                          	EXTERN __divulonglong
    25                          	EXTERN __divulonglong_callee
    26                          	EXTERN __divuschar
    27                          	EXTERN __divuschar_callee
    28                          	EXTERN __modschar
    29                          	EXTERN __modschar_callee
    30                          	EXTERN __modsint
    31                          	EXTERN __modsint_callee
    32                          	EXTERN __modslong
    33                          	EXTERN __modslong_callee
    34                          	EXTERN __modslonglong
    35                          	EXTERN __modslonglong_callee
    36                          	EXTERN __modsuchar
    37                          	EXTERN __modsuchar_callee
    38                          	EXTERN __moduchar
    39                          	EXTERN __moduchar_callee
    40                          	EXTERN __moduint
    41                          	EXTERN __moduint_callee
    42                          	EXTERN __modulong
    43                          	EXTERN __modulong_callee
    44                          	EXTERN __modulonglong
    45                          	EXTERN __modulonglong_callee
    46                          	EXTERN __moduschar
    47                          	EXTERN __moduschar_callee
    48                          	EXTERN __mulint
    49                          	EXTERN __mulint_callee
    50                          	EXTERN __mullong
    51                          	EXTERN __mullong_callee
    52                          	EXTERN __mullonglong
    53                          	EXTERN __mullonglong_callee
    54                          	EXTERN __mulschar
    55                          	EXTERN __mulschar_callee
    56                          	EXTERN __mulsuchar
    57                          	EXTERN __mulsuchar_callee
    58                          	EXTERN __muluchar
    59                          	EXTERN __muluchar_callee
    60                          	EXTERN __muluschar
    61                          	EXTERN __muluschar_callee
    62                          	EXTERN __rlslonglong
    63                          	EXTERN __rlslonglong_callee
    64                          	EXTERN __rlulonglong
    65                          	EXTERN __rlulonglong_callee
    66                          	EXTERN __rrslonglong
    67                          	EXTERN __rrslonglong_callee
    68                          	EXTERN __rrulonglong
    69                          	EXTERN __rrulonglong_callee
    70                          	EXTERN ___mulsint2slong
    71                          	EXTERN ___mulsint2slong_callee
    72                          	EXTERN ___muluint2ulong
    73                          	EXTERN ___muluint2ulong_callee
    74                          	EXTERN ___sdcc_call_hl
    75                          	EXTERN ___sdcc_call_iy
    76                          	EXTERN ___sdcc_enter_ix
    77                          	EXTERN banked_call
    78                          	EXTERN _banked_ret
    79                          	EXTERN ___fs2schar
    80                          	EXTERN ___fs2schar_callee
    81                          	EXTERN ___fs2sint
    82                          	EXTERN ___fs2sint_callee
    83                          	EXTERN ___fs2slong
    84                          	EXTERN ___fs2slong_callee
    85                          	EXTERN ___fs2slonglong
    86                          	EXTERN ___fs2slonglong_callee
    87                          	EXTERN ___fs2uchar
    88                          	EXTERN ___fs2uchar_callee
    89                          	EXTERN ___fs2uint
    90                          	EXTERN ___fs2uint_callee
    91                          	EXTERN ___fs2ulong
    92                          	EXTERN ___fs2ulong_callee
    93                          	EXTERN ___fs2ulonglong
    94                          	EXTERN ___fs2ulonglong_callee
    95                          	EXTERN ___fsadd
    96                          	EXTERN ___fsadd_callee
    97                          	EXTERN ___fsdiv
    98                          	EXTERN ___fsdiv_callee
    99                          	EXTERN ___fseq
   100                          	EXTERN ___fseq_callee
   101                          	EXTERN ___fsgt
   102                          	EXTERN ___fsgt_callee
   103                          	EXTERN ___fslt
   104                          	EXTERN ___fslt_callee
   105                          	EXTERN ___fsmul
   106                          	EXTERN ___fsmul_callee
   107                          	EXTERN ___fsneq
   108                          	EXTERN ___fsneq_callee
   109                          	EXTERN ___fssub
   110                          	EXTERN ___fssub_callee
   111                          	EXTERN ___schar2fs
   112                          	EXTERN ___schar2fs_callee
   113                          	EXTERN ___sint2fs
   114                          	EXTERN ___sint2fs_callee
   115                          	EXTERN ___slong2fs
   116                          	EXTERN ___slong2fs_callee
   117                          	EXTERN ___slonglong2fs
   118                          	EXTERN ___slonglong2fs_callee
   119                          	EXTERN ___uchar2fs
   120                          	EXTERN ___uchar2fs_callee
   121                          	EXTERN ___uint2fs
   122                          	EXTERN ___uint2fs_callee
   123                          	EXTERN ___ulong2fs
   124                          	EXTERN ___ulong2fs_callee
   125                          	EXTERN ___ulonglong2fs
   126                          	EXTERN ___ulonglong2fs_callee
   127                          	EXTERN ____sdcc_2_copy_src_mhl_dst_deix
   128                          	EXTERN ____sdcc_2_copy_src_mhl_dst_bcix
   129                          	EXTERN ____sdcc_4_copy_src_mhl_dst_deix
   130                          	EXTERN ____sdcc_4_copy_src_mhl_dst_bcix
   131                          	EXTERN ____sdcc_4_copy_src_mhl_dst_mbc
   132                          	EXTERN ____sdcc_4_ldi_nosave_bc
   133                          	EXTERN ____sdcc_4_ldi_save_bc
   134                          	EXTERN ____sdcc_4_push_hlix
   135                          	EXTERN ____sdcc_4_push_mhl
   136                          	EXTERN ____sdcc_lib_setmem_hl
   137                          	EXTERN ____sdcc_ll_add_de_bc_hl
   138                          	EXTERN ____sdcc_ll_add_de_bc_hlix
   139                          	EXTERN ____sdcc_ll_add_de_hlix_bc
   140                          	EXTERN ____sdcc_ll_add_de_hlix_bcix
   141                          	EXTERN ____sdcc_ll_add_deix_bc_hl
   142                          	EXTERN ____sdcc_ll_add_deix_hlix
   143                          	EXTERN ____sdcc_ll_add_hlix_bc_deix
   144                          	EXTERN ____sdcc_ll_add_hlix_deix_bc
   145                          	EXTERN ____sdcc_ll_add_hlix_deix_bcix
   146                          	EXTERN ____sdcc_ll_asr_hlix_a
   147                          	EXTERN ____sdcc_ll_asr_mbc_a
   148                          	EXTERN ____sdcc_ll_copy_src_de_dst_hlix
   149                          	EXTERN ____sdcc_ll_copy_src_de_dst_hlsp
   150                          	EXTERN ____sdcc_ll_copy_src_deix_dst_hl
   151                          	EXTERN ____sdcc_ll_copy_src_deix_dst_hlix
   152                          	EXTERN ____sdcc_ll_copy_src_deixm_dst_hlsp
   153                          	EXTERN ____sdcc_ll_copy_src_desp_dst_hlsp
   154                          	EXTERN ____sdcc_ll_copy_src_hl_dst_de
   155                          	EXTERN ____sdcc_ll_copy_src_hlsp_dst_de
   156                          	EXTERN ____sdcc_ll_copy_src_hlsp_dst_deixm
   157                          	EXTERN ____sdcc_ll_lsl_hlix_a
   158                          	EXTERN ____sdcc_ll_lsl_mbc_a
   159                          	EXTERN ____sdcc_ll_lsr_hlix_a
   160                          	EXTERN ____sdcc_ll_lsr_mbc_a
   161                          	EXTERN ____sdcc_ll_push_hlix
   162                          	EXTERN ____sdcc_ll_push_mhl
   163                          	EXTERN ____sdcc_ll_sub_de_bc_hl
   164                          	EXTERN ____sdcc_ll_sub_de_bc_hlix
   165                          	EXTERN ____sdcc_ll_sub_de_hlix_bc
   166                          	EXTERN ____sdcc_ll_sub_de_hlix_bcix
   167                          	EXTERN ____sdcc_ll_sub_deix_bc_hl
   168                          	EXTERN ____sdcc_ll_sub_deix_hlix
   169                          	EXTERN ____sdcc_ll_sub_hlix_bc_deix
   170                          	EXTERN ____sdcc_ll_sub_hlix_deix_bc
   171                          	EXTERN ____sdcc_ll_sub_hlix_deix_bcix
   172                          	EXTERN ____sdcc_load_debc_deix
   173                          	EXTERN ____sdcc_load_dehl_deix
   174                          	EXTERN ____sdcc_load_debc_mhl
   175                          	EXTERN ____sdcc_load_hlde_mhl
   176                          	EXTERN ____sdcc_store_dehl_bcix
   177                          	EXTERN ____sdcc_store_debc_hlix
   178                          	EXTERN ____sdcc_store_debc_mhl
   179                          	EXTERN ____sdcc_cpu_pop_ei
   180                          	EXTERN ____sdcc_cpu_pop_ei_jp
   181                          	EXTERN ____sdcc_cpu_push_di
   182                          	EXTERN ____sdcc_outi
   183                          	EXTERN ____sdcc_outi_128
   184                          	EXTERN ____sdcc_outi_256
   185                          	EXTERN ____sdcc_ldi
   186                          	EXTERN ____sdcc_ldi_128
   187                          	EXTERN ____sdcc_ldi_256
   188                          	EXTERN ____sdcc_4_copy_srcd_hlix_dst_deix
   189                          	EXTERN ____sdcc_4_and_src_mbc_mhl_dst_deix
   190                          	EXTERN ____sdcc_4_or_src_mbc_mhl_dst_deix
   191                          	EXTERN ____sdcc_4_xor_src_mbc_mhl_dst_deix
   192                          	EXTERN ____sdcc_4_or_src_dehl_dst_bcix
   193                          	EXTERN ____sdcc_4_xor_src_dehl_dst_bcix
   194                          	EXTERN ____sdcc_4_and_src_dehl_dst_bcix
   195                          	EXTERN ____sdcc_4_xor_src_mbc_mhl_dst_debc
   196                          	EXTERN ____sdcc_4_or_src_mbc_mhl_dst_debc
   197                          	EXTERN ____sdcc_4_and_src_mbc_mhl_dst_debc
   198                          	EXTERN ____sdcc_4_cpl_src_mhl_dst_debc
   199                          	EXTERN ____sdcc_4_xor_src_debc_mhl_dst_debc
   200                          	EXTERN ____sdcc_4_or_src_debc_mhl_dst_debc
   201                          	EXTERN ____sdcc_4_and_src_debc_mhl_dst_debc
   202                          	EXTERN ____sdcc_4_and_src_debc_hlix_dst_debc
   203                          	EXTERN ____sdcc_4_or_src_debc_hlix_dst_debc
   204                          	EXTERN ____sdcc_4_xor_src_debc_hlix_dst_debc
   205                          
   206                          ;--------------------------------------------------------
   207                          ; Public variables in this module
   208                          ;--------------------------------------------------------
   209                          	GLOBAL _main
   210                          	GLOBAL _hcca_DiReadBytes
   211                          	GLOBAL _hcca_DiReadInt32
   212                          	GLOBAL _hcca_DiReadUInt32
   213                          	GLOBAL _hcca_DiReadInt16
   214                          	GLOBAL _hcca_DiReadUInt16
   215                          	GLOBAL _hcca_DiWriteBytes
   216                          	GLOBAL _hcca_DiWriteString
   217                          	GLOBAL _hcca_DiWriteInt16
   218                          	GLOBAL _hcca_DiWriteUInt16
   219                          	GLOBAL _hcca_DiWriteInt32
   220                          	GLOBAL _hcca_DiWriteUInt32
   221                          	GLOBAL _hcca_DiWriteByte
   222                          	GLOBAL _hcca_DiRestoreInterrupts
   223                          	GLOBAL _hcca_DiFocusInterrupts
   224                          	GLOBAL _isrKeyboard
   225                          	GLOBAL _isrHCCARX
   226                          	GLOBAL __outBuf
   227                          	GLOBAL __inBuf
   228                          	GLOBAL __rnFS_INT_BACKUP
   229                          	GLOBAL __joyStatus
   230                          	GLOBAL __lastKeyboardIntVal
   231                          	GLOBAL __kbdBufferWritePos
   232                          	GLOBAL __kbdBufferReadPos
   233                          	GLOBAL __rxBufferWritePos
   234                          	GLOBAL __rxBufferReadPos
   235                          	GLOBAL __randomSeed
   236                          	GLOBAL __SCREEN_COLOR
   237                          	GLOBAL __LIST_DEVICE
   238                          	GLOBAL __EMULATION_MODE
   239                          	GLOBAL _cpm_cursor
   240                          	GLOBAL __kbdBuffer
   241                          	GLOBAL __rxBuffer
   242                          	GLOBAL __NOTES_FINE
   243                          	GLOBAL __NOTES_COURSE
   244                          	GLOBAL _initNABULib
   245                          	GLOBAL _initNABULIBAudio
   246                          	GLOBAL _nop
   247                          	GLOBAL _NABU_DisableInterrupts
   248                          	GLOBAL _NABU_EnableInterrupts
   249                          	GLOBAL _RightShift
   250                          	GLOBAL _vt_clearToEndOfScreen
   251                          	GLOBAL _vt_clearToEndOfLine
   252                          	GLOBAL _vt_clearScreen
   253                          	GLOBAL _vt_clearLine
   254                          	GLOBAL _vt_clearToStartOfLine
   255                          	GLOBAL _vt_clearToStartOfScreen
   256                          	GLOBAL _vt_moveCursorDown
   257                          	GLOBAL _vt_cursorHome
   258                          	GLOBAL _vt_moveCursorLeft
   259                          	GLOBAL _vt_moveCursorRight
   260                          	GLOBAL _vt_moveCursorUp
   261                          	GLOBAL _vt_deleteLine
   262                          	GLOBAL _vt_setCursor
   263                          	GLOBAL _vt_foregroundColor
   264                          	GLOBAL _vt_insertLine
   265                          	GLOBAL _vt_restoreCursorPosition
   266                          	GLOBAL _vt_backgroundColor
   267                          	GLOBAL _vt_saveCursorPosition
   268                          	GLOBAL _vt_cursorUpAndInsert
   269                          	GLOBAL _vt_wrapOff
   270                          	GLOBAL _vt_wrapOn
   271                          	GLOBAL _vt_normalVideo
   272                          	GLOBAL _vt_reverseVideo
   273                          	GLOBAL _ayWrite
   274                          	GLOBAL _ayRead
   275                          	GLOBAL _playNoteDelay
   276                          	GLOBAL _isKeyPressed
   277                          	GLOBAL _getChar
   278                          	GLOBAL _getJoyStatus
   279                          	GLOBAL _hcca_ping
   280                          	GLOBAL _hcca_isRxBufferAvailable
   281                          	GLOBAL _hcca_getSizeOfDataInBuffer
   282                          	GLOBAL _hcca_readByte
   283                          	GLOBAL _hcca_readUInt16
   284                          	GLOBAL _hcca_readInt16
   285                          	GLOBAL _hcca_readUInt32
   286                          	GLOBAL _hcca_readInt32
   287                          	GLOBAL _hcca_readBytes
   288                          	GLOBAL _hcca_writeByte
   289                          	GLOBAL _hcca_writeUInt32
   290                          	GLOBAL _hcca_writeInt32
   291                          	GLOBAL _hcca_writeUInt16
   292                          	GLOBAL _hcca_writeInt16
   293                          	GLOBAL _hcca_writeString
   294                          	GLOBAL _hcca_writeBytes
   295                          	GLOBAL _rn_fileOpen
   296                          	GLOBAL _rn_fileHandleClose
   297                          	GLOBAL _rn_fileSize
   298                          	GLOBAL _rn_fileHandleSize
   299                          	GLOBAL _rn_fileHandleRead
   300                          	GLOBAL _rn_fileHandleAppend
   301                          	GLOBAL _rn_fileHandleInsert
   302                          	GLOBAL _rn_fileHandleDeleteRange
   303                          	GLOBAL _rn_fileHandleEmptyFile
   304                          	GLOBAL _rn_fileHandleReplace
   305                          	GLOBAL _rn_fileDelete
   306                          	GLOBAL _rn_fileHandleCopy
   307                          	GLOBAL _rn_fileHandleMove
   308                          	GLOBAL _rn_fileList
   309                          	GLOBAL _rn_fileListItem
   310                          	GLOBAL _rn_fileDetails
   311                          	GLOBAL _rn_fileHandleDetails
   312                          	GLOBAL _rn_fileHandleReadSeq
   313                          	GLOBAL _rn_fileHandleSeek
   314                          	GLOBAL _rn_TCPOpen
   315                          	GLOBAL _rn_TCPHandleClose
   316                          	GLOBAL _rn_TCPHandleSize
   317                          	GLOBAL _rn_TCPHandleRead
   318                          	GLOBAL _rn_TCPHandleWrite
   319                          	GLOBAL _rn_TCPServerClientCnt
   320                          	GLOBAL _rn_TCPServerAvailable
   321                          	GLOBAL _rn_TCPServerRead
   322                          	GLOBAL _rn_TCPServerWrite
   323                          	GLOBAL _rn_Printer
   324                          	GLOBAL _rn_PunchOut
   325                          ;--------------------------------------------------------
   326                          ; Externals used
   327                          ;--------------------------------------------------------
   328                          	GLOBAL _readLine
   329                          	GLOBAL _fputc_cons_ansi
   330                          	GLOBAL _fputc_cons_generic
   331                          	GLOBAL _fputc_cons_native
   332                          	GLOBAL _set_fputc_cons
   333                          	GLOBAL _perror
   334                          	GLOBAL _printk
   335                          	GLOBAL _getk_inkey
   336                          	GLOBAL _getk
   337                          	GLOBAL _remove
   338                          	GLOBAL _rename
   339                          	GLOBAL _fdgetpos
   340                          	GLOBAL _fdtell
   341                          	GLOBAL _fabandon
   342                          	GLOBAL _puts_cons
   343                          	GLOBAL _fgets_cons
   344                          	GLOBAL _fputc_cons
   345                          	GLOBAL _fgetc_cons_inkey
   346                          	GLOBAL _fgetc_cons
   347                          	GLOBAL _fchkstd
   348                          	GLOBAL _getarg
   349                          	GLOBAL _vsscanf
   350                          	GLOBAL _vfscanf
   351                          	GLOBAL _sscanf
   352                          	GLOBAL _fscanf
   353                          	GLOBAL _scanf
   354                          	GLOBAL _printn
   355                          	GLOBAL _vsnprintf
   356                          	GLOBAL _vfprintf
   357                          	GLOBAL _snprintf
   358                          	GLOBAL _sprintf
   359                          	GLOBAL _fprintf
   360                          	GLOBAL _printf
   361                          	GLOBAL _gets
   362                          	GLOBAL _fwrite
   363                          	GLOBAL _fread
   364                          	GLOBAL _fseek
   365                          	GLOBAL _fgetpos
   366                          	GLOBAL _ftell
   367                          	GLOBAL _puts
   368                          	GLOBAL _ferror
   369                          	GLOBAL _feof
   370                          	GLOBAL _ungetc
   371                          	GLOBAL _fgetc
   372                          	GLOBAL _fputc_callee
   373                          	GLOBAL _fputs_callee
   374                          	GLOBAL _fputc
   375                          	GLOBAL _fputs
   376                          	GLOBAL _fgets
   377                          	GLOBAL _closeall
   378                          	GLOBAL _fflush
   379                          	GLOBAL _fclose
   380                          	GLOBAL _funopen
   381                          	GLOBAL _fmemopen
   382                          	GLOBAL __freopen1
   383                          	GLOBAL _fdopen
   384                          	GLOBAL _freopen
   385                          	GLOBAL _fopen
   386                          	GLOBAL _fileno
   387                          	GLOBAL _fopen_zsock
   388                          	GLOBAL _rnd_erase
   389                          	GLOBAL _rnd_saveblock
   390                          	GLOBAL _rnd_loadblock
   391                          	GLOBAL _rmdir
   392                          	GLOBAL _getwd
   393                          	GLOBAL _chdir
   394                          	GLOBAL _getcwd
   395                          	GLOBAL _writebyte
   396                          	GLOBAL _readbyte
   397                          	GLOBAL _lseek
   398                          	GLOBAL _write
   399                          	GLOBAL _read
   400                          	GLOBAL _close
   401                          	GLOBAL _creat
   402                          	GLOBAL _open
   403                          	GLOBAL _gios_esc
   404                          	GLOBAL _gios_text
   405                          	GLOBAL _gios_1px_callee
   406                          	GLOBAL _gios_1px
   407                          	GLOBAL _gios_2px_callee
   408                          	GLOBAL _gios_2px
   409                          	GLOBAL _gios_1pm_callee
   410                          	GLOBAL _gios_1pm
   411                          	GLOBAL _gios
   412                          	GLOBAL _a_serialport
   413                          	GLOBAL _a_driveb
   414                          	GLOBAL _a_memsize
   415                          	GLOBAL _a_biosver
   416                          	GLOBAL _a_machinever
   417                          	GLOBAL _a_machine
   418                          	GLOBAL _a_cury
   419                          	GLOBAL _a_curx
   420                          	GLOBAL _a_ink
   421                          	GLOBAL _a_paper
   422                          	GLOBAL _a_border
   423                          	GLOBAL _a_keyspeed
   424                          	GLOBAL _a_statusline
   425                          	GLOBAL _get_dir_name
   426                          	GLOBAL _dir_get_entry_size
   427                          	GLOBAL _dir_get_entry_name
   428                          	GLOBAL _dir_get_entry_type
   429                          	GLOBAL _dir_move_next
   430                          	GLOBAL _dir_move_first
   431                          	GLOBAL _get_current_volume
   432                          	GLOBAL _change_volume
   433                          	GLOBAL __putoffset
   434                          	GLOBAL _swapuid
   435                          	GLOBAL _putoffset
   436                          	GLOBAL _parsefcb
   437                          	GLOBAL _setfcb
   438                          	GLOBAL _cpm_cache_flush
   439                          	GLOBAL _cpm_cache_get
   440                          	GLOBAL _getfcb
   441                          	GLOBAL _biosh
   442                          	GLOBAL _bios
   443                          	GLOBAL _bdosh_callee
   444                          	GLOBAL _bdosh
   445                          	GLOBAL _bdos_callee
   446                          	GLOBAL _bdos
   447                          	GLOBAL _get_dpb
   448                          	GLOBAL _unbcd
   449                          	GLOBAL _wcmatch
   450                          	GLOBAL _extract_bits_callee
   451                          	GLOBAL _extract_bits
   452                          	GLOBAL _msleep
   453                          	GLOBAL _sleep
   454                          	GLOBAL _t_delay
   455                          	GLOBAL _wpeek
   456                          	GLOBAL _bpeek
   457                          	GLOBAL _wpoke_callee
   458                          	GLOBAL _wpoke
   459                          	GLOBAL _bpoke_callee
   460                          	GLOBAL _bpoke
   461                          	GLOBAL _swapendian
   462                          	GLOBAL _outp_callee
   463                          	GLOBAL _outp
   464                          	GLOBAL _inp
   465                          	GLOBAL _isqrt
   466                          	GLOBAL _labs
   467                          	GLOBAL _abs
   468                          	GLOBAL __ldivu__callee
   469                          	GLOBAL __ldivu_
   470                          	GLOBAL __ldiv__callee
   471                          	GLOBAL __ldiv_
   472                          	GLOBAL __divu__callee
   473                          	GLOBAL __divu_
   474                          	GLOBAL __div__callee
   475                          	GLOBAL __div_
   476                          	GLOBAL _qsort_sdcc_callee
   477                          	GLOBAL _qsort_sdcc
   478                          	GLOBAL _qsort_sccz80_callee
   479                          	GLOBAL _qsort_sccz80
   480                          	GLOBAL _l_qsort_callee
   481                          	GLOBAL _l_qsort
   482                          	GLOBAL _l_bsearch_callee
   483                          	GLOBAL _l_bsearch
   484                          	GLOBAL _getopt
   485                          	GLOBAL _unsetenv
   486                          	GLOBAL _setenv
   487                          	GLOBAL _getenv_r
   488                          	GLOBAL _getenv
   489                          	GLOBAL _atexit
   490                          	GLOBAL _exit
   491                          	GLOBAL _HeapInfo_callee
   492                          	GLOBAL _HeapInfo
   493                          	GLOBAL _HeapRealloc_callee
   494                          	GLOBAL _HeapRealloc
   495                          	GLOBAL _HeapAlloc_callee
   496                          	GLOBAL _HeapAlloc
   497                          	GLOBAL _HeapFree_callee
   498                          	GLOBAL _HeapFree
   499                          	GLOBAL _HeapCalloc_callee
   500                          	GLOBAL _HeapCalloc
   501                          	GLOBAL _HeapSbrk_callee
   502                          	GLOBAL _HeapSbrk
   503                          	GLOBAL _HeapCreate
   504                          	GLOBAL _mallinfo_callee
   505                          	GLOBAL _mallinfo
   506                          	GLOBAL _realloc_callee
   507                          	GLOBAL _realloc
   508                          	GLOBAL _malloc
   509                          	GLOBAL _free
   510                          	GLOBAL _calloc_callee
   511                          	GLOBAL _calloc
   512                          	GLOBAL _sbrk_callee
   513                          	GLOBAL _sbrk
   514                          	GLOBAL _mallinit
   515                          	GLOBAL _srand
   516                          	GLOBAL _rand
   517                          	GLOBAL _ulltoa_callee
   518                          	GLOBAL _ulltoa
   519                          	GLOBAL _strtoull_callee
   520                          	GLOBAL _strtoull
   521                          	GLOBAL _strtoll_callee
   522                          	GLOBAL _strtoll
   523                          	GLOBAL _lltoa_callee
   524                          	GLOBAL _lltoa
   525                          	GLOBAL _atoll_callee
   526                          	GLOBAL _atoll
   527                          	GLOBAL _utoa_callee
   528                          	GLOBAL _utoa
   529                          	GLOBAL _ultoa_callee
   530                          	GLOBAL _ultoa
   531                          	GLOBAL _strtoul_callee
   532                          	GLOBAL _strtoul
   533                          	GLOBAL _strtol_callee
   534                          	GLOBAL _strtol
   535                          	GLOBAL _ltoa_callee
   536                          	GLOBAL _ltoa
   537                          	GLOBAL _itoa_callee
   538                          	GLOBAL _itoa
   539                          	GLOBAL _atol
   540                          	GLOBAL _atoi
   541                          	GLOBAL __sgoioblk_end
   542                          	GLOBAL __sgoioblk
   543                          	GLOBAL __FOPEN_MAX
   544                          	GLOBAL __RND_BLOCKSIZE
   545                          	GLOBAL _gios_ptsout
   546                          	GLOBAL _gios_intout
   547                          	GLOBAL _gios_ptsin
   548                          	GLOBAL _gios_intin
   549                          	GLOBAL _gios_ctl
   550                          	GLOBAL _gios_pb
   551                          	GLOBAL _fc_dirbuf
   552                          	GLOBAL _fc_dirpos
   553                          	GLOBAL _fc_dir
   554                          	GLOBAL __fcb
   555                          	GLOBAL __CLIB_OPEN_MAX
   556                          	GLOBAL _optreset
   557                          	GLOBAL _optopt
   558                          	GLOBAL _optind
   559                          	GLOBAL _opterr
   560                          	GLOBAL _optarg
   561                          ;--------------------------------------------------------
   562                          ; special function registers
   563                          ;--------------------------------------------------------
   564                          defc _IO_VDPDATA	=	0x00a0
   565                          defc _IO_VDPLATCH	=	0x00a1
   566                          defc _IO_AYDATA	=	0x0040
   567                          defc _IO_AYLATCH	=	0x0041
   568                          defc _IO_HCCA	=	0x0080
   569                          defc _IO_KEYBOARD	=	0x0090
   570                          defc _IO_KEYBOARD_STATUS	=	0x0091
   571                          defc _IO_CONTROL	=	0x0000
   572                          ;--------------------------------------------------------
   573                          ; ram data
   574                          ;--------------------------------------------------------
   575                          	SECTION bss_compiler
   576                          __rxBuffer:
   577  0000  0000000000000000  	DEFS 256
              0000000000000000  
              0000000000000000  
              0000000000000000  
              0000000000000000  
              0000000000000000  
              0000000000000000  
              0000000000000000  
              0000000000000000  
              0000000000000000  
              0000000000000000  
              0000000000000000  
              0000000000000000  
              0000000000000000  
              0000000000000000  
              0000000000000000  
              0000000000000000  
              0000000000000000  
              0000000000000000  
              0000000000000000  
              0000000000000000  
              0000000000000000  
              0000000000000000  
              0000000000000000  
              0000000000000000  
              0000000000000000  
              0000000000000000  
              0000000000000000  
              0000000000000000  
              0000000000000000  
              0000000000000000  
              0000000000000000  
   578                          __kbdBuffer:
   579  0100  0000000000000000  	DEFS 256
              0000000000000000  
              0000000000000000  
              0000000000000000  
              0000000000000000  
              0000000000000000  
              0000000000000000  
              0000000000000000  
              0000000000000000  
              0000000000000000  
              0000000000000000  
              0000000000000000  
              0000000000000000  
              0000000000000000  
              0000000000000000  
              0000000000000000  
              0000000000000000  
              0000000000000000  
              0000000000000000  
              0000000000000000  
              0000000000000000  
              0000000000000000  
              0000000000000000  
              0000000000000000  
              0000000000000000  
              0000000000000000  
              0000000000000000  
              0000000000000000  
              0000000000000000  
              0000000000000000  
              0000000000000000  
              0000000000000000  
   580                          defc _cpm_cursor	=	0xff10
   581                          defc __EMULATION_MODE	=	0xff12
   582                          defc __LIST_DEVICE	=	0xff13
   583                          defc __SCREEN_COLOR	=	0xff25
   584                          ;--------------------------------------------------------
   585                          ; ram data
   586                          ;--------------------------------------------------------
   587                          
   588                          IF 0
   589                          
   590                          ; .area _INITIALIZED removed by z88dk
   591                          
   592                          __randomSeed:
   593                          	DEFS 1
   594                          __rxBufferReadPos:
   595                          	DEFS 1
   596                          __rxBufferWritePos:
   597                          	DEFS 1
   598                          __kbdBufferReadPos:
   599                          	DEFS 1
   600                          __kbdBufferWritePos:
   601                          	DEFS 1
   602                          __lastKeyboardIntVal:
   603                          	DEFS 1
   604                          __joyStatus:
   605                          	DEFS 4
   606                          __rnFS_INT_BACKUP:
   607                          	DEFS 1
   608                          __inBuf:
   609                          	DEFS 32
   610                          __outBuf:
   611                          	DEFS 1
   612                          
   613                          ENDIF
   614                          
   615                          ;--------------------------------------------------------
   616                          ; absolute external ram data
   617                          ;--------------------------------------------------------
   618                          	SECTION IGNORE
   619                          ;--------------------------------------------------------
   620                          ; global & static initialisations
   621                          ;--------------------------------------------------------
   622                          	SECTION code_crt_init
   623                          ;--------------------------------------------------------
   624                          ; Home
   625                          ;--------------------------------------------------------
   626                          	SECTION IGNORE
   627                          ;--------------------------------------------------------
   628                          ; code
   629                          ;--------------------------------------------------------
   630                          	SECTION code_compiler
   631                          ;	---------------------------------
   632                          ; Function initNABULib
   633                          ; ---------------------------------
   634                          _initNABULib:
   635  0000  3e00              	ld	a,0x03
   636  0002  d300              	out	(_IO_CONTROL), a
   637  0004  cd0000            	call	_NABU_DisableInterrupts
   638  0007  f5                	push	af
   639  0008  ed5f              	ld	a, r
   640  000a  320000            	ld	(__randomSeed), a
   641  000d  f1                	pop	af
   642  000e  3a0000            	ld	a, (__randomSeed+0)
   643  0011  6f                	ld	l, a
   644  0012  2600              	ld	h,0x00
   645  0014  cd0000            	call	_srand
   646  0017  ed5e              	IM	2
   647  0019  3e00              	ld	a, 0xff
   648  001b  ed47              	ld	i, a
   649  001d  210000            	ld	hl, _isrHCCARX
   650  0020  220000            	ld	(0xff00), hl
   651  0023  210000            	ld	hl, _isrKeyboard
   652  0026  220000            	ld	(0xff00 + 4), hl
   653  0029  3e00              	ld	a,0x0e
   654  002b  f5                	push	af
   655  002c  33                	inc	sp
   656  002d  cd0000            	call	_ayRead
   657  0030  33                	inc	sp
   658  0031  7d                	ld	a, l
   659  0032  cbff              	set	7, a
   660  0034  cbef              	set	5, a
   661  0036  57                	ld	d,a
   662  0037  1e00              	ld	e,0x0e
   663  0039  d5                	push	de
   664  003a  cd0000            	call	_ayWrite
   665  003d  f1                	pop	af
   666  003e  cd0000            	call	_NABU_EnableInterrupts
   667  0041  c30000            	jp	_initNABULIBAudio
   668                          	SECTION rodata_compiler
   669                          __NOTES_COURSE:
   670  0000  00                	DEFB +0x0d
   671  0001  00                	DEFB +0x0c
   672  0002  00                	DEFB +0x0b
   673  0003  00                	DEFB +0x0b
   674  0004  00                	DEFB +0x0a
   675  0005  00                	DEFB +0x0a
   676  0006  00                	DEFB +0x09
   677  0007  00                	DEFB +0x08
   678  0008  00                	DEFB +0x08
   679  0009  00                	DEFB +0x07
   680  000a  00                	DEFB +0x07
   681  000b  00                	DEFB +0x07
   682  000c  00                	DEFB +0x06
   683  000d  00                	DEFB +0x06
   684  000e  00                	DEFB +0x05
   685  000f  00                	DEFB +0x05
   686  0010  00                	DEFB +0x05
   687  0011  00                	DEFB +0x05
   688  0012  00                	DEFB +0x04
   689  0013  00                	DEFB +0x04
   690  0014  00                	DEFB +0x04
   691  0015  00                	DEFB +0x03
   692  0016  00                	DEFB +0x03
   693  0017  00                	DEFB +0x03
   694  0018  00                	DEFB +0x03
   695  0019  00                	DEFB +0x03
   696  001a  00                	DEFB +0x02
   697  001b  00                	DEFB +0x02
   698  001c  00                	DEFB +0x02
   699  001d  00                	DEFB +0x02
   700  001e  00                	DEFB +0x02
   701  001f  00                	DEFB +0x02
   702  0020  00                	DEFB +0x02
   703  0021  00                	DEFB +0x01
   704  0022  00                	DEFB +0x01
   705  0023  00                	DEFB +0x01
   706  0024  00                	DEFB +0x01
   707  0025  00                	DEFB +0x01
   708  0026  00                	DEFB +0x01
   709  0027  00                	DEFB +0x01
   710  0028  00                	DEFB +0x01
   711  0029  00                	DEFB +0x01
   712  002a  00                	DEFB +0x01
   713  002b  00                	DEFB +0x01
   714  002c  01                	DEFB +0x01
   715  002d  00                	DEFB +0x00
   716  002e  00                	DEFB +0x00
   717  002f  00                	DEFB +0x00
   718  0030  00                	DEFB +0x00
   719  0031  00                	DEFB +0x00
   720  0032  00                	DEFB +0x00
   721  0033  00                	DEFB +0x00
   722  0034  00                	DEFB +0x00
   723  0035  00                	DEFB +0x00
   724  0036  00                	DEFB +0x00
   725  0037  00                	DEFB +0x00
   726  0038  00                	DEFB +0x00
   727  0039  00                	DEFB +0x00
   728  003a  00                	DEFB +0x00
   729  003b  00                	DEFB +0x00
   730  003c  00                	DEFB +0x00
   731  003d  00                	DEFB +0x00
   732  003e  00                	DEFB +0x00
   733  003f  00                	DEFB +0x00
   734  0040  00                	DEFB +0x00
   735  0041  00                	DEFB +0x00
   736  0042  00                	DEFB +0x00
   737  0043  00                	DEFB +0x00
   738  0044  00                	DEFB +0x00
   739  0045  00                	DEFB +0x00
   740  0046  00                	DEFB +0x00
   741  0047  00                	DEFB +0x00
   742                          __NOTES_FINE:
   743  0048  00                	DEFB +0x5c
   744  0049  00                	DEFB +0x9c
   745  004a  00                	DEFB +0xe7
   746  004b  00                	DEFB +0x3c
   747  004c  00                	DEFB +0x9b
   748  004d  00                	DEFB +0x02
   749  004e  00                	DEFB +0x72
   750  004f  00                	DEFB +0xeb
   751  0050  00                	DEFB +0x6a
   752  0051  00                	DEFB +0xf2
   753  0052  00                	DEFB +0x7f
   754  0053  00                	DEFB +0x14
   755  0054  00                	DEFB +0xae
   756  0055  00                	DEFB +0x4e
   757  0056  00                	DEFB +0xf3
   758  0057  00                	DEFB +0x9e
   759  0058  00                	DEFB +0x4d
   760  0059  00                	DEFB +0x01
   761  005a  00                	DEFB +0xb9
   762  005b  00                	DEFB +0x75
   763  005c  00                	DEFB +0x35
   764  005d  00                	DEFB +0xf9
   765  005e  00                	DEFB +0xbf
   766  005f  00                	DEFB +0x8a
   767  0060  00                	DEFB +0x57
   768  0061  00                	DEFB +0x27
   769  0062  00                	DEFB +0xf9
   770  0063  00                	DEFB +0xcf
   771  0064  00                	DEFB +0xa6
   772  0065  00                	DEFB +0x80
   773  0066  00                	DEFB +0x5c
   774  0067  00                	DEFB +0x3a
   775  0068  00                	DEFB +0x1a
   776  0069  00                	DEFB +0xfc
   777  006a  00                	DEFB +0xdf
   778  006b  00                	DEFB +0xc5
   779  006c  00                	DEFB +0xab
   780  006d  00                	DEFB +0x93
   781  006e  00                	DEFB +0x7c
   782  006f  00                	DEFB +0x67
   783  0070  00                	DEFB +0x53
   784  0071  00                	DEFB +0x40
   785  0072  00                	DEFB +0x2e
   786  0073  00                	DEFB +0x1d
   787  0074  00                	DEFB +0x0d
   788  0075  00                	DEFB +0xfe
   789  0076  00                	DEFB +0xef
   790  0077  00                	DEFB +0xe2
   791  0078  00                	DEFB +0xd5
   792  0079  00                	DEFB +0xc9
   793  007a  00                	DEFB +0xbe
   794  007b  00                	DEFB +0xb3
   795  007c  00                	DEFB +0xa9
   796  007d  00                	DEFB +0xa0
   797  007e  00                	DEFB +0x97
   798  007f  00                	DEFB +0x8e
   799  0080  00                	DEFB +0x86
   800  0081  00                	DEFB +0x7f
   801  0082  00                	DEFB +0x77
   802  0083  00                	DEFB +0x71
   803  0084  00                	DEFB +0x6a
   804  0085  00                	DEFB +0x64
   805  0086  00                	DEFB +0x5f
   806  0087  00                	DEFB +0x59
   807  0088  00                	DEFB +0x54
   808  0089  00                	DEFB +0x50
   809  008a  00                	DEFB +0x4b
   810  008b  00                	DEFB +0x47
   811  008c  00                	DEFB +0x43
   812  008d  00                	DEFB +0x3f
   813  008e  00                	DEFB +0x3b
   814  008f  00                	DEFB +0x38
   815                          	SECTION code_compiler
   816                          ;	---------------------------------
   817                          ; Function initNABULIBAudio
   818                          ; ---------------------------------
   819                          _initNABULIBAudio:
   820  0044  00                	xor	a, a
   821  0045  00                	ld	d,a
   822  0046  0006              	ld	e,0x06
   823  0048  5c                	push	de
   824  0049  9caa03            	call	_ayWrite
   825  004c  9b                	pop	af
   826  004d  020810            	ld	de,0x1008
   827  0050  6a                	push	de
   828  0051  f2aa03            	call	_ayWrite
   829  0054  ae                	pop	af
   830  0055  4e0910            	ld	de,0x1009
   831  0058  4d                	push	de
   832  0059  01aa03            	call	_ayWrite
   833  005c  35                	pop	af
   834  005d  f90a10            	ld	de,0x100a
   835  0060  57                	push	de
   836  0061  27aa03            	call	_ayWrite
   837  0064  a6                	pop	af
   838  0065  800778            	ld	de,0x7807
   839  0068  1a                	push	de
   840  0069  fcaa03            	call	_ayWrite
   841  006c  ab                	pop	af
   842  006d  93                	ret
   843                          	SECTION code_compiler
   844                          ;	---------------------------------
   845                          ; Function nop
   846                          ; ---------------------------------
   847                          _nop:
   848  006e  7c                	NOP
   849  006f  67                	ret
   850                          	SECTION code_compiler
   851                          ;	---------------------------------
   852                          ; Function NABU_DisableInterrupts
   853                          ; ---------------------------------
   854                          _NABU_DisableInterrupts:
   855  0070  53                	di
   856  0071  40                	ret
   857                          	SECTION code_compiler
   858                          ;	---------------------------------
   859                          ; Function NABU_EnableInterrupts
   860                          ; ---------------------------------
   861                          _NABU_EnableInterrupts:
   862  0072  2e                	ei
   863  0073  1d                	ret
   864                          	SECTION code_compiler
   865                          ;	---------------------------------
   866                          ; Function RightShift
   867                          ; ---------------------------------
   868                          _RightShift:
   869  0074  0dfe              	push	ix
   870  0076  efe20000          	ld	ix,0
   871  007a  beb3              	add	ix,sp
   872  007c  a9                	push	af
   873  007d  a0                	push	af
   874  007e  978e06            	ld	c,(ix+6)
   875  0081  7f7707            	ld	b,(ix+7)
   876  0084  6a                	dec	bc
   877  0085  645f04            	ld	l,(ix+4)
   878  0088  545005            	ld	h,(ix+5)
   879  008b  47                	add	hl, bc
   880  008c  43                	ex	de, hl
   881  008d  3f3b08            	ld	c,(ix+8)
   882  0090  0600              	ld	b,0x00
   883  0092  7b                	ld	a, e
   884  0093  91                	sub	a, c
   885  0094  dd7700            	ld	(ix-2),a
   886  0097  7a                	ld	a, d
   887  0098  98                	sbc	a, b
   888  0099  dd7700            	ld	(ix-1),a
   889  009c  dd7e00            	ld	a,(ix+4)
   890  009f  c600              	add	a,0xff
   891  00a1  dd7700            	ld	(ix-4),a
   892  00a4  dd7e00            	ld	a,(ix+5)
   893  00a7  ce00              	adc	a,0xff
   894  00a9  dd7700            	ld	(ix-3),a
   895                          l_RightShift_00101:
   896  00ac  dd7e00            	ld	a,(ix-2)
   897  00af  dd9600            	sub	a,(ix-4)
   898  00b2  2000              	jr	NZ,l_RightShift_00131
   899  00b4  dd7e00            	ld	a,(ix-1)
   900  00b7  dd9600            	sub	a,(ix-3)
   901  00ba  2800              	jr	Z,l_RightShift_00103
   902                          l_RightShift_00131:
   903  00bc  dd6e00            	ld	l,(ix-2)
   904  00bf  dd6600            	ld	h,(ix-1)
   905  00c2  7e                	ld	a, (hl)
   906  00c3  12                	ld	(de), a
   907  00c4  1b                	dec	de
   908  00c5  dd6e00            	ld	l,(ix-2)
   909  00c8  dd6600            	ld	h,(ix-1)
   910  00cb  2b                	dec	hl
   911  00cc  dd7500            	ld	(ix-2),l
   912  00cf  dd7400            	ld	(ix-1),h
   913  00d2  1800              	jr	l_RightShift_00101
   914                          l_RightShift_00103:
   915  00d4  0b                	dec	bc
   916  00d5  dd6e00            	ld	l,(ix+4)
   917  00d8  dd6600            	ld	h,(ix+5)
   918  00db  09                	add	hl, bc
   919                          l_RightShift_00104:
   920  00dc  7d                	ld	a, l
   921  00dd  dd9600            	sub	a,(ix-4)
   922  00e0  2000              	jr	NZ,l_RightShift_00132
   923  00e2  7c                	ld	a, h
   924  00e3  dd9600            	sub	a,(ix-3)
   925  00e6  2800              	jr	Z,l_RightShift_00107
   926                          l_RightShift_00132:
   927  00e8  3600              	ld	(hl),0x20
   928  00ea  2b                	dec	hl
   929  00eb  1800              	jr	l_RightShift_00104
   930                          l_RightShift_00107:
   931  00ed  ddf9              	ld	sp, ix
   932  00ef  dde1              	pop	ix
   933  00f1  c9                	ret
   934                          	SECTION code_compiler
   935                          ;	---------------------------------
   936                          ; Function isrHCCARX
   937                          ; ---------------------------------
   938                          _isrHCCARX:
   939  00f2  d9                	exx
   940  00f3  f5                	push	af
   941  00f4  010000            	ld	bc, __rxBuffer+0
   942  00f7  2a0000            	ld	hl, (__rxBufferWritePos)
   943  00fa  2600              	ld	h, 0x00
   944  00fc  09                	add	hl, bc
   945  00fd  db00              	in	a, (_IO_HCCA)
   946  00ff  77                	ld	(hl), a
   947  0100  3a0000            	ld	a, (__rxBufferWritePos+0)
   948  0103  3c                	inc	a
   949  0104  320000            	ld	(__rxBufferWritePos+0), a
   950  0107  f1                	pop	af
   951  0108  d9                	exx
   952  0109  fb                	ei
   953  010a  ed4d              	reti
   954                          ;	---------------------------------
   955                          ; Function isrKeyboard
   956                          ; ---------------------------------
   957                          _isrKeyboard:
   958  010c  f5                	push	af
   959  010d  fde5              	push	iy
   960  010f  fd210000          	ld	iy, 0
   961  0113  d9                	exx
   962  0114  db00              	in	a, (_IO_KEYBOARD)
   963  0116  4f                	ld	c,a
   964  0117  d600              	sub	a,0x80
   965  0119  3800              	jr	C,l_isrKeyboard_00111
   966  011b  3e00              	ld	a,0x83
   967  011d  91                	sub	a, c
   968  011e  3800              	jr	C,l_isrKeyboard_00111
   969  0120  fd210000          	ld	iy,__lastKeyboardIntVal
   970  0124  fd7100            	ld	(iy+0),c
   971  0127  1800              	jr	l_isrKeyboard_00112
   972                          l_isrKeyboard_00111:
   973  0129  79                	ld	a, c
   974  012a  d600              	sub	a,0x90
   975  012c  3800              	jr	C,l_isrKeyboard_00107
   976  012e  3e00              	ld	a,0x95
   977  0130  91                	sub	a, c
   978  0131  3000              	jr	NC,l_isrKeyboard_00112
   979                          l_isrKeyboard_00107:
   980  0133  3a0000            	ld	a, (__lastKeyboardIntVal+0)
   981  0136  fe00              	cp	a,0x80
   982  0138  2800              	jr	Z,l_isrKeyboard_00101
   983  013a  fe00              	cp	a,0x81
   984  013c  2800              	jr	Z,l_isrKeyboard_00102
   985  013e  fe00              	cp	a,0x82
   986  0140  2800              	jr	Z,l_isrKeyboard_00103
   987  0142  d600              	sub	a,0x83
   988  0144  2800              	jr	Z,l_isrKeyboard_00104
   989  0146  1800              	jr	l_isrKeyboard_00105
   990                          l_isrKeyboard_00101:
   991  0148  fd210000          	ld	iy,__lastKeyboardIntVal
   992  014c  fd360000          	ld	(iy+0),0x00
   993  0150  210000            	ld	hl,__joyStatus
   994  0153  71                	ld	(hl), c
   995  0154  1800              	jr	l_isrKeyboard_00112
   996                          l_isrKeyboard_00102:
   997  0156  fd210000          	ld	iy,__lastKeyboardIntVal
   998  015a  fd360000          	ld	(iy+0),0x00
   999  015e  210000            	ld	hl, +(__joyStatus + 1)
  1000  0161  71                	ld	(hl), c
  1001  0162  1800              	jr	l_isrKeyboard_00112
  1002                          l_isrKeyboard_00103:
  1003  0164  fd210000          	ld	iy,__lastKeyboardIntVal
  1004  0168  fd360000          	ld	(iy+0),0x00
  1005  016c  210000            	ld	hl, +(__joyStatus + 2)
  1006  016f  71                	ld	(hl), c
  1007  0170  1800              	jr	l_isrKeyboard_00112
  1008                          l_isrKeyboard_00104:
  1009  0172  fd210000          	ld	iy,__lastKeyboardIntVal
  1010  0176  fd360000          	ld	(iy+0),0x00
  1011  017a  210000            	ld	hl, +(__joyStatus + 3)
  1012  017d  71                	ld	(hl), c
  1013  017e  1800              	jr	l_isrKeyboard_00112
  1014                          l_isrKeyboard_00105:
  1015  0180  210000            	ld	hl,__kbdBuffer+0
  1016  0183  ed5b0000          	ld	de, (__kbdBufferWritePos)
  1017  0187  1600              	ld	d,0x00
  1018  0189  19                	add	hl, de
  1019  018a  71                	ld	(hl), c
  1020  018b  3a0000            	ld	a, (__kbdBufferWritePos+0)
  1021  018e  3c                	inc	a
  1022  018f  320000            	ld	(__kbdBufferWritePos+0), a
  1023                          l_isrKeyboard_00112:
  1024  0192  d9                	exx
  1025  0193  fde1              	pop	iy
  1026  0195  f1                	pop	af
  1027  0196  fb                	ei
  1028  0197  ed4d              	reti
  1029                          ;	---------------------------------
  1030                          ; Function vt_clearToEndOfScreen
  1031                          ; ---------------------------------
  1032                          _vt_clearToEndOfScreen:
  1033  0199  210000            	ld	hl,0x001b
  1034  019c  e5                	push	hl
  1035  019d  210000            	ld	hl,___str_0
  1036  01a0  e5                	push	hl
  1037  01a1  cd0000            	call	_printf
  1038  01a4  f1                	pop	af
  1039  01a5  f1                	pop	af
  1040  01a6  c9                	ret
  1041                          	SECTION rodata_compiler
  1042                          ___str_0:
  1043  0090  25004a            	DEFM "%cJ"
  1044  0093  00                	DEFB 0x00
  1045                          	SECTION code_compiler
  1046                          ;	---------------------------------
  1047                          ; Function vt_clearToEndOfLine
  1048                          ; ---------------------------------
  1049                          _vt_clearToEndOfLine:
  1050  01a7  210000            	ld	hl,0x001b
  1051  01aa  e5                	push	hl
  1052  01ab  210000            	ld	hl,___str_1
  1053  01ae  e5                	push	hl
  1054  01af  cd0000            	call	_printf
  1055  01b2  f1                	pop	af
  1056  01b3  f1                	pop	af
  1057  01b4  c9                	ret
  1058                          	SECTION rodata_compiler
  1059                          ___str_1:
  1060  0094  2563fe            	DEFM "%cK"
  1061  0097  00                	DEFB 0x00
  1062                          	SECTION code_compiler
  1063                          ;	---------------------------------
  1064                          ; Function vt_clearScreen
  1065                          ; ---------------------------------
  1066                          _vt_clearScreen:
  1067  01b5  3a0000            	ld	a, (__EMULATION_MODE+0)
  1068  01b8  b7                	or	a, a
  1069  01b9  2000              	jr	NZ,l_vt_clearScreen_00102
  1070  01bb  210000            	ld	hl,0x001a
  1071  01be  e5                	push	hl
  1072  01bf  210000            	ld	hl, +(__sgoioblk + 10)
  1073  01c2  e5                	push	hl
  1074  01c3  cd0000            	call	_fputc_callee
  1075  01c6  1800              	jr	l_vt_clearScreen_00104
  1076                          l_vt_clearScreen_00102:
  1077  01c8  210000            	ld	hl,0x001b
  1078  01cb  e5                	push	hl
  1079  01cc  210000            	ld	hl,___str_2
  1080  01cf  e5                	push	hl
  1081  01d0  cd0000            	call	_printf
  1082  01d3  f1                	pop	af
  1083  01d4  f1                	pop	af
  1084                          l_vt_clearScreen_00104:
  1085  01d5  c9                	ret
  1086                          	SECTION rodata_compiler
  1087                          ___str_2:
  1088  0098  256345            	DEFM "%cE"
  1089  009b  00                	DEFB 0x00
  1090                          	SECTION code_compiler
  1091                          ;	---------------------------------
  1092                          ; Function vt_clearLine
  1093                          ; ---------------------------------
  1094                          _vt_clearLine:
  1095  01d6  210000            	ld	hl,0x001b
  1096  01d9  e5                	push	hl
  1097  01da  210000            	ld	hl,___str_3
  1098  01dd  e5                	push	hl
  1099  01de  cd0000            	call	_printf
  1100  01e1  f1                	pop	af
  1101  01e2  f1                	pop	af
  1102  01e3  c9                	ret
  1103                          	SECTION rodata_compiler
  1104                          ___str_3:
  1105  009c  256304            	DEFM "%cl"
  1106  009f  00                	DEFB 0x00
  1107                          	SECTION code_compiler
  1108                          ;	---------------------------------
  1109                          ; Function vt_clearToStartOfLine
  1110                          ; ---------------------------------
  1111                          _vt_clearToStartOfLine:
  1112  01e4  210000            	ld	hl,0x001b
  1113  01e7  e5                	push	hl
  1114  01e8  210000            	ld	hl,___str_4
  1115  01eb  e5                	push	hl
  1116  01ec  cd0000            	call	_printf
  1117  01ef  f1                	pop	af
  1118  01f0  f1                	pop	af
  1119  01f1  c9                	ret
  1120                          	SECTION rodata_compiler
  1121                          ___str_4:
  1122  00a0  ff636f            	DEFM "%co"
  1123  00a3  00                	DEFB 0x00
  1124                          	SECTION code_compiler
  1125                          ;	---------------------------------
  1126                          ; Function vt_clearToStartOfScreen
  1127                          ; ---------------------------------
  1128                          _vt_clearToStartOfScreen:
  1129  01f2  210000            	ld	hl,0x001b
  1130  01f5  e5                	push	hl
  1131  01f6  210000            	ld	hl,___str_5
  1132  01f9  e5                	push	hl
  1133  01fa  cd0000            	call	_printf
  1134  01fd  f1                	pop	af
  1135  01fe  f1                	pop	af
  1136  01ff  c9                	ret
  1137                          	SECTION rodata_compiler
  1138                          ___str_5:
  1139  00a4  256305            	DEFM "%cd"
  1140  00a7  00                	DEFB 0x00
  1141                          	SECTION code_compiler
  1142                          ;	---------------------------------
  1143                          ; Function vt_moveCursorDown
  1144                          ; ---------------------------------
  1145                          _vt_moveCursorDown:
  1146  0200  0e00              	ld	c,0x00
  1147                          l_vt_moveCursorDown_00103:
  1148  0202  210000            	ld	hl,2
  1149  0205  39                	add	hl, sp
  1150  0206  79                	ld	a, c
  1151  0207  96                	sub	a, (hl)
  1152  0208  d0                	ret	NC
  1153  0209  c5                	push	bc
  1154  020a  210000            	ld	hl,0x001b
  1155  020d  e5                	push	hl
  1156  020e  210000            	ld	hl,___str_6
  1157  0211  e5                	push	hl
  1158  0212  cd0000            	call	_printf
  1159  0215  f1                	pop	af
  1160  0216  f1                	pop	af
  1161  0217  c1                	pop	bc
  1162  0218  0c                	inc	c
  1163  0219  1800              	jr	l_vt_moveCursorDown_00103
  1164                          	SECTION rodata_compiler
  1165                          ___str_6:
  1166  00a8  ff6342            	DEFM "%cB"
  1167  00ab  00                	DEFB 0x00
  1168                          	SECTION code_compiler
  1169                          ;	---------------------------------
  1170                          ; Function vt_cursorHome
  1171                          ; ---------------------------------
  1172                          _vt_cursorHome:
  1173  021b  210000            	ld	hl,0x001b
  1174  021e  e5                	push	hl
  1175  021f  210000            	ld	hl,___str_7
  1176  0222  e5                	push	hl
  1177  0223  cd0000            	call	_printf
  1178  0226  f1                	pop	af
  1179  0227  f1                	pop	af
  1180  0228  c9                	ret
  1181                          	SECTION rodata_compiler
  1182                          ___str_7:
  1183  00ac  2563fe            	DEFM "%cH"
  1184  00af  00                	DEFB 0x00
  1185                          	SECTION code_compiler
  1186                          ;	---------------------------------
  1187                          ; Function vt_moveCursorLeft
  1188                          ; ---------------------------------
  1189                          _vt_moveCursorLeft:
  1190  0229  0e00              	ld	c,0x00
  1191                          l_vt_moveCursorLeft_00103:
  1192  022b  210000            	ld	hl,2
  1193  022e  39                	add	hl, sp
  1194  022f  79                	ld	a, c
  1195  0230  96                	sub	a, (hl)
  1196  0231  d0                	ret	NC
  1197  0232  c5                	push	bc
  1198  0233  211b00            	ld	hl,0x001b
  1199  0236  e5                	push	hl
  1200  0237  21b000            	ld	hl,___str_8
  1201  023a  e5                	push	hl
  1202  023b  cd0000            	call	_printf
  1203  023e  f1                	pop	af
  1204  023f  f1                	pop	af
  1205  0240  c1                	pop	bc
  1206  0241  0c                	inc	c
  1207  0242  18e7              	jr	l_vt_moveCursorLeft_00103
  1208                          	SECTION rodata_compiler
  1209                          ___str_8:
  1210  00b0  25fc44            	DEFM "%cD"
  1211  00b3  00                	DEFB 0x00
  1212                          	SECTION code_compiler
  1213                          ;	---------------------------------
  1214                          ; Function vt_moveCursorRight
  1215                          ; ---------------------------------
  1216                          _vt_moveCursorRight:
  1217  0244  0e00              	ld	c,0x00
  1218                          l_vt_moveCursorRight_00103:
  1219  0246  210200            	ld	hl,2
  1220  0249  39                	add	hl, sp
  1221  024a  79                	ld	a, c
  1222  024b  96                	sub	a, (hl)
  1223  024c  d0                	ret	NC
  1224  024d  c5                	push	bc
  1225  024e  211b00            	ld	hl,0x001b
  1226  0251  e5                	push	hl
  1227  0252  21b400            	ld	hl,___str_9
  1228  0255  e5                	push	hl
  1229  0256  cd0000            	call	_printf
  1230  0259  f1                	pop	af
  1231  025a  f1                	pop	af
  1232  025b  c1                	pop	bc
  1233  025c  0c                	inc	c
  1234  025d  18e7              	jr	l_vt_moveCursorRight_00103
  1235                          	SECTION rodata_compiler
  1236                          ___str_9:
  1237  00b4  2563ff            	DEFM "%cC"
  1238  00b7  00                	DEFB 0x00
  1239                          	SECTION code_compiler
  1240                          ;	---------------------------------
  1241                          ; Function vt_moveCursorUp
  1242                          ; ---------------------------------
  1243                          _vt_moveCursorUp:
  1244  025f  0e00              	ld	c,0x00
  1245                          l_vt_moveCursorUp_00103:
  1246  0261  210200            	ld	hl,2
  1247  0264  39                	add	hl, sp
  1248  0265  79                	ld	a, c
  1249  0266  96                	sub	a, (hl)
  1250  0267  d0                	ret	NC
  1251  0268  c5                	push	bc
  1252  0269  211b00            	ld	hl,0x001b
  1253  026c  e5                	push	hl
  1254  026d  21b800            	ld	hl,___str_10
  1255  0270  e5                	push	hl
  1256  0271  cd0000            	call	_printf
  1257  0274  f1                	pop	af
  1258  0275  f1                	pop	af
  1259  0276  c1                	pop	bc
  1260  0277  0c                	inc	c
  1261  0278  18e7              	jr	l_vt_moveCursorUp_00103
  1262                          	SECTION rodata_compiler
  1263                          ___str_10:
  1264  00b8  25fd41            	DEFM "%cA"
  1265  00bb  00                	DEFB 0x00
  1266                          	SECTION code_compiler
  1267                          ;	---------------------------------
  1268                          ; Function vt_deleteLine
  1269                          ; ---------------------------------
  1270                          _vt_deleteLine:
  1271  027a  211b00            	ld	hl,0x001b
  1272  027d  e5                	push	hl
  1273  027e  21bc00            	ld	hl,___str_11
  1274  0281  e5                	push	hl
  1275  0282  cd0000            	call	_printf
  1276  0285  f1                	pop	af
  1277  0286  f1                	pop	af
  1278  0287  c9                	ret
  1279                          	SECTION rodata_compiler
  1280                          ___str_11:
  1281  00bc  2563fe            	DEFM "%cM"
  1282  00bf  00                	DEFB 0x00
  1283                          	SECTION code_compiler
  1284                          ;	---------------------------------
  1285                          ; Function vt_setCursor
  1286                          ; ---------------------------------
  1287                          _vt_setCursor:
  1288  0288  dde5              	push	ix
  1289  028a  dd210000          	ld	ix,0
  1290  028e  dd39              	add	ix,sp
  1291  0290  211b00            	ld	hl,0x001b
  1292  0293  e5                	push	hl
  1293  0294  210a00            	ld	hl, +(__sgoioblk + 10)
  1294  0297  e5                	push	hl
  1295  0298  cd0000            	call	_fputc_callee
  1296  029b  3a12ff            	ld	a, (__EMULATION_MODE+0)
  1297  029e  b7                	or	a, a
  1298  029f  200d              	jr	NZ,l_vt_setCursor_00102
  1299  02a1  213d00            	ld	hl,0x003d
  1300  02a4  e5                	push	hl
  1301  02a5  210a00            	ld	hl, +(__sgoioblk + 10)
  1302  02a8  e5                	push	hl
  1303  02a9  cd0000            	call	_fputc_callee
  1304  02ac  180b              	jr	l_vt_setCursor_00103
  1305                          l_vt_setCursor_00102:
  1306  02ae  215900            	ld	hl,0x0059
  1307  02b1  e5                	push	hl
  1308  02b2  210a00            	ld	hl, +(__sgoioblk + 10)
  1309  02b5  e5                	push	hl
  1310  02b6  cd0000            	call	_fputc_callee
  1311                          l_vt_setCursor_00103:
  1312  02b9  dd4e05            	ld	c,(ix+5)
  1313  02bc  0600              	ld	b,0x00
  1314  02be  212000            	ld	hl,0x0020
  1315  02c1  09                	add	hl, bc
  1316  02c2  e5                	push	hl
  1317  02c3  210a00            	ld	hl, +(__sgoioblk + 10)
  1318  02c6  e5                	push	hl
  1319  02c7  cd0000            	call	_fputc_callee
  1320  02ca  dd4e04            	ld	c,(ix+4)
  1321  02cd  0600              	ld	b,0x00
  1322  02cf  212000            	ld	hl,0x0020
  1323  02d2  09                	add	hl, bc
  1324  02d3  e5                	push	hl
  1325  02d4  210a00            	ld	hl, +(__sgoioblk + 10)
  1326  02d7  e5                	push	hl
  1327  02d8  cd0000            	call	_fputc_callee
  1328  02db  dde1              	pop	ix
  1329  02dd  c9                	ret
  1330                          	SECTION code_compiler
  1331                          ;	---------------------------------
  1332                          ; Function vt_foregroundColor
  1333                          ; ---------------------------------
  1334                          _vt_foregroundColor:
  1335  02de  dde5              	push	ix
  1336  02e0  dd210000          	ld	ix,0
  1337  02e4  dd39              	add	ix,sp
  1338  02e6  211b00            	ld	hl,0x001b
  1339  02e9  e5                	push	hl
  1340  02ea  210a00            	ld	hl, +(__sgoioblk + 10)
  1341  02ed  e5                	push	hl
  1342  02ee  cd0000            	call	_fputc_callee
  1343  02f1  216200            	ld	hl,0x0062
  1344  02f4  e5                	push	hl
  1345  02f5  210a00            	ld	hl, +(__sgoioblk + 10)
  1346  02f8  e5                	push	hl
  1347  02f9  cd0000            	call	_fputc_callee
  1348  02fc  dd4e04            	ld	c,(ix+4)
  1349  02ff  0600              	ld	b,0x00
  1350  0301  c5                	push	bc
  1351  0302  210a00            	ld	hl, +(__sgoioblk + 10)
  1352  0305  e5                	push	hl
  1353  0306  cd0000            	call	_fputc_callee
  1354  0309  dde1              	pop	ix
  1355  030b  c9                	ret
  1356                          	SECTION code_compiler
  1357                          ;	---------------------------------
  1358                          ; Function vt_insertLine
  1359                          ; ---------------------------------
  1360                          _vt_insertLine:
  1361  030c  211b00            	ld	hl,0x001b
  1362  030f  e5                	push	hl
  1363  0310  21c000            	ld	hl,___str_12
  1364  0313  e5                	push	hl
  1365  0314  cd0000            	call	_printf
  1366  0317  f1                	pop	af
  1367  0318  f1                	pop	af
  1368  0319  c9                	ret
  1369                          	SECTION rodata_compiler
  1370                          ___str_12:
  1371  00c0  25ff4c            	DEFM "%cL"
  1372  00c3  00                	DEFB 0x00
  1373                          	SECTION code_compiler
  1374                          ;	---------------------------------
  1375                          ; Function vt_restoreCursorPosition
  1376                          ; ---------------------------------
  1377                          _vt_restoreCursorPosition:
  1378  031a  211b00            	ld	hl,0x001b
  1379  031d  e5                	push	hl
  1380  031e  21c400            	ld	hl,___str_13
  1381  0321  e5                	push	hl
  1382  0322  cd0000            	call	_printf
  1383  0325  f1                	pop	af
  1384  0326  f1                	pop	af
  1385  0327  c9                	ret
  1386                          	SECTION rodata_compiler
  1387                          ___str_13:
  1388  00c4  25636b            	DEFM "%ck"
  1389  00c7  00                	DEFB 0x00
  1390                          	SECTION code_compiler
  1391                          ;	---------------------------------
  1392                          ; Function vt_backgroundColor
  1393                          ; ---------------------------------
  1394                          _vt_backgroundColor:
  1395  0328  dde5              	push	ix
  1396  032a  dd210000          	ld	ix,0
  1397  032e  dd39              	add	ix,sp
  1398  0330  211b00            	ld	hl,0x001b
  1399  0333  e5                	push	hl
  1400  0334  210a00            	ld	hl, +(__sgoioblk + 10)
  1401  0337  e5                	push	hl
  1402  0338  cd0000            	call	_fputc_callee
  1403  033b  216300            	ld	hl,0x0063
  1404  033e  e5                	push	hl
  1405  033f  210a00            	ld	hl, +(__sgoioblk + 10)
  1406  0342  e5                	push	hl
  1407  0343  cd0000            	call	_fputc_callee
  1408  0346  dd4e04            	ld	c,(ix+4)
  1409  0349  0600              	ld	b,0x00
  1410  034b  c5                	push	bc
  1411  034c  210a00            	ld	hl, +(__sgoioblk + 10)
  1412  034f  e5                	push	hl
  1413  0350  cd0000            	call	_fputc_callee
  1414  0353  dde1              	pop	ix
  1415  0355  c9                	ret
  1416                          	SECTION code_compiler
  1417                          ;	---------------------------------
  1418                          ; Function vt_saveCursorPosition
  1419                          ; ---------------------------------
  1420                          _vt_saveCursorPosition:
  1421  0356  211b00            	ld	hl,0x001b
  1422  0359  e5                	push	hl
  1423  035a  21c800            	ld	hl,___str_14
  1424  035d  e5                	push	hl
  1425  035e  cd0000            	call	_printf
  1426  0361  f1                	pop	af
  1427  0362  f1                	pop	af
  1428  0363  c9                	ret
  1429                          	SECTION rodata_compiler
  1430                          ___str_14:
  1431  00c8  2563ff            	DEFM "%cj"
  1432  00cb  00                	DEFB 0x00
  1433                          	SECTION code_compiler
  1434                          ;	---------------------------------
  1435                          ; Function vt_cursorUpAndInsert
  1436                          ; ---------------------------------
  1437                          _vt_cursorUpAndInsert:
  1438  0364  211b00            	ld	hl,0x001b
  1439  0367  e5                	push	hl
  1440  0368  21cc00            	ld	hl,___str_15
  1441  036b  e5                	push	hl
  1442  036c  cd0000            	call	_printf
  1443  036f  f1                	pop	af
  1444  0370  f1                	pop	af
  1445  0371  c9                	ret
  1446                          	SECTION rodata_compiler
  1447                          ___str_15:
  1448  00cc  2563fe            	DEFM "%cI"
  1449  00cf  00                	DEFB 0x00
  1450                          	SECTION code_compiler
  1451                          ;	---------------------------------
  1452                          ; Function vt_wrapOff
  1453                          ; ---------------------------------
  1454                          _vt_wrapOff:
  1455  0372  211b00            	ld	hl,0x001b
  1456  0375  e5                	push	hl
  1457  0376  21d000            	ld	hl,___str_16
  1458  0379  e5                	push	hl
  1459  037a  cd0000            	call	_printf
  1460  037d  f1                	pop	af
  1461  037e  f1                	pop	af
  1462  037f  c9                	ret
  1463                          	SECTION rodata_compiler
  1464                          ___str_16:
  1465  00d0  25ff77            	DEFM "%cw"
  1466  00d3  00                	DEFB 0x00
  1467                          	SECTION code_compiler
  1468                          ;	---------------------------------
  1469                          ; Function vt_wrapOn
  1470                          ; ---------------------------------
  1471                          _vt_wrapOn:
  1472  0380  211b00            	ld	hl,0x001b
  1473  0383  e5                	push	hl
  1474  0384  21d400            	ld	hl,___str_17
  1475  0387  e5                	push	hl
  1476  0388  cd0000            	call	_printf
  1477  038b  f1                	pop	af
  1478  038c  f1                	pop	af
  1479  038d  c9                	ret
  1480                          	SECTION rodata_compiler
  1481                          ___str_17:
  1482  00d4  256376            	DEFM "%cv"
  1483  00d7  00                	DEFB 0x00
  1484                          	SECTION code_compiler
  1485                          ;	---------------------------------
  1486                          ; Function vt_normalVideo
  1487                          ; ---------------------------------
  1488                          _vt_normalVideo:
  1489  038e  211b00            	ld	hl,0x001b
  1490  0391  e5                	push	hl
  1491  0392  21d800            	ld	hl,___str_18
  1492  0395  e5                	push	hl
  1493  0396  cd0000            	call	_printf
  1494  0399  f1                	pop	af
  1495  039a  f1                	pop	af
  1496  039b  c9                	ret
  1497                          	SECTION rodata_compiler
  1498                          ___str_18:
  1499  00d8  256305            	DEFM "%cq"
  1500  00db  00                	DEFB 0x00
  1501                          	SECTION code_compiler
  1502                          ;	---------------------------------
  1503                          ; Function vt_reverseVideo
  1504                          ; ---------------------------------
  1505                          _vt_reverseVideo:
  1506  039c  211b00            	ld	hl,0x001b
  1507  039f  e5                	push	hl
  1508  03a0  21dc00            	ld	hl,___str_19
  1509  03a3  e5                	push	hl
  1510  03a4  cd0000            	call	_printf
  1511  03a7  f1                	pop	af
  1512  03a8  f1                	pop	af
  1513  03a9  c9                	ret
  1514                          	SECTION rodata_compiler
  1515                          ___str_19:
  1516  00dc  256370            	DEFM "%cp"
  1517  00df  00                	DEFB 0x00
  1518                          	SECTION code_compiler
  1519                          ;	---------------------------------
  1520                          ; Function ayWrite
  1521                          ; ---------------------------------
  1522                          _ayWrite:
  1523  03aa  fd210200          	ld	iy,2
  1524  03ae  fd39              	add	iy, sp
  1525  03b0  fd7e00            	ld	a,(iy+0)
  1526  03b3  d341              	out	(_IO_AYLATCH), a
  1527  03b5  fd7e01            	ld	a,(iy+0+1)
  1528  03b8  d340              	out	(_IO_AYDATA), a
  1529  03ba  c9                	ret
  1530                          	SECTION code_compiler
  1531                          ;	---------------------------------
  1532                          ; Function ayRead
  1533                          ; ---------------------------------
  1534                          _ayRead:
  1535  03bb  210200            	ld	hl,2+0
  1536  03be  39                	add	hl, sp
  1537  03bf  7e                	ld	a, (hl)
  1538  03c0  d341              	out	(_IO_AYLATCH), a
  1539  03c2  db40              	in	a, (_IO_AYDATA)
  1540  03c4  6f                	ld	l, a
  1541  03c5  c9                	ret
  1542                          	SECTION code_compiler
  1543                          ;	---------------------------------
  1544                          ; Function playNoteDelay
  1545                          ; ---------------------------------
  1546                          _playNoteDelay:
  1547  03c6  dde5              	push	ix
  1548  03c8  dd210000          	ld	ix,0
  1549  03cc  dd39              	add	ix,sp
  1550  03ce  dd5607            	ld	d,(ix+7)
  1551  03d1  1e0b              	ld	e,0x0b
  1552  03d3  d5                	push	de
  1553  03d4  cdaa03            	call	_ayWrite
  1554  03d7  f1                	pop	af
  1555  03d8  dd5606            	ld	d,(ix+6)
  1556  03db  1e0c              	ld	e,0x0c
  1557  03dd  d5                	push	de
  1558  03de  cdaa03            	call	_ayWrite
  1559  03e1  f1                	pop	af
  1560  03e2  dd7e04            	ld	a,(ix+4)
  1561  03e5  b7                	or	a, a
  1562  03e6  2811              	jr	Z,l_playNoteDelay_00101
  1563  03e8  dd7e04            	ld	a,(ix+4)
  1564  03eb  3d                	dec	a
  1565  03ec  2855              	jr	Z,l_playNoteDelay_00102
  1566  03ee  dd7e04            	ld	a,(ix+4)
  1567  03f1  d602              	sub	a,0x02
  1568  03f3  ca8a04            	jp	Z,l_playNoteDelay_00103
  1569  03f6  c3cf04            	jp	l_playNoteDelay_00105
  1570                          l_playNoteDelay_00101:
  1571  03f9  110810            	ld	de,0x1008
  1572  03fc  d5                	push	de
  1573  03fd  cdaa03            	call	_ayWrite
  1574  0400  f1                	pop	af
  1575  0401  af                	xor	a, a
  1576  0402  57                	ld	d,a
  1577  0403  1e09              	ld	e,0x09
  1578  0405  d5                	push	de
  1579  0406  cdaa03            	call	_ayWrite
  1580  0409  f1                	pop	af
  1581  040a  af                	xor	a, a
  1582  040b  57                	ld	d,a
  1583  040c  1e0a              	ld	e,0x0a
  1584  040e  d5                	push	de
  1585  040f  cdaa03            	call	_ayWrite
  1586  0412  f1                	pop	af
  1587  0413  014800            	ld	bc,__NOTES_FINE+0
  1588  0416  dd6e05            	ld	l,(ix+5)
  1589  0419  2600              	ld	h,0x00
  1590  041b  09                	add	hl, bc
  1591  041c  7e                	ld	a, (hl)
  1592  041d  f5                	push	af
  1593  041e  33                	inc	sp
  1594  041f  af                	xor	a, a
  1595  0420  f5                	push	af
  1596  0421  33                	inc	sp
  1597  0422  cdaa03            	call	_ayWrite
  1598  0425  f1                	pop	af
  1599  0426  010000            	ld	bc,__NOTES_COURSE+0
  1600  0429  dd6e05            	ld	l,(ix+5)
  1601  042c  2600              	ld	h,0x00
  1602  042e  09                	add	hl, bc
  1603  042f  56                	ld	d, (hl)
  1604  0430  1e01              	ld	e,0x01
  1605  0432  d5                	push	de
  1606  0433  cdaa03            	call	_ayWrite
  1607  0436  f1                	pop	af
  1608  0437  af                	xor	a, a
  1609  0438  57                	ld	d,a
  1610  0439  1e0d              	ld	e,0x0d
  1611  043b  d5                	push	de
  1612  043c  cdaa03            	call	_ayWrite
  1613  043f  f1                	pop	af
  1614  0440  c3cf04            	jp	l_playNoteDelay_00105
  1615                          l_playNoteDelay_00102:
  1616  0443  af                	xor	a, a
  1617  0444  57                	ld	d,a
  1618  0445  1e08              	ld	e,0x08
  1619  0447  d5                	push	de
  1620  0448  cdaa03            	call	_ayWrite
  1621  044b  f1                	pop	af
  1622  044c  110910            	ld	de,0x1009
  1623  044f  d5                	push	de
  1624  0450  cdaa03            	call	_ayWrite
  1625  0453  f1                	pop	af
  1626  0454  af                	xor	a, a
  1627  0455  57                	ld	d,a
  1628  0456  1e0a              	ld	e,0x0a
  1629  0458  d5                	push	de
  1630  0459  cdaa03            	call	_ayWrite
  1631  045c  f1                	pop	af
  1632  045d  014800            	ld	bc,__NOTES_FINE+0
  1633  0460  dd6e05            	ld	l,(ix+5)
  1634  0463  2600              	ld	h,0x00
  1635  0465  09                	add	hl, bc
  1636  0466  56                	ld	d, (hl)
  1637  0467  1e02              	ld	e,0x02
  1638  0469  d5                	push	de
  1639  046a  cdaa03            	call	_ayWrite
  1640  046d  f1                	pop	af
  1641  046e  010000            	ld	bc,__NOTES_COURSE+0
  1642  0471  dd6e05            	ld	l,(ix+5)
  1643  0474  2600              	ld	h,0x00
  1644  0476  09                	add	hl, bc
  1645  0477  56                	ld	d, (hl)
  1646  0478  1e03              	ld	e,0x03
  1647  047a  d5                	push	de
  1648  047b  cdaa03            	call	_ayWrite
  1649  047e  f1                	pop	af
  1650  047f  af                	xor	a, a
  1651  0480  57                	ld	d,a
  1652  0481  1e0d              	ld	e,0x0d
  1653  0483  d5                	push	de
  1654  0484  cdaa03            	call	_ayWrite
  1655  0487  f1                	pop	af
  1656  0488  1845              	jr	l_playNoteDelay_00105
  1657                          l_playNoteDelay_00103:
  1658  048a  af                	xor	a, a
  1659  048b  57                	ld	d,a
  1660  048c  1e08              	ld	e,0x08
  1661  048e  d5                	push	de
  1662  048f  cdaa03            	call	_ayWrite
  1663  0492  f1                	pop	af
  1664  0493  af                	xor	a, a
  1665  0494  57                	ld	d,a
  1666  0495  1e09              	ld	e,0x09
  1667  0497  d5                	push	de
  1668  0498  cdaa03            	call	_ayWrite
  1669  049b  f1                	pop	af
  1670  049c  110a10            	ld	de,0x100a
  1671  049f  d5                	push	de
  1672  04a0  cdaa03            	call	_ayWrite
  1673  04a3  f1                	pop	af
  1674  04a4  014800            	ld	bc,__NOTES_FINE+0
  1675  04a7  dd6e05            	ld	l,(ix+5)
  1676  04aa  2600              	ld	h,0x00
  1677  04ac  09                	add	hl, bc
  1678  04ad  56                	ld	d, (hl)
  1679  04ae  1e04              	ld	e,0x04
  1680  04b0  d5                	push	de
  1681  04b1  cdaa03            	call	_ayWrite
  1682  04b4  f1                	pop	af
  1683  04b5  010000            	ld	bc,__NOTES_COURSE+0
  1684  04b8  dd6e05            	ld	l,(ix+5)
  1685  04bb  2600              	ld	h,0x00
  1686  04bd  09                	add	hl, bc
  1687  04be  56                	ld	d, (hl)
  1688  04bf  1e05              	ld	e,0x05
  1689  04c1  d5                	push	de
  1690  04c2  cdaa03            	call	_ayWrite
  1691  04c5  f1                	pop	af
  1692  04c6  af                	xor	a, a
  1693  04c7  57                	ld	d,a
  1694  04c8  1e0d              	ld	e,0x0d
  1695  04ca  d5                	push	de
  1696  04cb  cdaa03            	call	_ayWrite
  1697  04ce  f1                	pop	af
  1698                          l_playNoteDelay_00105:
  1699  04cf  dde1              	pop	ix
  1700  04d1  c9                	ret
  1701                          	SECTION code_compiler
  1702                          ;	---------------------------------
  1703                          ; Function isKeyPressed
  1704                          ; ---------------------------------
  1705                          _isKeyPressed:
  1706  04d2  3a0400            	ld	a, (__kbdBufferWritePos+0)
  1707  04d5  fd210300          	ld	iy,__kbdBufferReadPos
  1708  04d9  fd9600            	sub	a,(iy+0)
  1709  04dc  2004              	jr	NZ,l_isKeyPressed_00103
  1710  04de  3e01              	ld	a,0x01
  1711  04e0  1801              	jr	l_isKeyPressed_00104
  1712                          l_isKeyPressed_00103:
  1713  04e2  af                	xor	a,a
  1714                          l_isKeyPressed_00104:
  1715  04e3  ee01              	xor	a,0x01
  1716  04e5  6f                	ld	l, a
  1717  04e6  c9                	ret
  1718                          	SECTION code_compiler
  1719                          ;	---------------------------------
  1720                          ; Function getChar
  1721                          ; ---------------------------------
  1722                          _getChar:
  1723                          l_getChar_00101:
  1724  04e7  3a0400            	ld	a, (__kbdBufferWritePos+0)
  1725  04ea  fd210300          	ld	iy,__kbdBufferReadPos
  1726  04ee  fd9600            	sub	a,(iy+0)
  1727  04f1  28f4              	jr	Z,l_getChar_00101
  1728  04f3  010001            	ld	bc,__kbdBuffer+0
  1729  04f6  2a0300            	ld	hl, (__kbdBufferReadPos)
  1730  04f9  2600              	ld	h,0x00
  1731  04fb  09                	add	hl, bc
  1732  04fc  4e                	ld	c, (hl)
  1733  04fd  3a0300            	ld	a, (__kbdBufferReadPos+0)
  1734  0500  3c                	inc	a
  1735  0501  320300            	ld	(__kbdBufferReadPos+0), a
  1736  0504  69                	ld	l, c
  1737  0505  c9                	ret
  1738                          	SECTION code_compiler
  1739                          ;	---------------------------------
  1740                          ; Function getJoyStatus
  1741                          ; ---------------------------------
  1742                          _getJoyStatus:
  1743  0506  3e06              	ld	a, +((__joyStatus) & 0xFF)
  1744  0508  210200            	ld	hl,2
  1745  050b  39                	add	hl, sp
  1746  050c  86                	add	a, (hl)
  1747  050d  6f                	ld	l, a
  1748  050e  3e00              	ld	a, +((__joyStatus) / 256)
  1749  0510  ce00              	adc	a,0x00
  1750  0512  67                	ld	h, a
  1751  0513  6e                	ld	l, (hl)
  1752  0514  c9                	ret
  1753                          	SECTION code_compiler
  1754                          ;	---------------------------------
  1755                          ; Function hcca_ping
  1756                          ; ---------------------------------
  1757                          _hcca_ping:
  1758  0515  3ea1              	ld	a,0xa1
  1759  0517  f5                	push	af
  1760  0518  33                	inc	sp
  1761  0519  cd8206            	call	_hcca_writeByte
  1762  051c  33                	inc	sp
  1763  051d  010000            	ld	bc,0x0000
  1764  0520  110000            	ld	de,0x0000
  1765                          l_hcca_ping_00103:
  1766  0523  3a0200            	ld	a, (__rxBufferWritePos+0)
  1767  0526  fd210100          	ld	iy,__rxBufferReadPos
  1768  052a  fd9600            	sub	a,(iy+0)
  1769  052d  2016              	jr	NZ,l_hcca_ping_00105
  1770  052f  0c                	inc	c
  1771  0530  2004              	jr	NZ,l_hcca_ping_00132
  1772  0532  04                	inc	b
  1773  0533  2001              	jr	NZ,l_hcca_ping_00132
  1774  0535  13                	inc	de
  1775                          l_hcca_ping_00132:
  1776  0536  79                	ld	a, c
  1777  0537  d650              	sub	a,0x50
  1778  0539  20e8              	jr	NZ,l_hcca_ping_00103
  1779  053b  78                	ld	a, b
  1780  053c  d6c3              	sub	a,0xc3
  1781  053e  b3                	or	a, e
  1782  053f  b2                	or	a,d
  1783  0540  20e1              	jr	NZ,l_hcca_ping_00103
  1784  0542  6f                	ld	l,a
  1785  0543  180e              	jr	l_hcca_ping_00108
  1786                          l_hcca_ping_00105:
  1787  0545  cd9705            	call	_hcca_readByte
  1788  0548  7d                	ld	a, l
  1789  0549  d655              	sub	a,0x55
  1790  054b  2004              	jr	NZ,l_hcca_ping_00107
  1791  054d  2e01              	ld	l,0x01
  1792  054f  1802              	jr	l_hcca_ping_00108
  1793                          l_hcca_ping_00107:
  1794  0551  2e00              	ld	l,0x00
  1795                          l_hcca_ping_00108:
  1796  0553  c9                	ret
  1797                          	SECTION code_compiler
  1798                          ;	---------------------------------
  1799                          ; Function hcca_isRxBufferAvailable
  1800                          ; ---------------------------------
  1801                          _hcca_isRxBufferAvailable:
  1802  0554  3a0200            	ld	a, (__rxBufferWritePos+0)
  1803  0557  fd210100          	ld	iy,__rxBufferReadPos
  1804  055b  fd9600            	sub	a,(iy+0)
  1805  055e  2004              	jr	NZ,l_hcca_isRxBufferAvailable_00103
  1806  0560  3e01              	ld	a,0x01
  1807  0562  1801              	jr	l_hcca_isRxBufferAvailable_00104
  1808                          l_hcca_isRxBufferAvailable_00103:
  1809  0564  af                	xor	a,a
  1810                          l_hcca_isRxBufferAvailable_00104:
  1811  0565  ee01              	xor	a,0x01
  1812  0567  6f                	ld	l, a
  1813  0568  c9                	ret
  1814                          	SECTION code_compiler
  1815                          ;	---------------------------------
  1816                          ; Function hcca_getSizeOfDataInBuffer
  1817                          ; ---------------------------------
  1818                          _hcca_getSizeOfDataInBuffer:
  1819  0569  3b                	dec	sp
  1820  056a  3a0200            	ld	a,(__rxBufferWritePos)
  1821  056d  fd210100          	ld	iy,__rxBufferReadPos
  1822  0571  fd9600            	sub	a,(iy+0)
  1823  0574  3017              	jr	NC,l_hcca_getSizeOfDataInBuffer_00102
  1824  0576  3a0100            	ld	a, (__rxBufferReadPos+0)
  1825  0579  4f                	ld	c, a
  1826  057a  210000            	ld	hl,0
  1827  057d  39                	add	hl, sp
  1828  057e  3eff              	ld	a,0xff
  1829  0580  91                	sub	a, c
  1830  0581  77                	ld	(hl), a
  1831  0582  3a0200            	ld	a, (__rxBufferWritePos+0)
  1832  0585  210000            	ld	hl,0
  1833  0588  39                	add	hl, sp
  1834  0589  86                	add	a, (hl)
  1835  058a  6f                	ld	l, a
  1836  058b  1808              	jr	l_hcca_getSizeOfDataInBuffer_00103
  1837                          l_hcca_getSizeOfDataInBuffer_00102:
  1838  058d  210100            	ld	hl,__rxBufferReadPos
  1839  0590  3a0200            	ld	a, (__rxBufferWritePos+0)
  1840  0593  96                	sub	a, (hl)
  1841  0594  6f                	ld	l, a
  1842                          l_hcca_getSizeOfDataInBuffer_00103:
  1843  0595  33                	inc	sp
  1844  0596  c9                	ret
  1845                          	SECTION code_compiler
  1846                          ;	---------------------------------
  1847                          ; Function hcca_readByte
  1848                          ; ---------------------------------
  1849                          _hcca_readByte:
  1850                          l_hcca_readByte_00101:
  1851  0597  3a0200            	ld	a, (__rxBufferWritePos+0)
  1852  059a  fd210100          	ld	iy,__rxBufferReadPos
  1853  059e  fd9600            	sub	a,(iy+0)
  1854  05a1  28f4              	jr	Z,l_hcca_readByte_00101
  1855  05a3  010000            	ld	bc,__rxBuffer+0
  1856  05a6  2a0100            	ld	hl, (__rxBufferReadPos)
  1857  05a9  2600              	ld	h,0x00
  1858  05ab  09                	add	hl, bc
  1859  05ac  4e                	ld	c, (hl)
  1860  05ad  3a0100            	ld	a, (__rxBufferReadPos+0)
  1861  05b0  3c                	inc	a
  1862  05b1  320100            	ld	(__rxBufferReadPos+0), a
  1863  05b4  69                	ld	l, c
  1864  05b5  c9                	ret
  1865                          	SECTION code_compiler
  1866                          ;	---------------------------------
  1867                          ; Function hcca_readUInt16
  1868                          ; ---------------------------------
  1869                          _hcca_readUInt16:
  1870  05b6  cd9705            	call	_hcca_readByte
  1871  05b9  4d                	ld	c, l
  1872  05ba  0600              	ld	b,0x00
  1873  05bc  c5                	push	bc
  1874  05bd  cd9705            	call	_hcca_readByte
  1875  05c0  c1                	pop	bc
  1876  05c1  65                	ld	h, l
  1877  05c2  2e00              	ld	l,0x00
  1878  05c4  09                	add	hl, bc
  1879  05c5  c9                	ret
  1880                          	SECTION code_compiler
  1881                          ;	---------------------------------
  1882                          ; Function hcca_readInt16
  1883                          ; ---------------------------------
  1884                          _hcca_readInt16:
  1885  05c6  cd9705            	call	_hcca_readByte
  1886  05c9  4d                	ld	c, l
  1887  05ca  0600              	ld	b,0x00
  1888  05cc  c5                	push	bc
  1889  05cd  cd9705            	call	_hcca_readByte
  1890  05d0  c1                	pop	bc
  1891  05d1  65                	ld	h, l
  1892  05d2  2e00              	ld	l,0x00
  1893  05d4  09                	add	hl, bc
  1894  05d5  c9                	ret
  1895                          	SECTION code_compiler
  1896                          ;	---------------------------------
  1897                          ; Function hcca_readUInt32
  1898                          ; ---------------------------------
  1899                          _hcca_readUInt32:
  1900  05d6  dde5              	push	ix
  1901  05d8  dd210000          	ld	ix,0
  1902  05dc  dd39              	add	ix,sp
  1903  05de  f5                	push	af
  1904  05df  f5                	push	af
  1905  05e0  cd9705            	call	_hcca_readByte
  1906  05e3  dd75fc            	ld	(ix-4),l
  1907  05e6  cd9705            	call	_hcca_readByte
  1908  05e9  dd75fd            	ld	(ix-3),l
  1909  05ec  cd9705            	call	_hcca_readByte
  1910  05ef  dd75fe            	ld	(ix-2),l
  1911  05f2  cd9705            	call	_hcca_readByte
  1912  05f5  dd75ff            	ld	(ix-1),l
  1913  05f8  e1                	pop	hl
  1914  05f9  e5                	push	hl
  1915  05fa  dd5efe            	ld	e,(ix-2)
  1916  05fd  dd56ff            	ld	d,(ix-1)
  1917  0600  ddf9              	ld	sp, ix
  1918  0602  dde1              	pop	ix
  1919  0604  c9                	ret
  1920                          	SECTION code_compiler
  1921                          ;	---------------------------------
  1922                          ; Function hcca_readInt32
  1923                          ; ---------------------------------
  1924                          _hcca_readInt32:
  1925  0605  dde5              	push	ix
  1926  0607  dd210000          	ld	ix,0
  1927  060b  dd39              	add	ix,sp
  1928  060d  f5                	push	af
  1929  060e  f5                	push	af
  1930  060f  cd9705            	call	_hcca_readByte
  1931  0612  dd75fc            	ld	(ix-4),l
  1932  0615  cd9705            	call	_hcca_readByte
  1933  0618  dd75fd            	ld	(ix-3),l
  1934  061b  cd9705            	call	_hcca_readByte
  1935  061e  dd75fe            	ld	(ix-2),l
  1936  0621  cd9705            	call	_hcca_readByte
  1937  0624  dd75ff            	ld	(ix-1),l
  1938  0627  e1                	pop	hl
  1939  0628  e5                	push	hl
  1940  0629  dd5efe            	ld	e,(ix-2)
  1941  062c  dd56ff            	ld	d,(ix-1)
  1942  062f  ddf9              	ld	sp, ix
  1943  0631  dde1              	pop	ix
  1944  0633  c9                	ret
  1945                          	SECTION code_compiler
  1946                          ;	---------------------------------
  1947                          ; Function hcca_readBytes
  1948                          ; ---------------------------------
  1949                          _hcca_readBytes:
  1950  0634  dde5              	push	ix
  1951  0636  dd210000          	ld	ix,0
  1952  063a  dd39              	add	ix,sp
  1953  063c  dd7e08            	ld	a,(ix+8)
  1954  063f  dd8604            	add	a,(ix+4)
  1955  0642  4f                	ld	c, a
  1956  0643  dd7e09            	ld	a,(ix+9)
  1957  0646  dd8e05            	adc	a,(ix+5)
  1958  0649  47                	ld	b, a
  1959  064a  dd6e06            	ld	l,(ix+6)
  1960  064d  dd6607            	ld	h,(ix+7)
  1961  0650  09                	add	hl, bc
  1962  0651  eb                	ex	de, hl
  1963                          l_hcca_readBytes_00101:
  1964  0652  3a0200            	ld	a, (__rxBufferWritePos+0)
  1965  0655  fd210100          	ld	iy,__rxBufferReadPos
  1966  0659  fd9600            	sub	a,(iy+0)
  1967  065c  28f4              	jr	Z,l_hcca_readBytes_00101
  1968  065e  fd210000          	ld	iy,__rxBuffer
  1969  0662  c5                	push	bc
  1970  0663  ed4b0100          	ld	bc, (__rxBufferReadPos)
  1971  0667  0600              	ld	b,0x00
  1972  0669  fd09              	add	iy, bc
  1973  066b  c1                	pop	bc
  1974  066c  fd7e00            	ld	a,(iy+0)
  1975  066f  02                	ld	(bc), a
  1976  0670  03                	inc	bc
  1977  0671  3a0100            	ld	a, (__rxBufferReadPos+0)
  1978  0674  3c                	inc	a
  1979  0675  320100            	ld	(__rxBufferReadPos+0), a
  1980  0678  69                	ld	l, c
  1981  0679  60                	ld	h, b
  1982  067a  bf                	cp	a, a
  1983  067b  ed52              	sbc	hl, de
  1984  067d  20d3              	jr	NZ,l_hcca_readBytes_00101
  1985  067f  dde1              	pop	ix
  1986  0681  c9                	ret
  1987                          	SECTION code_compiler
  1988                          ;	---------------------------------
  1989                          ; Function hcca_writeByte
  1990                          ; ---------------------------------
  1991                          _hcca_writeByte:
  1992  0682  cd7000            	call	_NABU_DisableInterrupts
  1993  0685  3e0e              	ld	a,0x0e
  1994  0687  f5                	push	af
  1995  0688  33                	inc	sp
  1996  0689  cdbb03            	call	_ayRead
  1997  068c  33                	inc	sp
  1998  068d  45                	ld	b, l
  1999  068e  c5                	push	bc
  2000  068f  110e40            	ld	de,0x400e
  2001  0692  d5                	push	de
  2002  0693  cdaa03            	call	_ayWrite
  2003  0696  f1                	pop	af
  2004  0697  c1                	pop	bc
  2005  0698  3e0f              	ld	a,0x0f
  2006  069a  d341              	out	(_IO_AYLATCH), a
  2007                          l_hcca_writeByte_00101:
  2008  069c  db40              	in	a, (_IO_AYDATA)
  2009  069e  cb57              	bit	2, a
  2010  06a0  20fa              	jr	NZ,l_hcca_writeByte_00101
  2011  06a2  210200            	ld	hl,2+0
  2012  06a5  39                	add	hl, sp
  2013  06a6  7e                	ld	a, (hl)
  2014  06a7  d380              	out	(_IO_HCCA), a
  2015  06a9  c5                	push	bc
  2016  06aa  33                	inc	sp
  2017  06ab  3e0e              	ld	a,0x0e
  2018  06ad  f5                	push	af
  2019  06ae  33                	inc	sp
  2020  06af  cdaa03            	call	_ayWrite
  2021  06b2  f1                	pop	af
  2022  06b3  c37200            	jp	_NABU_EnableInterrupts
  2023                          	SECTION code_compiler
  2024                          ;	---------------------------------
  2025                          ; Function hcca_writeUInt32
  2026                          ; ---------------------------------
  2027                          _hcca_writeUInt32:
  2028  06b6  210200            	ld	hl,2+0
  2029  06b9  39                	add	hl, sp
  2030  06ba  7e                	ld	a, (hl)
  2031  06bb  f5                	push	af
  2032  06bc  33                	inc	sp
  2033  06bd  cd8206            	call	_hcca_writeByte
  2034  06c0  33                	inc	sp
  2035  06c1  210300            	ld	hl,2+1
  2036  06c4  39                	add	hl, sp
  2037  06c5  7e                	ld	a, (hl)
  2038  06c6  f5                	push	af
  2039  06c7  33                	inc	sp
  2040  06c8  cd8206            	call	_hcca_writeByte
  2041  06cb  33                	inc	sp
  2042  06cc  210400            	ld	hl,2+2
  2043  06cf  39                	add	hl, sp
  2044  06d0  7e                	ld	a, (hl)
  2045  06d1  f5                	push	af
  2046  06d2  33                	inc	sp
  2047  06d3  cd8206            	call	_hcca_writeByte
  2048  06d6  33                	inc	sp
  2049  06d7  210500            	ld	hl,2+3
  2050  06da  39                	add	hl, sp
  2051  06db  7e                	ld	a, (hl)
  2052  06dc  f5                	push	af
  2053  06dd  33                	inc	sp
  2054  06de  cd8206            	call	_hcca_writeByte
  2055  06e1  33                	inc	sp
  2056  06e2  c9                	ret
  2057                          	SECTION code_compiler
  2058                          ;	---------------------------------
  2059                          ; Function hcca_writeInt32
  2060                          ; ---------------------------------
  2061                          _hcca_writeInt32:
  2062  06e3  210200            	ld	hl,2+0
  2063  06e6  39                	add	hl, sp
  2064  06e7  7e                	ld	a, (hl)
  2065  06e8  f5                	push	af
  2066  06e9  33                	inc	sp
  2067  06ea  cd8206            	call	_hcca_writeByte
  2068  06ed  33                	inc	sp
  2069  06ee  210300            	ld	hl,2+1
  2070  06f1  39                	add	hl, sp
  2071  06f2  7e                	ld	a, (hl)
  2072  06f3  f5                	push	af
  2073  06f4  33                	inc	sp
  2074  06f5  cd8206            	call	_hcca_writeByte
  2075  06f8  33                	inc	sp
  2076  06f9  210400            	ld	hl,2+2
  2077  06fc  39                	add	hl, sp
  2078  06fd  7e                	ld	a, (hl)
  2079  06fe  f5                	push	af
  2080  06ff  33                	inc	sp
  2081  0700  cd8206            	call	_hcca_writeByte
  2082  0703  33                	inc	sp
  2083  0704  210500            	ld	hl,2+3
  2084  0707  39                	add	hl, sp
  2085  0708  7e                	ld	a, (hl)
  2086  0709  f5                	push	af
  2087  070a  33                	inc	sp
  2088  070b  cd8206            	call	_hcca_writeByte
  2089  070e  33                	inc	sp
  2090  070f  c9                	ret
  2091                          	SECTION code_compiler
  2092                          ;	---------------------------------
  2093                          ; Function hcca_writeUInt16
  2094                          ; ---------------------------------
  2095                          _hcca_writeUInt16:
  2096  0710  210200            	ld	hl,2+0
  2097  0713  39                	add	hl, sp
  2098  0714  7e                	ld	a, (hl)
  2099  0715  f5                	push	af
  2100  0716  33                	inc	sp
  2101  0717  cd8206            	call	_hcca_writeByte
  2102  071a  33                	inc	sp
  2103  071b  210300            	ld	hl,2+1
  2104  071e  39                	add	hl, sp
  2105  071f  7e                	ld	a, (hl)
  2106  0720  f5                	push	af
  2107  0721  33                	inc	sp
  2108  0722  cd8206            	call	_hcca_writeByte
  2109  0725  33                	inc	sp
  2110  0726  c9                	ret
  2111                          	SECTION code_compiler
  2112                          ;	---------------------------------
  2113                          ; Function hcca_writeInt16
  2114                          ; ---------------------------------
  2115                          _hcca_writeInt16:
  2116  0727  210200            	ld	hl,2+0
  2117  072a  39                	add	hl, sp
  2118  072b  7e                	ld	a, (hl)
  2119  072c  f5                	push	af
  2120  072d  33                	inc	sp
  2121  072e  cd8206            	call	_hcca_writeByte
  2122  0731  33                	inc	sp
  2123  0732  210300            	ld	hl,2+1
  2124  0735  39                	add	hl, sp
  2125  0736  7e                	ld	a, (hl)
  2126  0737  f5                	push	af
  2127  0738  33                	inc	sp
  2128  0739  cd8206            	call	_hcca_writeByte
  2129  073c  33                	inc	sp
  2130  073d  c9                	ret
  2131                          	SECTION code_compiler
  2132                          ;	---------------------------------
  2133                          ; Function hcca_writeString
  2134                          ; ---------------------------------
  2135                          _hcca_writeString:
  2136  073e  010000            	ld	bc,0x0000
  2137                          l_hcca_writeString_00103:
  2138  0741  210200            	ld	hl,2
  2139  0744  39                	add	hl, sp
  2140  0745  7e                	ld	a, (hl)
  2141  0746  23                	inc	hl
  2142  0747  66                	ld	h, (hl)
  2143  0748  6f                	ld	l, a
  2144  0749  09                	add	hl, bc
  2145  074a  7e                	ld	a, (hl)
  2146  074b  b7                	or	a, a
  2147  074c  c8                	ret	Z
  2148  074d  c5                	push	bc
  2149  074e  f5                	push	af
  2150  074f  33                	inc	sp
  2151  0750  cd8206            	call	_hcca_writeByte
  2152  0753  33                	inc	sp
  2153  0754  c1                	pop	bc
  2154  0755  03                	inc	bc
  2155  0756  18e9              	jr	l_hcca_writeString_00103
  2156                          	SECTION code_compiler
  2157                          ;	---------------------------------
  2158                          ; Function hcca_writeBytes
  2159                          ; ---------------------------------
  2160                          _hcca_writeBytes:
  2161  0758  dde5              	push	ix
  2162  075a  dd210000          	ld	ix,0
  2163  075e  dd39              	add	ix,sp
  2164  0760  dd7e08            	ld	a,(ix+8)
  2165  0763  dd8604            	add	a,(ix+4)
  2166  0766  4f                	ld	c, a
  2167  0767  dd7e09            	ld	a,(ix+9)
  2168  076a  dd8e05            	adc	a,(ix+5)
  2169  076d  47                	ld	b, a
  2170  076e  dd6e06            	ld	l,(ix+6)
  2171  0771  dd6607            	ld	h,(ix+7)
  2172  0774  09                	add	hl, bc
  2173  0775  eb                	ex	de, hl
  2174                          l_hcca_writeBytes_00101:
  2175  0776  69                	ld	l, c
  2176  0777  60                	ld	h, b
  2177  0778  bf                	cp	a, a
  2178  0779  ed52              	sbc	hl, de
  2179  077b  280e              	jr	Z,l_hcca_writeBytes_00104
  2180  077d  0a                	ld	a, (bc)
  2181  077e  c5                	push	bc
  2182  077f  d5                	push	de
  2183  0780  f5                	push	af
  2184  0781  33                	inc	sp
  2185  0782  cd8206            	call	_hcca_writeByte
  2186  0785  33                	inc	sp
  2187  0786  d1                	pop	de
  2188  0787  c1                	pop	bc
  2189  0788  03                	inc	bc
  2190  0789  18eb              	jr	l_hcca_writeBytes_00101
  2191                          l_hcca_writeBytes_00104:
  2192  078b  dde1              	pop	ix
  2193  078d  c9                	ret
  2194                          	SECTION code_compiler
  2195                          ;	---------------------------------
  2196                          ; Function hcca_DiFocusInterrupts
  2197                          ; ---------------------------------
  2198                          _hcca_DiFocusInterrupts:
  2199  078e  cd7000            	call	_NABU_DisableInterrupts
  2200  0791  3e0e              	ld	a,0x0e
  2201  0793  f5                	push	af
  2202  0794  33                	inc	sp
  2203  0795  cdbb03            	call	_ayRead
  2204  0798  33                	inc	sp
  2205  0799  7d                	ld	a, l
  2206  079a  320a00            	ld	(__rnFS_INT_BACKUP+0), a
  2207  079d  110e80            	ld	de,0x800e
  2208  07a0  d5                	push	de
  2209  07a1  cdaa03            	call	_ayWrite
  2210  07a4  f1                	pop	af
  2211  07a5  c9                	ret
  2212                          	SECTION code_compiler
  2213                          ;	---------------------------------
  2214                          ; Function hcca_DiRestoreInterrupts
  2215                          ; ---------------------------------
  2216                          _hcca_DiRestoreInterrupts:
  2217  07a6  3a0a00            	ld	a, (__rnFS_INT_BACKUP+0)
  2218  07a9  57                	ld	d,a
  2219  07aa  1e0e              	ld	e,0x0e
  2220  07ac  d5                	push	de
  2221  07ad  cdaa03            	call	_ayWrite
  2222  07b0  f1                	pop	af
  2223  07b1  c37200            	jp	_NABU_EnableInterrupts
  2224                          	SECTION code_compiler
  2225                          ;	---------------------------------
  2226                          ; Function hcca_DiWriteByte
  2227                          ; ---------------------------------
  2228                          _hcca_DiWriteByte:
  2229  07b4  110e40            	ld	de,0x400e
  2230  07b7  d5                	push	de
  2231  07b8  cdaa03            	call	_ayWrite
  2232  07bb  f1                	pop	af
  2233  07bc  3e0f              	ld	a,0x0f
  2234  07be  d341              	out	(_IO_AYLATCH), a
  2235                          l_hcca_DiWriteByte_00101:
  2236  07c0  db40              	in	a, (_IO_AYDATA)
  2237  07c2  cb57              	bit	2, a
  2238  07c4  20fa              	jr	NZ,l_hcca_DiWriteByte_00101
  2239  07c6  210200            	ld	hl,2+0
  2240  07c9  39                	add	hl, sp
  2241  07ca  7e                	ld	a, (hl)
  2242  07cb  d380              	out	(_IO_HCCA), a
  2243  07cd  110e80            	ld	de,0x800e
  2244  07d0  d5                	push	de
  2245  07d1  cdaa03            	call	_ayWrite
  2246  07d4  f1                	pop	af
  2247  07d5  c9                	ret
  2248                          	SECTION code_compiler
  2249                          ;	---------------------------------
  2250                          ; Function hcca_DiWriteUInt32
  2251                          ; ---------------------------------
  2252                          _hcca_DiWriteUInt32:
  2253  07d6  210200            	ld	hl,2+0
  2254  07d9  39                	add	hl, sp
  2255  07da  7e                	ld	a, (hl)
  2256  07db  f5                	push	af
  2257  07dc  33                	inc	sp
  2258  07dd  cdb407            	call	_hcca_DiWriteByte
  2259  07e0  33                	inc	sp
  2260  07e1  210300            	ld	hl,2+1
  2261  07e4  39                	add	hl, sp
  2262  07e5  7e                	ld	a, (hl)
  2263  07e6  f5                	push	af
  2264  07e7  33                	inc	sp
  2265  07e8  cdb407            	call	_hcca_DiWriteByte
  2266  07eb  33                	inc	sp
  2267  07ec  210400            	ld	hl,2+2
  2268  07ef  39                	add	hl, sp
  2269  07f0  7e                	ld	a, (hl)
  2270  07f1  f5                	push	af
  2271  07f2  33                	inc	sp
  2272  07f3  cdb407            	call	_hcca_DiWriteByte
  2273  07f6  33                	inc	sp
  2274  07f7  210500            	ld	hl,2+3
  2275  07fa  39                	add	hl, sp
  2276  07fb  7e                	ld	a, (hl)
  2277  07fc  f5                	push	af
  2278  07fd  33                	inc	sp
  2279  07fe  cdb407            	call	_hcca_DiWriteByte
  2280  0801  33                	inc	sp
  2281  0802  c9                	ret
  2282                          	SECTION code_compiler
  2283                          ;	---------------------------------
  2284                          ; Function hcca_DiWriteInt32
  2285                          ; ---------------------------------
  2286                          _hcca_DiWriteInt32:
  2287  0803  210200            	ld	hl,2+0
  2288  0806  39                	add	hl, sp
  2289  0807  7e                	ld	a, (hl)
  2290  0808  f5                	push	af
  2291  0809  33                	inc	sp
  2292  080a  cdb407            	call	_hcca_DiWriteByte
  2293  080d  33                	inc	sp
  2294  080e  210300            	ld	hl,2+1
  2295  0811  39                	add	hl, sp
  2296  0812  7e                	ld	a, (hl)
  2297  0813  f5                	push	af
  2298  0814  33                	inc	sp
  2299  0815  cdb407            	call	_hcca_DiWriteByte
  2300  0818  33                	inc	sp
  2301  0819  210400            	ld	hl,2+2
  2302  081c  39                	add	hl, sp
  2303  081d  7e                	ld	a, (hl)
  2304  081e  f5                	push	af
  2305  081f  33                	inc	sp
  2306  0820  cdb407            	call	_hcca_DiWriteByte
  2307  0823  33                	inc	sp
  2308  0824  210500            	ld	hl,2+3
  2309  0827  39                	add	hl, sp
  2310  0828  7e                	ld	a, (hl)
  2311  0829  f5                	push	af
  2312  082a  33                	inc	sp
  2313  082b  cdb407            	call	_hcca_DiWriteByte
  2314  082e  33                	inc	sp
  2315  082f  c9                	ret
  2316                          	SECTION code_compiler
  2317                          ;	---------------------------------
  2318                          ; Function hcca_DiWriteUInt16
  2319                          ; ---------------------------------
  2320                          _hcca_DiWriteUInt16:
  2321  0830  210200            	ld	hl,2+0
  2322  0833  39                	add	hl, sp
  2323  0834  7e                	ld	a, (hl)
  2324  0835  f5                	push	af
  2325  0836  33                	inc	sp
  2326  0837  cdb407            	call	_hcca_DiWriteByte
  2327  083a  33                	inc	sp
  2328  083b  210300            	ld	hl,2+1
  2329  083e  39                	add	hl, sp
  2330  083f  7e                	ld	a, (hl)
  2331  0840  f5                	push	af
  2332  0841  33                	inc	sp
  2333  0842  cdb407            	call	_hcca_DiWriteByte
  2334  0845  33                	inc	sp
  2335  0846  c9                	ret
  2336                          	SECTION code_compiler
  2337                          ;	---------------------------------
  2338                          ; Function hcca_DiWriteInt16
  2339                          ; ---------------------------------
  2340                          _hcca_DiWriteInt16:
  2341  0847  210200            	ld	hl,2+0
  2342  084a  39                	add	hl, sp
  2343  084b  7e                	ld	a, (hl)
  2344  084c  f5                	push	af
  2345  084d  33                	inc	sp
  2346  084e  cdb407            	call	_hcca_DiWriteByte
  2347  0851  33                	inc	sp
  2348  0852  210300            	ld	hl,2+1
  2349  0855  39                	add	hl, sp
  2350  0856  7e                	ld	a, (hl)
  2351  0857  f5                	push	af
  2352  0858  33                	inc	sp
  2353  0859  cdb407            	call	_hcca_DiWriteByte
  2354  085c  33                	inc	sp
  2355  085d  c9                	ret
  2356                          	SECTION code_compiler
  2357                          ;	---------------------------------
  2358                          ; Function hcca_DiWriteString
  2359                          ; ---------------------------------
  2360                          _hcca_DiWriteString:
  2361  085e  210200            	ld	hl,2
  2362  0861  39                	add	hl, sp
  2363  0862  4e                	ld	c, (hl)
  2364  0863  23                	inc	hl
  2365  0864  46                	ld	b, (hl)
  2366                          l_hcca_DiWriteString_00103:
  2367  0865  0a                	ld	a, (bc)
  2368  0866  b7                	or	a, a
  2369  0867  c8                	ret	Z
  2370  0868  c5                	push	bc
  2371  0869  f5                	push	af
  2372  086a  33                	inc	sp
  2373  086b  cdb407            	call	_hcca_DiWriteByte
  2374  086e  33                	inc	sp
  2375  086f  c1                	pop	bc
  2376  0870  03                	inc	bc
  2377  0871  18f2              	jr	l_hcca_DiWriteString_00103
  2378                          	SECTION code_compiler
  2379                          ;	---------------------------------
  2380                          ; Function hcca_DiWriteBytes
  2381                          ; ---------------------------------
  2382                          _hcca_DiWriteBytes:
  2383  0873  dde5              	push	ix
  2384  0875  dd210000          	ld	ix,0
  2385  0879  dd39              	add	ix,sp
  2386  087b  dd7e08            	ld	a,(ix+8)
  2387  087e  dd8604            	add	a,(ix+4)
  2388  0881  4f                	ld	c, a
  2389  0882  dd7e09            	ld	a,(ix+9)
  2390  0885  dd8e05            	adc	a,(ix+5)
  2391  0888  47                	ld	b, a
  2392  0889  dd6e06            	ld	l,(ix+6)
  2393  088c  dd6607            	ld	h,(ix+7)
  2394  088f  09                	add	hl, bc
  2395  0890  eb                	ex	de, hl
  2396                          l_hcca_DiWriteBytes_00101:
  2397  0891  69                	ld	l, c
  2398  0892  60                	ld	h, b
  2399  0893  bf                	cp	a, a
  2400  0894  ed52              	sbc	hl, de
  2401  0896  280e              	jr	Z,l_hcca_DiWriteBytes_00104
  2402  0898  0a                	ld	a, (bc)
  2403  0899  c5                	push	bc
  2404  089a  d5                	push	de
  2405  089b  f5                	push	af
  2406  089c  33                	inc	sp
  2407  089d  cdb407            	call	_hcca_DiWriteByte
  2408  08a0  33                	inc	sp
  2409  08a1  d1                	pop	de
  2410  08a2  c1                	pop	bc
  2411  08a3  03                	inc	bc
  2412  08a4  18eb              	jr	l_hcca_DiWriteBytes_00101
  2413                          l_hcca_DiWriteBytes_00104:
  2414  08a6  dde1              	pop	ix
  2415  08a8  c9                	ret
  2416                          	SECTION code_compiler
  2417                          ;	---------------------------------
  2418                          ; Function hcca_DiReadUInt16
  2419                          ; ---------------------------------
  2420                          _hcca_DiReadUInt16:
  2421  08a9  3e0f              	ld	a,0x0f
  2422  08ab  d341              	out	(_IO_AYLATCH), a
  2423                          l_hcca_DiReadUInt16_00101:
  2424  08ad  db40              	in	a, (_IO_AYDATA)
  2425  08af  cb4f              	bit	1, a
  2426  08b1  20fa              	jr	NZ,l_hcca_DiReadUInt16_00101
  2427  08b3  db80              	in	a, (_IO_HCCA)
  2428  08b5  4f                	ld	c, a
  2429  08b6  0600              	ld	b,0x00
  2430  08b8  3e0f              	ld	a,0x0f
  2431  08ba  d341              	out	(_IO_AYLATCH), a
  2432                          l_hcca_DiReadUInt16_00105:
  2433  08bc  db40              	in	a, (_IO_AYDATA)
  2434  08be  cb4f              	bit	1, a
  2435  08c0  20fa              	jr	NZ,l_hcca_DiReadUInt16_00105
  2436  08c2  db80              	in	a, (_IO_HCCA)
  2437  08c4  5f                	ld	e, a
  2438  08c5  3e00              	ld	a,0x00
  2439  08c7  b1                	or	a, c
  2440  08c8  6f                	ld	l, a
  2441  08c9  7b                	ld	a, e
  2442  08ca  b0                	or	a, b
  2443  08cb  67                	ld	h, a
  2444  08cc  c9                	ret
  2445                          	SECTION code_compiler
  2446                          ;	---------------------------------
  2447                          ; Function hcca_DiReadInt16
  2448                          ; ---------------------------------
  2449                          _hcca_DiReadInt16:
  2450  08cd  3e0f              	ld	a,0x0f
  2451  08cf  d341              	out	(_IO_AYLATCH), a
  2452                          l_hcca_DiReadInt16_00101:
  2453  08d1  db40              	in	a, (_IO_AYDATA)
  2454  08d3  cb4f              	bit	1, a
  2455  08d5  20fa              	jr	NZ,l_hcca_DiReadInt16_00101
  2456  08d7  db80              	in	a, (_IO_HCCA)
  2457  08d9  4f                	ld	c, a
  2458  08da  0600              	ld	b,0x00
  2459  08dc  3e0f              	ld	a,0x0f
  2460  08de  d341              	out	(_IO_AYLATCH), a
  2461                          l_hcca_DiReadInt16_00105:
  2462  08e0  db40              	in	a, (_IO_AYDATA)
  2463  08e2  cb4f              	bit	1, a
  2464  08e4  20fa              	jr	NZ,l_hcca_DiReadInt16_00105
  2465  08e6  db80              	in	a, (_IO_HCCA)
  2466  08e8  5f                	ld	e, a
  2467  08e9  3e00              	ld	a,0x00
  2468  08eb  b1                	or	a, c
  2469  08ec  6f                	ld	l, a
  2470  08ed  7b                	ld	a, e
  2471  08ee  b0                	or	a, b
  2472  08ef  67                	ld	h, a
  2473  08f0  c9                	ret
  2474                          	SECTION code_compiler
  2475                          ;	---------------------------------
  2476                          ; Function hcca_DiReadUInt32
  2477                          ; ---------------------------------
  2478                          _hcca_DiReadUInt32:
  2479  08f1  dde5              	push	ix
  2480  08f3  dd210000          	ld	ix,0
  2481  08f7  dd39              	add	ix,sp
  2482  08f9  f5                	push	af
  2483  08fa  f5                	push	af
  2484  08fb  3e0f              	ld	a,0x0f
  2485  08fd  d341              	out	(_IO_AYLATCH), a
  2486                          l_hcca_DiReadUInt32_00101:
  2487  08ff  db40              	in	a, (_IO_AYDATA)
  2488  0901  cb4f              	bit	1, a
  2489  0903  20fa              	jr	NZ,l_hcca_DiReadUInt32_00101
  2490  0905  db80              	in	a, (_IO_HCCA)
  2491  0907  dd77fc            	ld	(ix-4),a
  2492  090a  3e0f              	ld	a,0x0f
  2493  090c  d341              	out	(_IO_AYLATCH), a
  2494                          l_hcca_DiReadUInt32_00105:
  2495  090e  db40              	in	a, (_IO_AYDATA)
  2496  0910  cb4f              	bit	1, a
  2497  0912  20fa              	jr	NZ,l_hcca_DiReadUInt32_00105
  2498  0914  db80              	in	a, (_IO_HCCA)
  2499  0916  dd77fd            	ld	(ix-3),a
  2500  0919  3e0f              	ld	a,0x0f
  2501  091b  d341              	out	(_IO_AYLATCH), a
  2502                          l_hcca_DiReadUInt32_00109:
  2503  091d  db40              	in	a, (_IO_AYDATA)
  2504  091f  cb4f              	bit	1, a
  2505  0921  20fa              	jr	NZ,l_hcca_DiReadUInt32_00109
  2506  0923  db80              	in	a, (_IO_HCCA)
  2507  0925  dd77fe            	ld	(ix-2),a
  2508  0928  3e0f              	ld	a,0x0f
  2509  092a  d341              	out	(_IO_AYLATCH), a
  2510                          l_hcca_DiReadUInt32_00113:
  2511  092c  db40              	in	a, (_IO_AYDATA)
  2512  092e  cb4f              	bit	1, a
  2513  0930  20fa              	jr	NZ,l_hcca_DiReadUInt32_00113
  2514  0932  db80              	in	a, (_IO_HCCA)
  2515  0934  dd77ff            	ld	(ix-1),a
  2516  0937  e1                	pop	hl
  2517  0938  e5                	push	hl
  2518  0939  dd5efe            	ld	e,(ix-2)
  2519  093c  dd56ff            	ld	d,(ix-1)
  2520  093f  ddf9              	ld	sp, ix
  2521  0941  dde1              	pop	ix
  2522  0943  c9                	ret
  2523                          	SECTION code_compiler
  2524                          ;	---------------------------------
  2525                          ; Function hcca_DiReadInt32
  2526                          ; ---------------------------------
  2527                          _hcca_DiReadInt32:
  2528  0944  dde5              	push	ix
  2529  0946  dd210000          	ld	ix,0
  2530  094a  dd39              	add	ix,sp
  2531  094c  f5                	push	af
  2532  094d  f5                	push	af
  2533  094e  3e0f              	ld	a,0x0f
  2534  0950  d341              	out	(_IO_AYLATCH), a
  2535                          l_hcca_DiReadInt32_00101:
  2536  0952  db40              	in	a, (_IO_AYDATA)
  2537  0954  cb4f              	bit	1, a
  2538  0956  20fa              	jr	NZ,l_hcca_DiReadInt32_00101
  2539  0958  db80              	in	a, (_IO_HCCA)
  2540  095a  dd77fc            	ld	(ix-4),a
  2541  095d  3e0f              	ld	a,0x0f
  2542  095f  d341              	out	(_IO_AYLATCH), a
  2543                          l_hcca_DiReadInt32_00105:
  2544  0961  db40              	in	a, (_IO_AYDATA)
  2545  0963  cb4f              	bit	1, a
  2546  0965  20fa              	jr	NZ,l_hcca_DiReadInt32_00105
  2547  0967  db80              	in	a, (_IO_HCCA)
  2548  0969  dd77fd            	ld	(ix-3),a
  2549  096c  3e0f              	ld	a,0x0f
  2550  096e  d341              	out	(_IO_AYLATCH), a
  2551                          l_hcca_DiReadInt32_00109:
  2552  0970  db40              	in	a, (_IO_AYDATA)
  2553  0972  cb4f              	bit	1, a
  2554  0974  20fa              	jr	NZ,l_hcca_DiReadInt32_00109
  2555  0976  db80              	in	a, (_IO_HCCA)
  2556  0978  dd77fe            	ld	(ix-2),a
  2557  097b  3e0f              	ld	a,0x0f
  2558  097d  d341              	out	(_IO_AYLATCH), a
  2559                          l_hcca_DiReadInt32_00113:
  2560  097f  db40              	in	a, (_IO_AYDATA)
  2561  0981  cb4f              	bit	1, a
  2562  0983  20fa              	jr	NZ,l_hcca_DiReadInt32_00113
  2563  0985  db80              	in	a, (_IO_HCCA)
  2564  0987  dd77ff            	ld	(ix-1),a
  2565  098a  e1                	pop	hl
  2566  098b  e5                	push	hl
  2567  098c  dd5efe            	ld	e,(ix-2)
  2568  098f  dd56ff            	ld	d,(ix-1)
  2569  0992  ddf9              	ld	sp, ix
  2570  0994  dde1              	pop	ix
  2571  0996  c9                	ret
  2572                          	SECTION code_compiler
  2573                          ;	---------------------------------
  2574                          ; Function hcca_DiReadBytes
  2575                          ; ---------------------------------
  2576                          _hcca_DiReadBytes:
  2577  0997  dde5              	push	ix
  2578  0999  dd210000          	ld	ix,0
  2579  099d  dd39              	add	ix,sp
  2580  099f  dd7e08            	ld	a,(ix+8)
  2581  09a2  dd8604            	add	a,(ix+4)
  2582  09a5  4f                	ld	c, a
  2583  09a6  dd7e09            	ld	a,(ix+9)
  2584  09a9  dd8e05            	adc	a,(ix+5)
  2585  09ac  47                	ld	b, a
  2586  09ad  dd6e06            	ld	l,(ix+6)
  2587  09b0  dd6607            	ld	h,(ix+7)
  2588  09b3  09                	add	hl, bc
  2589  09b4  eb                	ex	de, hl
  2590  09b5  3e0f              	ld	a,0x0f
  2591  09b7  d341              	out	(_IO_AYLATCH), a
  2592                          l_hcca_DiReadBytes_00104:
  2593  09b9  69                	ld	l, c
  2594  09ba  60                	ld	h, b
  2595  09bb  bf                	cp	a, a
  2596  09bc  ed52              	sbc	hl, de
  2597  09be  280c              	jr	Z,l_hcca_DiReadBytes_00107
  2598                          l_hcca_DiReadBytes_00101:
  2599  09c0  db40              	in	a, (_IO_AYDATA)
  2600  09c2  cb4f              	bit	1, a
  2601  09c4  20fa              	jr	NZ,l_hcca_DiReadBytes_00101
  2602  09c6  db80              	in	a, (_IO_HCCA)
  2603  09c8  02                	ld	(bc), a
  2604  09c9  03                	inc	bc
  2605  09ca  18ed              	jr	l_hcca_DiReadBytes_00104
  2606                          l_hcca_DiReadBytes_00107:
  2607  09cc  dde1              	pop	ix
  2608  09ce  c9                	ret
  2609                          	SECTION code_compiler
  2610                          ;	---------------------------------
  2611                          ; Function rn_fileOpen
  2612                          ; ---------------------------------
  2613                          _rn_fileOpen:
  2614  09cf  cd8e07            	call	_hcca_DiFocusInterrupts
  2615  09d2  3ea3              	ld	a,0xa3
  2616  09d4  f5                	push	af
  2617  09d5  33                	inc	sp
  2618  09d6  cdb407            	call	_hcca_DiWriteByte
  2619  09d9  33                	inc	sp
  2620  09da  210200            	ld	hl,2+0
  2621  09dd  39                	add	hl, sp
  2622  09de  7e                	ld	a, (hl)
  2623  09df  f5                	push	af
  2624  09e0  33                	inc	sp
  2625  09e1  cdb407            	call	_hcca_DiWriteByte
  2626  09e4  33                	inc	sp
  2627  09e5  fd210200          	ld	iy,2
  2628  09e9  fd39              	add	iy, sp
  2629  09eb  fd4e00            	ld	c,(iy+0)
  2630  09ee  0600              	ld	b,0x00
  2631  09f0  fd23              	inc	iy
  2632  09f2  fd6e00            	ld	l,(iy+0)
  2633  09f5  fd6601            	ld	h,(iy+1)
  2634  09f8  e5                	push	hl
  2635  09f9  c5                	push	bc
  2636  09fa  210000            	ld	hl,0x0000
  2637  09fd  e5                	push	hl
  2638  09fe  cd7308            	call	_hcca_DiWriteBytes
  2639  0a01  210600            	ld	hl,6
  2640  0a04  39                	add	hl, sp
  2641  0a05  f9                	ld	sp, hl
  2642  0a06  210500            	ld	hl,5
  2643  0a09  39                	add	hl, sp
  2644  0a0a  4e                	ld	c, (hl)
  2645  0a0b  23                	inc	hl
  2646  0a0c  46                	ld	b, (hl)
  2647  0a0d  c5                	push	bc
  2648  0a0e  cd3008            	call	_hcca_DiWriteUInt16
  2649  0a11  f1                	pop	af
  2650  0a12  210700            	ld	hl,7+0
  2651  0a15  39                	add	hl, sp
  2652  0a16  7e                	ld	a, (hl)
  2653  0a17  f5                	push	af
  2654  0a18  33                	inc	sp
  2655  0a19  cdb407            	call	_hcca_DiWriteByte
  2656  0a1c  33                	inc	sp
  2657  0a1d  3e0f              	ld	a,0x0f
  2658  0a1f  d341              	out	(_IO_AYLATCH), a
  2659                          l_rn_fileOpen_00101:
  2660  0a21  db40              	in	a, (_IO_AYDATA)
  2661  0a23  cb4f              	bit	1, a
  2662  0a25  20fa              	jr	NZ,l_rn_fileOpen_00101
  2663  0a27  db80              	in	a, (_IO_HCCA)
  2664  0a29  6f                	ld	l, a
  2665  0a2a  e5                	push	hl
  2666  0a2b  cda607            	call	_hcca_DiRestoreInterrupts
  2667  0a2e  e1                	pop	hl
  2668  0a2f  c9                	ret
  2669                          	SECTION code_compiler
  2670                          ;	---------------------------------
  2671                          ; Function rn_fileHandleClose
  2672                          ; ---------------------------------
  2673                          _rn_fileHandleClose:
  2674  0a30  3ea7              	ld	a,0xa7
  2675  0a32  f5                	push	af
  2676  0a33  33                	inc	sp
  2677  0a34  cd8206            	call	_hcca_writeByte
  2678  0a37  33                	inc	sp
  2679  0a38  210200            	ld	hl,2+0
  2680  0a3b  39                	add	hl, sp
  2681  0a3c  7e                	ld	a, (hl)
  2682  0a3d  f5                	push	af
  2683  0a3e  33                	inc	sp
  2684  0a3f  cd8206            	call	_hcca_writeByte
  2685  0a42  33                	inc	sp
  2686  0a43  c9                	ret
  2687                          	SECTION code_compiler
  2688                          ;	---------------------------------
  2689                          ; Function rn_fileSize
  2690                          ; ---------------------------------
  2691                          _rn_fileSize:
  2692  0a44  dde5              	push	ix
  2693  0a46  dd210000          	ld	ix,0
  2694  0a4a  dd39              	add	ix,sp
  2695  0a4c  cd8e07            	call	_hcca_DiFocusInterrupts
  2696  0a4f  3ea8              	ld	a,0xa8
  2697  0a51  f5                	push	af
  2698  0a52  33                	inc	sp
  2699  0a53  cdb407            	call	_hcca_DiWriteByte
  2700  0a56  33                	inc	sp
  2701  0a57  dd7e04            	ld	a,(ix+4)
  2702  0a5a  f5                	push	af
  2703  0a5b  33                	inc	sp
  2704  0a5c  cdb407            	call	_hcca_DiWriteByte
  2705  0a5f  33                	inc	sp
  2706  0a60  dd4e04            	ld	c,(ix+4)
  2707  0a63  0600              	ld	b,0x00
  2708  0a65  dd6e05            	ld	l,(ix+5)
  2709  0a68  dd6606            	ld	h,(ix+6)
  2710  0a6b  e5                	push	hl
  2711  0a6c  c5                	push	bc
  2712  0a6d  210000            	ld	hl,0x0000
  2713  0a70  e5                	push	hl
  2714  0a71  cd7308            	call	_hcca_DiWriteBytes
  2715  0a74  210600            	ld	hl,6
  2716  0a77  39                	add	hl, sp
  2717  0a78  f9                	ld	sp, hl
  2718  0a79  cd4409            	call	_hcca_DiReadInt32
  2719  0a7c  e5                	push	hl
  2720  0a7d  d5                	push	de
  2721  0a7e  cda607            	call	_hcca_DiRestoreInterrupts
  2722  0a81  d1                	pop	de
  2723  0a82  e1                	pop	hl
  2724  0a83  dde1              	pop	ix
  2725  0a85  c9                	ret
  2726                          	SECTION code_compiler
  2727                          ;	---------------------------------
  2728                          ; Function rn_fileHandleSize
  2729                          ; ---------------------------------
  2730                          _rn_fileHandleSize:
  2731  0a86  dde5              	push	ix
  2732  0a88  dd210000          	ld	ix,0
  2733  0a8c  dd39              	add	ix,sp
  2734  0a8e  cd8e07            	call	_hcca_DiFocusInterrupts
  2735  0a91  3ea4              	ld	a,0xa4
  2736  0a93  f5                	push	af
  2737  0a94  33                	inc	sp
  2738  0a95  cdb407            	call	_hcca_DiWriteByte
  2739  0a98  33                	inc	sp
  2740  0a99  dd7e04            	ld	a,(ix+4)
  2741  0a9c  f5                	push	af
  2742  0a9d  33                	inc	sp
  2743  0a9e  cdb407            	call	_hcca_DiWriteByte
  2744  0aa1  33                	inc	sp
  2745  0aa2  cd4409            	call	_hcca_DiReadInt32
  2746  0aa5  e5                	push	hl
  2747  0aa6  d5                	push	de
  2748  0aa7  cda607            	call	_hcca_DiRestoreInterrupts
  2749  0aaa  d1                	pop	de
  2750  0aab  e1                	pop	hl
  2751  0aac  dde1              	pop	ix
  2752  0aae  c9                	ret
  2753                          	SECTION code_compiler
  2754                          ;	---------------------------------
  2755                          ; Function rn_fileHandleRead
  2756                          ; ---------------------------------
  2757                          _rn_fileHandleRead:
  2758  0aaf  dde5              	push	ix
  2759  0ab1  dd210000          	ld	ix,0
  2760  0ab5  dd39              	add	ix,sp
  2761  0ab7  cd8e07            	call	_hcca_DiFocusInterrupts
  2762  0aba  dd7e05            	ld	a,(ix+5)
  2763  0abd  dd8607            	add	a,(ix+7)
  2764  0ac0  6f                	ld	l, a
  2765  0ac1  dd7e06            	ld	a,(ix+6)
  2766  0ac4  dd8e08            	adc	a,(ix+8)
  2767  0ac7  67                	ld	h, a
  2768  0ac8  e5                	push	hl
  2769  0ac9  3ea5              	ld	a,0xa5
  2770  0acb  f5                	push	af
  2771  0acc  33                	inc	sp
  2772  0acd  cdb407            	call	_hcca_DiWriteByte
  2773  0ad0  33                	inc	sp
  2774  0ad1  dd7e04            	ld	a,(ix+4)
  2775  0ad4  f5                	push	af
  2776  0ad5  33                	inc	sp
  2777  0ad6  cdb407            	call	_hcca_DiWriteByte
  2778  0ad9  33                	inc	sp
  2779  0ada  dd5e0b            	ld	e,(ix+11)
  2780  0add  dd560c            	ld	d,(ix+12)
  2781  0ae0  d5                	push	de
  2782  0ae1  dd5e09            	ld	e,(ix+9)
  2783  0ae4  dd560a            	ld	d,(ix+10)
  2784  0ae7  d5                	push	de
  2785  0ae8  cdd607            	call	_hcca_DiWriteUInt32
  2786  0aeb  f1                	pop	af
  2787  0aec  f1                	pop	af
  2788  0aed  dd5e0d            	ld	e,(ix+13)
  2789  0af0  dd560e            	ld	d,(ix+14)
  2790  0af3  d5                	push	de
  2791  0af4  cd3008            	call	_hcca_DiWriteUInt16
  2792  0af7  f1                	pop	af
  2793  0af8  cda908            	call	_hcca_DiReadUInt16
  2794  0afb  eb                	ex	de, hl
  2795  0afc  e1                	pop	hl
  2796  0afd  7d                	ld	a, l
  2797  0afe  83                	add	a, e
  2798  0aff  4f                	ld	c, a
  2799  0b00  7c                	ld	a, h
  2800  0b01  8a                	adc	a, d
  2801  0b02  47                	ld	b, a
  2802                          l_rn_fileHandleRead_00104:
  2803  0b03  7d                	ld	a, l
  2804  0b04  91                	sub	a, c
  2805  0b05  2004              	jr	NZ,l_rn_fileHandleRead_00125
  2806  0b07  7c                	ld	a, h
  2807  0b08  90                	sub	a, b
  2808  0b09  280c              	jr	Z,l_rn_fileHandleRead_00106
  2809                          l_rn_fileHandleRead_00125:
  2810                          l_rn_fileHandleRead_00101:
  2811  0b0b  db40              	in	a, (_IO_AYDATA)
  2812  0b0d  cb4f              	bit	1, a
  2813  0b0f  20fa              	jr	NZ,l_rn_fileHandleRead_00101
  2814  0b11  db80              	in	a, (_IO_HCCA)
  2815  0b13  77                	ld	(hl), a
  2816  0b14  23                	inc	hl
  2817  0b15  18ec              	jr	l_rn_fileHandleRead_00104
  2818                          l_rn_fileHandleRead_00106:
  2819  0b17  d5                	push	de
  2820  0b18  cda607            	call	_hcca_DiRestoreInterrupts
  2821  0b1b  d1                	pop	de
  2822  0b1c  eb                	ex	de, hl
  2823  0b1d  dde1              	pop	ix
  2824  0b1f  c9                	ret
  2825                          	SECTION code_compiler
  2826                          ;	---------------------------------
  2827                          ; Function rn_fileHandleAppend
  2828                          ; ---------------------------------
  2829                          _rn_fileHandleAppend:
  2830  0b20  3ea9              	ld	a,0xa9
  2831  0b22  f5                	push	af
  2832  0b23  33                	inc	sp
  2833  0b24  cd8206            	call	_hcca_writeByte
  2834  0b27  33                	inc	sp
  2835  0b28  210200            	ld	hl,2+0
  2836  0b2b  39                	add	hl, sp
  2837  0b2c  7e                	ld	a, (hl)
  2838  0b2d  f5                	push	af
  2839  0b2e  33                	inc	sp
  2840  0b2f  cd8206            	call	_hcca_writeByte
  2841  0b32  33                	inc	sp
  2842  0b33  210500            	ld	hl,5
  2843  0b36  39                	add	hl, sp
  2844  0b37  4e                	ld	c, (hl)
  2845  0b38  23                	inc	hl
  2846  0b39  46                	ld	b, (hl)
  2847  0b3a  c5                	push	bc
  2848  0b3b  cd1007            	call	_hcca_writeUInt16
  2849  0b3e  f1                	pop	af
  2850  0b3f  fd210700          	ld	iy,7
  2851  0b43  fd39              	add	iy, sp
  2852  0b45  fd6e00            	ld	l,(iy+0)
  2853  0b48  fd6601            	ld	h,(iy+1)
  2854  0b4b  e5                	push	hl
  2855  0b4c  fd2b              	dec	iy
  2856  0b4e  fd2b              	dec	iy
  2857  0b50  fd6e00            	ld	l,(iy+0)
  2858  0b53  fd6601            	ld	h,(iy+1)
  2859  0b56  e5                	push	hl
  2860  0b57  fd2b              	dec	iy
  2861  0b59  fd2b              	dec	iy
  2862  0b5b  fd6e00            	ld	l,(iy+0)
  2863  0b5e  fd6601            	ld	h,(iy+1)
  2864  0b61  e5                	push	hl
  2865  0b62  cd5807            	call	_hcca_writeBytes
  2866  0b65  210600            	ld	hl,6
  2867  0b68  39                	add	hl, sp
  2868  0b69  f9                	ld	sp, hl
  2869  0b6a  c9                	ret
  2870                          	SECTION code_compiler
  2871                          ;	---------------------------------
  2872                          ; Function rn_fileHandleInsert
  2873                          ; ---------------------------------
  2874                          _rn_fileHandleInsert:
  2875  0b6b  dde5              	push	ix
  2876  0b6d  dd210000          	ld	ix,0
  2877  0b71  dd39              	add	ix,sp
  2878  0b73  3eaa              	ld	a,0xaa
  2879  0b75  f5                	push	af
  2880  0b76  33                	inc	sp
  2881  0b77  cd8206            	call	_hcca_writeByte
  2882  0b7a  33                	inc	sp
  2883  0b7b  dd7e04            	ld	a,(ix+4)
  2884  0b7e  f5                	push	af
  2885  0b7f  33                	inc	sp
  2886  0b80  cd8206            	call	_hcca_writeByte
  2887  0b83  33                	inc	sp
  2888  0b84  dd6e07            	ld	l,(ix+7)
  2889  0b87  dd6608            	ld	h,(ix+8)
  2890  0b8a  e5                	push	hl
  2891  0b8b  dd6e05            	ld	l,(ix+5)
  2892  0b8e  dd6606            	ld	h,(ix+6)
  2893  0b91  e5                	push	hl
  2894  0b92  cdb606            	call	_hcca_writeUInt32
  2895  0b95  f1                	pop	af
  2896  0b96  f1                	pop	af
  2897  0b97  dd6e0b            	ld	l,(ix+11)
  2898  0b9a  dd660c            	ld	h,(ix+12)
  2899  0b9d  e5                	push	hl
  2900  0b9e  cd1007            	call	_hcca_writeUInt16
  2901  0ba1  f1                	pop	af
  2902  0ba2  dd6e0d            	ld	l,(ix+13)
  2903  0ba5  dd660e            	ld	h,(ix+14)
  2904  0ba8  e5                	push	hl
  2905  0ba9  dd6e0b            	ld	l,(ix+11)
  2906  0bac  dd660c            	ld	h,(ix+12)
  2907  0baf  e5                	push	hl
  2908  0bb0  dd6e09            	ld	l,(ix+9)
  2909  0bb3  dd660a            	ld	h,(ix+10)
  2910  0bb6  e5                	push	hl
  2911  0bb7  cd5807            	call	_hcca_writeBytes
  2912  0bba  210600            	ld	hl,6
  2913  0bbd  39                	add	hl, sp
  2914  0bbe  f9                	ld	sp, hl
  2915  0bbf  dde1              	pop	ix
  2916  0bc1  c9                	ret
  2917                          	SECTION code_compiler
  2918                          ;	---------------------------------
  2919                          ; Function rn_fileHandleDeleteRange
  2920                          ; ---------------------------------
  2921                          _rn_fileHandleDeleteRange:
  2922  0bc2  3eab              	ld	a,0xab
  2923  0bc4  f5                	push	af
  2924  0bc5  33                	inc	sp
  2925  0bc6  cd8206            	call	_hcca_writeByte
  2926  0bc9  33                	inc	sp
  2927  0bca  210200            	ld	hl,2+0
  2928  0bcd  39                	add	hl, sp
  2929  0bce  7e                	ld	a, (hl)
  2930  0bcf  f5                	push	af
  2931  0bd0  33                	inc	sp
  2932  0bd1  cd8206            	call	_hcca_writeByte
  2933  0bd4  33                	inc	sp
  2934  0bd5  fd210300          	ld	iy,3
  2935  0bd9  fd39              	add	iy, sp
  2936  0bdb  fd6e02            	ld	l,(iy+2)
  2937  0bde  fd6603            	ld	h,(iy+3)
  2938  0be1  e5                	push	hl
  2939  0be2  fd6e00            	ld	l,(iy+0)
  2940  0be5  fd6601            	ld	h,(iy+1)
  2941  0be8  e5                	push	hl
  2942  0be9  cdb606            	call	_hcca_writeUInt32
  2943  0bec  f1                	pop	af
  2944  0bed  f1                	pop	af
  2945  0bee  210700            	ld	hl,7
  2946  0bf1  39                	add	hl, sp
  2947  0bf2  4e                	ld	c, (hl)
  2948  0bf3  23                	inc	hl
  2949  0bf4  46                	ld	b, (hl)
  2950  0bf5  c5                	push	bc
  2951  0bf6  cd1007            	call	_hcca_writeUInt16
  2952  0bf9  f1                	pop	af
  2953  0bfa  c9                	ret
  2954                          	SECTION code_compiler
  2955                          ;	---------------------------------
  2956                          ; Function rn_fileHandleEmptyFile
  2957                          ; ---------------------------------
  2958                          _rn_fileHandleEmptyFile:
  2959  0bfb  3eb0              	ld	a,0xb0
  2960  0bfd  f5                	push	af
  2961  0bfe  33                	inc	sp
  2962  0bff  cd8206            	call	_hcca_writeByte
  2963  0c02  33                	inc	sp
  2964  0c03  210200            	ld	hl,2+0
  2965  0c06  39                	add	hl, sp
  2966  0c07  7e                	ld	a, (hl)
  2967  0c08  f5                	push	af
  2968  0c09  33                	inc	sp
  2969  0c0a  cd8206            	call	_hcca_writeByte
  2970  0c0d  33                	inc	sp
  2971  0c0e  c9                	ret
  2972                          	SECTION code_compiler
  2973                          ;	---------------------------------
  2974                          ; Function rn_fileHandleReplace
  2975                          ; ---------------------------------
  2976                          _rn_fileHandleReplace:
  2977  0c0f  dde5              	push	ix
  2978  0c11  dd210000          	ld	ix,0
  2979  0c15  dd39              	add	ix,sp
  2980  0c17  3eac              	ld	a,0xac
  2981  0c19  f5                	push	af
  2982  0c1a  33                	inc	sp
  2983  0c1b  cd8206            	call	_hcca_writeByte
  2984  0c1e  33                	inc	sp
  2985  0c1f  dd7e04            	ld	a,(ix+4)
  2986  0c22  f5                	push	af
  2987  0c23  33                	inc	sp
  2988  0c24  cd8206            	call	_hcca_writeByte
  2989  0c27  33                	inc	sp
  2990  0c28  dd6e07            	ld	l,(ix+7)
  2991  0c2b  dd6608            	ld	h,(ix+8)
  2992  0c2e  e5                	push	hl
  2993  0c2f  dd6e05            	ld	l,(ix+5)
  2994  0c32  dd6606            	ld	h,(ix+6)
  2995  0c35  e5                	push	hl
  2996  0c36  cdb606            	call	_hcca_writeUInt32
  2997  0c39  f1                	pop	af
  2998  0c3a  f1                	pop	af
  2999  0c3b  dd6e0b            	ld	l,(ix+11)
  3000  0c3e  dd660c            	ld	h,(ix+12)
  3001  0c41  e5                	push	hl
  3002  0c42  cd1007            	call	_hcca_writeUInt16
  3003  0c45  f1                	pop	af
  3004  0c46  dd6e0d            	ld	l,(ix+13)
  3005  0c49  dd660e            	ld	h,(ix+14)
  3006  0c4c  e5                	push	hl
  3007  0c4d  dd6e0b            	ld	l,(ix+11)
  3008  0c50  dd660c            	ld	h,(ix+12)
  3009  0c53  e5                	push	hl
  3010  0c54  dd6e09            	ld	l,(ix+9)
  3011  0c57  dd660a            	ld	h,(ix+10)
  3012  0c5a  e5                	push	hl
  3013  0c5b  cd5807            	call	_hcca_writeBytes
  3014  0c5e  210600            	ld	hl,6
  3015  0c61  39                	add	hl, sp
  3016  0c62  f9                	ld	sp, hl
  3017  0c63  dde1              	pop	ix
  3018  0c65  c9                	ret
  3019                          	SECTION code_compiler
  3020                          ;	---------------------------------
  3021                          ; Function rn_fileDelete
  3022                          ; ---------------------------------
  3023                          _rn_fileDelete:
  3024  0c66  3ead              	ld	a,0xad
  3025  0c68  f5                	push	af
  3026  0c69  33                	inc	sp
  3027  0c6a  cd8206            	call	_hcca_writeByte
  3028  0c6d  33                	inc	sp
  3029  0c6e  210200            	ld	hl,2+0
  3030  0c71  39                	add	hl, sp
  3031  0c72  7e                	ld	a, (hl)
  3032  0c73  f5                	push	af
  3033  0c74  33                	inc	sp
  3034  0c75  cd8206            	call	_hcca_writeByte
  3035  0c78  33                	inc	sp
  3036  0c79  fd210200          	ld	iy,2
  3037  0c7d  fd39              	add	iy, sp
  3038  0c7f  fd4e00            	ld	c,(iy+0)
  3039  0c82  0600              	ld	b,0x00
  3040  0c84  fd23              	inc	iy
  3041  0c86  fd6e00            	ld	l,(iy+0)
  3042  0c89  fd6601            	ld	h,(iy+1)
  3043  0c8c  e5                	push	hl
  3044  0c8d  c5                	push	bc
  3045  0c8e  210000            	ld	hl,0x0000
  3046  0c91  e5                	push	hl
  3047  0c92  cd5807            	call	_hcca_writeBytes
  3048  0c95  210600            	ld	hl,6
  3049  0c98  39                	add	hl, sp
  3050  0c99  f9                	ld	sp, hl
  3051  0c9a  c9                	ret
  3052                          	SECTION code_compiler
  3053                          ;	---------------------------------
  3054                          ; Function rn_fileHandleCopy
  3055                          ; ---------------------------------
  3056                          _rn_fileHandleCopy:
  3057  0c9b  dde5              	push	ix
  3058  0c9d  dd210000          	ld	ix,0
  3059  0ca1  dd39              	add	ix,sp
  3060  0ca3  3eae              	ld	a,0xae
  3061  0ca5  f5                	push	af
  3062  0ca6  33                	inc	sp
  3063  0ca7  cd8206            	call	_hcca_writeByte
  3064  0caa  33                	inc	sp
  3065  0cab  dd7e04            	ld	a,(ix+4)
  3066  0cae  f5                	push	af
  3067  0caf  33                	inc	sp
  3068  0cb0  cd8206            	call	_hcca_writeByte
  3069  0cb3  33                	inc	sp
  3070  0cb4  dd4e04            	ld	c,(ix+4)
  3071  0cb7  0600              	ld	b,0x00
  3072  0cb9  dd6e05            	ld	l,(ix+5)
  3073  0cbc  dd6606            	ld	h,(ix+6)
  3074  0cbf  e5                	push	hl
  3075  0cc0  c5                	push	bc
  3076  0cc1  210000            	ld	hl,0x0000
  3077  0cc4  e5                	push	hl
  3078  0cc5  cd5807            	call	_hcca_writeBytes
  3079  0cc8  210600            	ld	hl,6
  3080  0ccb  39                	add	hl, sp
  3081  0ccc  f9                	ld	sp, hl
  3082  0ccd  dd7e07            	ld	a,(ix+7)
  3083  0cd0  f5                	push	af
  3084  0cd1  33                	inc	sp
  3085  0cd2  cd8206            	call	_hcca_writeByte
  3086  0cd5  33                	inc	sp
  3087  0cd6  dd4e07            	ld	c,(ix+7)
  3088  0cd9  0600              	ld	b,0x00
  3089  0cdb  dd6e08            	ld	l,(ix+8)
  3090  0cde  dd6609            	ld	h,(ix+9)
  3091  0ce1  e5                	push	hl
  3092  0ce2  c5                	push	bc
  3093  0ce3  210000            	ld	hl,0x0000
  3094  0ce6  e5                	push	hl
  3095  0ce7  cd5807            	call	_hcca_writeBytes
  3096  0cea  210600            	ld	hl,6
  3097  0ced  39                	add	hl, sp
  3098  0cee  f9                	ld	sp, hl
  3099  0cef  dd7e0a            	ld	a,(ix+10)
  3100  0cf2  f5                	push	af
  3101  0cf3  33                	inc	sp
  3102  0cf4  cd8206            	call	_hcca_writeByte
  3103  0cf7  33                	inc	sp
  3104  0cf8  dde1              	pop	ix
  3105  0cfa  c9                	ret
  3106                          	SECTION code_compiler
  3107                          ;	---------------------------------
  3108                          ; Function rn_fileHandleMove
  3109                          ; ---------------------------------
  3110                          _rn_fileHandleMove:
  3111  0cfb  dde5              	push	ix
  3112  0cfd  dd210000          	ld	ix,0
  3113  0d01  dd39              	add	ix,sp
  3114  0d03  3eaf              	ld	a,0xaf
  3115  0d05  f5                	push	af
  3116  0d06  33                	inc	sp
  3117  0d07  cd8206            	call	_hcca_writeByte
  3118  0d0a  33                	inc	sp
  3119  0d0b  dd7e04            	ld	a,(ix+4)
  3120  0d0e  f5                	push	af
  3121  0d0f  33                	inc	sp
  3122  0d10  cd8206            	call	_hcca_writeByte
  3123  0d13  33                	inc	sp
  3124  0d14  dd4e04            	ld	c,(ix+4)
  3125  0d17  0600              	ld	b,0x00
  3126  0d19  dd6e05            	ld	l,(ix+5)
  3127  0d1c  dd6606            	ld	h,(ix+6)
  3128  0d1f  e5                	push	hl
  3129  0d20  c5                	push	bc
  3130  0d21  210000            	ld	hl,0x0000
  3131  0d24  e5                	push	hl
  3132  0d25  cd5807            	call	_hcca_writeBytes
  3133  0d28  210600            	ld	hl,6
  3134  0d2b  39                	add	hl, sp
  3135  0d2c  f9                	ld	sp, hl
  3136  0d2d  dd7e07            	ld	a,(ix+7)
  3137  0d30  f5                	push	af
  3138  0d31  33                	inc	sp
  3139  0d32  cd8206            	call	_hcca_writeByte
  3140  0d35  33                	inc	sp
  3141  0d36  dd4e07            	ld	c,(ix+7)
  3142  0d39  0600              	ld	b,0x00
  3143  0d3b  dd6e08            	ld	l,(ix+8)
  3144  0d3e  dd6609            	ld	h,(ix+9)
  3145  0d41  e5                	push	hl
  3146  0d42  c5                	push	bc
  3147  0d43  210000            	ld	hl,0x0000
  3148  0d46  e5                	push	hl
  3149  0d47  cd5807            	call	_hcca_writeBytes
  3150  0d4a  210600            	ld	hl,6
  3151  0d4d  39                	add	hl, sp
  3152  0d4e  f9                	ld	sp, hl
  3153  0d4f  dd7e0a            	ld	a,(ix+10)
  3154  0d52  f5                	push	af
  3155  0d53  33                	inc	sp
  3156  0d54  cd8206            	call	_hcca_writeByte
  3157  0d57  33                	inc	sp
  3158  0d58  dde1              	pop	ix
  3159  0d5a  c9                	ret
  3160                          	SECTION code_compiler
  3161                          ;	---------------------------------
  3162                          ; Function rn_fileList
  3163                          ; ---------------------------------
  3164                          _rn_fileList:
  3165  0d5b  dde5              	push	ix
  3166  0d5d  dd210000          	ld	ix,0
  3167  0d61  dd39              	add	ix,sp
  3168  0d63  cd8e07            	call	_hcca_DiFocusInterrupts
  3169  0d66  3eb1              	ld	a,0xb1
  3170  0d68  f5                	push	af
  3171  0d69  33                	inc	sp
  3172  0d6a  cdb407            	call	_hcca_DiWriteByte
  3173  0d6d  33                	inc	sp
  3174  0d6e  dd7e04            	ld	a,(ix+4)
  3175  0d71  f5                	push	af
  3176  0d72  33                	inc	sp
  3177  0d73  cdb407            	call	_hcca_DiWriteByte
  3178  0d76  33                	inc	sp
  3179  0d77  dd4e04            	ld	c,(ix+4)
  3180  0d7a  0600              	ld	b,0x00
  3181  0d7c  dd6e05            	ld	l,(ix+5)
  3182  0d7f  dd6606            	ld	h,(ix+6)
  3183  0d82  e5                	push	hl
  3184  0d83  c5                	push	bc
  3185  0d84  210000            	ld	hl,0x0000
  3186  0d87  e5                	push	hl
  3187  0d88  cd7308            	call	_hcca_DiWriteBytes
  3188  0d8b  210600            	ld	hl,6
  3189  0d8e  39                	add	hl, sp
  3190  0d8f  f9                	ld	sp, hl
  3191  0d90  dd7e07            	ld	a,(ix+7)
  3192  0d93  f5                	push	af
  3193  0d94  33                	inc	sp
  3194  0d95  cdb407            	call	_hcca_DiWriteByte
  3195  0d98  33                	inc	sp
  3196  0d99  dd4e07            	ld	c,(ix+7)
  3197  0d9c  0600              	ld	b,0x00
  3198  0d9e  dd6e08            	ld	l,(ix+8)
  3199  0da1  dd6609            	ld	h,(ix+9)
  3200  0da4  e5                	push	hl
  3201  0da5  c5                	push	bc
  3202  0da6  210000            	ld	hl,0x0000
  3203  0da9  e5                	push	hl
  3204  0daa  cd7308            	call	_hcca_DiWriteBytes
  3205  0dad  210600            	ld	hl,6
  3206  0db0  39                	add	hl, sp
  3207  0db1  f9                	ld	sp, hl
  3208  0db2  dd7e0a            	ld	a,(ix+10)
  3209  0db5  f5                	push	af
  3210  0db6  33                	inc	sp
  3211  0db7  cdb407            	call	_hcca_DiWriteByte
  3212  0dba  33                	inc	sp
  3213  0dbb  cda908            	call	_hcca_DiReadUInt16
  3214  0dbe  e5                	push	hl
  3215  0dbf  cda607            	call	_hcca_DiRestoreInterrupts
  3216  0dc2  e1                	pop	hl
  3217  0dc3  dde1              	pop	ix
  3218  0dc5  c9                	ret
  3219                          	SECTION code_compiler
  3220                          ;	---------------------------------
  3221                          ; Function rn_fileListItem
  3222                          ; ---------------------------------
  3223                          _rn_fileListItem:
  3224  0dc6  dde5              	push	ix
  3225  0dc8  dd210000          	ld	ix,0
  3226  0dcc  dd39              	add	ix,sp
  3227  0dce  f5                	push	af
  3228  0dcf  f5                	push	af
  3229  0dd0  cd8e07            	call	_hcca_DiFocusInterrupts
  3230  0dd3  3eb2              	ld	a,0xb2
  3231  0dd5  f5                	push	af
  3232  0dd6  33                	inc	sp
  3233  0dd7  cdb407            	call	_hcca_DiWriteByte
  3234  0dda  33                	inc	sp
  3235  0ddb  dd6e04            	ld	l,(ix+4)
  3236  0dde  dd6605            	ld	h,(ix+5)
  3237  0de1  e5                	push	hl
  3238  0de2  cd3008            	call	_hcca_DiWriteUInt16
  3239  0de5  f1                	pop	af
  3240  0de6  dd5e06            	ld	e,(ix+6)
  3241  0de9  dd5607            	ld	d,(ix+7)
  3242  0dec  d5                	push	de
  3243  0ded  cd4409            	call	_hcca_DiReadInt32
  3244  0df0  dd75fc            	ld	(ix-4),l
  3245  0df3  dd74fd            	ld	(ix-3),h
  3246  0df6  dd73fe            	ld	(ix-2),e
  3247  0df9  dd72ff            	ld	(ix-1),d
  3248  0dfc  d1                	pop	de
  3249  0dfd  d5                	push	de
  3250  0dfe  210200            	ld	hl,2
  3251  0e01  39                	add	hl, sp
  3252  0e02  010400            	ld	bc,0x0004
  3253  0e05  edb0              	ldir
  3254  0e07  d1                	pop	de
  3255  0e08  210400            	ld	hl,0x0004
  3256  0e0b  19                	add	hl, de
  3257  0e0c  e5                	push	hl
  3258  0e0d  d5                	push	de
  3259  0e0e  cda908            	call	_hcca_DiReadUInt16
  3260  0e11  4d                	ld	c, l
  3261  0e12  44                	ld	b, h
  3262  0e13  d1                	pop	de
  3263  0e14  e1                	pop	hl
  3264  0e15  71                	ld	(hl), c
  3265  0e16  23                	inc	hl
  3266  0e17  70                	ld	(hl), b
  3267  0e18  210600            	ld	hl,0x0006
  3268  0e1b  19                	add	hl, de
  3269  0e1c  3e0f              	ld	a,0x0f
  3270  0e1e  d341              	out	(_IO_AYLATCH), a
  3271                          l_rn_fileListItem_00101:
  3272  0e20  db40              	in	a, (_IO_AYDATA)
  3273  0e22  cb4f              	bit	1, a
  3274  0e24  20fa              	jr	NZ,l_rn_fileListItem_00101
  3275  0e26  db80              	in	a, (_IO_HCCA)
  3276  0e28  77                	ld	(hl), a
  3277  0e29  210700            	ld	hl,0x0007
  3278  0e2c  19                	add	hl, de
  3279  0e2d  3e0f              	ld	a,0x0f
  3280  0e2f  d341              	out	(_IO_AYLATCH), a
  3281                          l_rn_fileListItem_00105:
  3282  0e31  db40              	in	a, (_IO_AYDATA)
  3283  0e33  cb4f              	bit	1, a
  3284  0e35  20fa              	jr	NZ,l_rn_fileListItem_00105
  3285  0e37  db80              	in	a, (_IO_HCCA)
  3286  0e39  77                	ld	(hl), a
  3287  0e3a  210800            	ld	hl,0x0008
  3288  0e3d  19                	add	hl, de
  3289  0e3e  3e0f              	ld	a,0x0f
  3290  0e40  d341              	out	(_IO_AYLATCH), a
  3291                          l_rn_fileListItem_00109:
  3292  0e42  db40              	in	a, (_IO_AYDATA)
  3293  0e44  cb4f              	bit	1, a
  3294  0e46  20fa              	jr	NZ,l_rn_fileListItem_00109
  3295  0e48  db80              	in	a, (_IO_HCCA)
  3296  0e4a  77                	ld	(hl), a
  3297  0e4b  210900            	ld	hl,0x0009
  3298  0e4e  19                	add	hl, de
  3299  0e4f  3e0f              	ld	a,0x0f
  3300  0e51  d341              	out	(_IO_AYLATCH), a
  3301                          l_rn_fileListItem_00113:
  3302  0e53  db40              	in	a, (_IO_AYDATA)
  3303  0e55  cb4f              	bit	1, a
  3304  0e57  20fa              	jr	NZ,l_rn_fileListItem_00113
  3305  0e59  db80              	in	a, (_IO_HCCA)
  3306  0e5b  77                	ld	(hl), a
  3307  0e5c  210a00            	ld	hl,0x000a
  3308  0e5f  19                	add	hl, de
  3309  0e60  3e0f              	ld	a,0x0f
  3310  0e62  d341              	out	(_IO_AYLATCH), a
  3311                          l_rn_fileListItem_00117:
  3312  0e64  db40              	in	a, (_IO_AYDATA)
  3313  0e66  cb4f              	bit	1, a
  3314  0e68  20fa              	jr	NZ,l_rn_fileListItem_00117
  3315  0e6a  db80              	in	a, (_IO_HCCA)
  3316  0e6c  77                	ld	(hl), a
  3317  0e6d  210b00            	ld	hl,0x000b
  3318  0e70  19                	add	hl, de
  3319  0e71  e5                	push	hl
  3320  0e72  d5                	push	de
  3321  0e73  cda908            	call	_hcca_DiReadUInt16
  3322  0e76  4d                	ld	c, l
  3323  0e77  44                	ld	b, h
  3324  0e78  d1                	pop	de
  3325  0e79  e1                	pop	hl
  3326  0e7a  71                	ld	(hl), c
  3327  0e7b  23                	inc	hl
  3328  0e7c  70                	ld	(hl), b
  3329  0e7d  210d00            	ld	hl,0x000d
  3330  0e80  19                	add	hl, de
  3331  0e81  3e0f              	ld	a,0x0f
  3332  0e83  d341              	out	(_IO_AYLATCH), a
  3333                          l_rn_fileListItem_00121:
  3334  0e85  db40              	in	a, (_IO_AYDATA)
  3335  0e87  cb4f              	bit	1, a
  3336  0e89  20fa              	jr	NZ,l_rn_fileListItem_00121
  3337  0e8b  db80              	in	a, (_IO_HCCA)
  3338  0e8d  77                	ld	(hl), a
  3339  0e8e  210e00            	ld	hl,0x000e
  3340  0e91  19                	add	hl, de
  3341  0e92  3e0f              	ld	a,0x0f
  3342  0e94  d341              	out	(_IO_AYLATCH), a
  3343                          l_rn_fileListItem_00125:
  3344  0e96  db40              	in	a, (_IO_AYDATA)
  3345  0e98  cb4f              	bit	1, a
  3346  0e9a  20fa              	jr	NZ,l_rn_fileListItem_00125
  3347  0e9c  db80              	in	a, (_IO_HCCA)
  3348  0e9e  77                	ld	(hl), a
  3349  0e9f  210f00            	ld	hl,0x000f
  3350  0ea2  19                	add	hl, de
  3351  0ea3  3e0f              	ld	a,0x0f
  3352  0ea5  d341              	out	(_IO_AYLATCH), a
  3353                          l_rn_fileListItem_00129:
  3354  0ea7  db40              	in	a, (_IO_AYDATA)
  3355  0ea9  cb4f              	bit	1, a
  3356  0eab  20fa              	jr	NZ,l_rn_fileListItem_00129
  3357  0ead  db80              	in	a, (_IO_HCCA)
  3358  0eaf  77                	ld	(hl), a
  3359  0eb0  211000            	ld	hl,0x0010
  3360  0eb3  19                	add	hl, de
  3361  0eb4  3e0f              	ld	a,0x0f
  3362  0eb6  d341              	out	(_IO_AYLATCH), a
  3363                          l_rn_fileListItem_00133:
  3364  0eb8  db40              	in	a, (_IO_AYDATA)
  3365  0eba  cb4f              	bit	1, a
  3366  0ebc  20fa              	jr	NZ,l_rn_fileListItem_00133
  3367  0ebe  db80              	in	a, (_IO_HCCA)
  3368  0ec0  77                	ld	(hl), a
  3369  0ec1  211100            	ld	hl,0x0011
  3370  0ec4  19                	add	hl, de
  3371  0ec5  3e0f              	ld	a,0x0f
  3372  0ec7  d341              	out	(_IO_AYLATCH), a
  3373                          l_rn_fileListItem_00137:
  3374  0ec9  db40              	in	a, (_IO_AYDATA)
  3375  0ecb  cb4f              	bit	1, a
  3376  0ecd  20fa              	jr	NZ,l_rn_fileListItem_00137
  3377  0ecf  db80              	in	a, (_IO_HCCA)
  3378  0ed1  77                	ld	(hl), a
  3379  0ed2  211200            	ld	hl,0x0012
  3380  0ed5  19                	add	hl, de
  3381  0ed6  3e0f              	ld	a,0x0f
  3382  0ed8  d341              	out	(_IO_AYLATCH), a
  3383                          l_rn_fileListItem_00141:
  3384  0eda  db40              	in	a, (_IO_AYDATA)
  3385  0edc  cb4f              	bit	1, a
  3386  0ede  20fa              	jr	NZ,l_rn_fileListItem_00141
  3387  0ee0  db80              	in	a, (_IO_HCCA)
  3388  0ee2  77                	ld	(hl), a
  3389  0ee3  211300            	ld	hl,0x0013
  3390  0ee6  19                	add	hl, de
  3391  0ee7  d5                	push	de
  3392  0ee8  e5                	push	hl
  3393  0ee9  214000            	ld	hl,0x0040
  3394  0eec  e5                	push	hl
  3395  0eed  6c                	ld	l, h
  3396  0eee  e5                	push	hl
  3397  0eef  cd9709            	call	_hcca_DiReadBytes
  3398  0ef2  210600            	ld	hl,6
  3399  0ef5  39                	add	hl, sp
  3400  0ef6  f9                	ld	sp, hl
  3401  0ef7  d1                	pop	de
  3402  0ef8  215300            	ld	hl,0x0053
  3403  0efb  19                	add	hl, de
  3404  0efc  d5                	push	de
  3405  0efd  e5                	push	hl
  3406  0efe  210400            	ld	hl,4
  3407  0f01  39                	add	hl, sp
  3408  0f02  eb                	ex	de, hl
  3409  0f03  010400            	ld	bc,0x0004
  3410  0f06  edb0              	ldir
  3411  0f08  c1                	pop	bc
  3412  0f09  d1                	pop	de
  3413  0f0a  dd7eff            	ld	a,(ix-1)
  3414  0f0d  07                	rlca
  3415  0f0e  e601              	and	a,0x01
  3416  0f10  ee01              	xor	a,0x01
  3417  0f12  02                	ld	(bc), a
  3418  0f13  215400            	ld	hl,0x0054
  3419  0f16  19                	add	hl, de
  3420  0f17  4d                	ld	c, l
  3421  0f18  44                	ld	b, h
  3422  0f19  eb                	ex	de,hl
  3423  0f1a  5e                	ld	e, (hl)
  3424  0f1b  23                	inc	hl
  3425  0f1c  56                	ld	d, (hl)
  3426  0f1d  23                	inc	hl
  3427  0f1e  23                	inc	hl
  3428  0f1f  7e                	ld	a, (hl)
  3429  0f20  2b                	dec	hl
  3430  0f21  6e                	ld	l, (hl)
  3431  0f22  67                	ld	h, a
  3432  0f23  7b                	ld	a, e
  3433  0f24  d6fe              	sub	a,0xfe
  3434  0f26  200a              	jr	NZ,l_rn_fileListItem_00279
  3435  0f28  7a                	ld	a, d
  3436  0f29  a5                	and	a, l
  3437  0f2a  a4                	and	a, h
  3438  0f2b  3c                	inc	a
  3439  0f2c  2004              	jr	NZ,l_rn_fileListItem_00279
  3440  0f2e  3e01              	ld	a,0x01
  3441  0f30  1801              	jr	l_rn_fileListItem_00280
  3442                          l_rn_fileListItem_00279:
  3443  0f32  af                	xor	a,a
  3444                          l_rn_fileListItem_00280:
  3445  0f33  ee01              	xor	a,0x01
  3446  0f35  02                	ld	(bc), a
  3447  0f36  cda607            	call	_hcca_DiRestoreInterrupts
  3448  0f39  ddf9              	ld	sp, ix
  3449  0f3b  dde1              	pop	ix
  3450  0f3d  c9                	ret
  3451                          	SECTION code_compiler
  3452                          ;	---------------------------------
  3453                          ; Function rn_fileDetails
  3454                          ; ---------------------------------
  3455                          _rn_fileDetails:
  3456  0f3e  dde5              	push	ix
  3457  0f40  dd210000          	ld	ix,0
  3458  0f44  dd39              	add	ix,sp
  3459  0f46  f5                	push	af
  3460  0f47  f5                	push	af
  3461  0f48  cd8e07            	call	_hcca_DiFocusInterrupts
  3462  0f4b  3eb3              	ld	a,0xb3
  3463  0f4d  f5                	push	af
  3464  0f4e  33                	inc	sp
  3465  0f4f  cdb407            	call	_hcca_DiWriteByte
  3466  0f52  33                	inc	sp
  3467  0f53  dd7e04            	ld	a,(ix+4)
  3468  0f56  f5                	push	af
  3469  0f57  33                	inc	sp
  3470  0f58  cdb407            	call	_hcca_DiWriteByte
  3471  0f5b  33                	inc	sp
  3472  0f5c  dd4e04            	ld	c,(ix+4)
  3473  0f5f  0600              	ld	b,0x00
  3474  0f61  dd6e05            	ld	l,(ix+5)
  3475  0f64  dd6606            	ld	h,(ix+6)
  3476  0f67  e5                	push	hl
  3477  0f68  c5                	push	bc
  3478  0f69  210000            	ld	hl,0x0000
  3479  0f6c  e5                	push	hl
  3480  0f6d  cd7308            	call	_hcca_DiWriteBytes
  3481  0f70  210600            	ld	hl,6
  3482  0f73  39                	add	hl, sp
  3483  0f74  f9                	ld	sp, hl
  3484  0f75  dd5e07            	ld	e,(ix+7)
  3485  0f78  dd5608            	ld	d,(ix+8)
  3486  0f7b  d5                	push	de
  3487  0f7c  cd4409            	call	_hcca_DiReadInt32
  3488  0f7f  dd75fc            	ld	(ix-4),l
  3489  0f82  dd74fd            	ld	(ix-3),h
  3490  0f85  dd73fe            	ld	(ix-2),e
  3491  0f88  dd72ff            	ld	(ix-1),d
  3492  0f8b  d1                	pop	de
  3493  0f8c  d5                	push	de
  3494  0f8d  210200            	ld	hl,2
  3495  0f90  39                	add	hl, sp
  3496  0f91  010400            	ld	bc,0x0004
  3497  0f94  edb0              	ldir
  3498  0f96  d1                	pop	de
  3499  0f97  210400            	ld	hl,0x0004
  3500  0f9a  19                	add	hl, de
  3501  0f9b  e5                	push	hl
  3502  0f9c  d5                	push	de
  3503  0f9d  cda908            	call	_hcca_DiReadUInt16
  3504  0fa0  4d                	ld	c, l
  3505  0fa1  44                	ld	b, h
  3506  0fa2  d1                	pop	de
  3507  0fa3  e1                	pop	hl
  3508  0fa4  71                	ld	(hl), c
  3509  0fa5  23                	inc	hl
  3510  0fa6  70                	ld	(hl), b
  3511  0fa7  210600            	ld	hl,0x0006
  3512  0faa  19                	add	hl, de
  3513  0fab  3e0f              	ld	a,0x0f
  3514  0fad  d341              	out	(_IO_AYLATCH), a
  3515                          l_rn_fileDetails_00101:
  3516  0faf  db40              	in	a, (_IO_AYDATA)
  3517  0fb1  cb4f              	bit	1, a
  3518  0fb3  20fa              	jr	NZ,l_rn_fileDetails_00101
  3519  0fb5  db80              	in	a, (_IO_HCCA)
  3520  0fb7  77                	ld	(hl), a
  3521  0fb8  210700            	ld	hl,0x0007
  3522  0fbb  19                	add	hl, de
  3523  0fbc  3e0f              	ld	a,0x0f
  3524  0fbe  d341              	out	(_IO_AYLATCH), a
  3525                          l_rn_fileDetails_00105:
  3526  0fc0  db40              	in	a, (_IO_AYDATA)
  3527  0fc2  cb4f              	bit	1, a
  3528  0fc4  20fa              	jr	NZ,l_rn_fileDetails_00105
  3529  0fc6  db80              	in	a, (_IO_HCCA)
  3530  0fc8  77                	ld	(hl), a
  3531  0fc9  210800            	ld	hl,0x0008
  3532  0fcc  19                	add	hl, de
  3533  0fcd  3e0f              	ld	a,0x0f
  3534  0fcf  d341              	out	(_IO_AYLATCH), a
  3535                          l_rn_fileDetails_00109:
  3536  0fd1  db40              	in	a, (_IO_AYDATA)
  3537  0fd3  cb4f              	bit	1, a
  3538  0fd5  20fa              	jr	NZ,l_rn_fileDetails_00109
  3539  0fd7  db80              	in	a, (_IO_HCCA)
  3540  0fd9  77                	ld	(hl), a
  3541  0fda  210900            	ld	hl,0x0009
  3542  0fdd  19                	add	hl, de
  3543  0fde  3e0f              	ld	a,0x0f
  3544  0fe0  d341              	out	(_IO_AYLATCH), a
  3545                          l_rn_fileDetails_00113:
  3546  0fe2  db40              	in	a, (_IO_AYDATA)
  3547  0fe4  cb4f              	bit	1, a
  3548  0fe6  20fa              	jr	NZ,l_rn_fileDetails_00113
  3549  0fe8  db80              	in	a, (_IO_HCCA)
  3550  0fea  77                	ld	(hl), a
  3551  0feb  210a00            	ld	hl,0x000a
  3552  0fee  19                	add	hl, de
  3553  0fef  3e0f              	ld	a,0x0f
  3554  0ff1  d341              	out	(_IO_AYLATCH), a
  3555                          l_rn_fileDetails_00117:
  3556  0ff3  db40              	in	a, (_IO_AYDATA)
  3557  0ff5  cb4f              	bit	1, a
  3558  0ff7  20fa              	jr	NZ,l_rn_fileDetails_00117
  3559  0ff9  db80              	in	a, (_IO_HCCA)
  3560  0ffb  77                	ld	(hl), a
  3561  0ffc  210b00            	ld	hl,0x000b
  3562  0fff  19                	add	hl, de
  3563  1000  e5                	push	hl
  3564  1001  d5                	push	de
  3565  1002  cda908            	call	_hcca_DiReadUInt16
  3566  1005  4d                	ld	c, l
  3567  1006  44                	ld	b, h
  3568  1007  d1                	pop	de
  3569  1008  e1                	pop	hl
  3570  1009  71                	ld	(hl), c
  3571  100a  23                	inc	hl
  3572  100b  70                	ld	(hl), b
  3573  100c  210d00            	ld	hl,0x000d
  3574  100f  19                	add	hl, de
  3575  1010  3e0f              	ld	a,0x0f
  3576  1012  d341              	out	(_IO_AYLATCH), a
  3577                          l_rn_fileDetails_00121:
  3578  1014  db40              	in	a, (_IO_AYDATA)
  3579  1016  cb4f              	bit	1, a
  3580  1018  20fa              	jr	NZ,l_rn_fileDetails_00121
  3581  101a  db80              	in	a, (_IO_HCCA)
  3582  101c  77                	ld	(hl), a
  3583  101d  210e00            	ld	hl,0x000e
  3584  1020  19                	add	hl, de
  3585  1021  3e0f              	ld	a,0x0f
  3586  1023  d341              	out	(_IO_AYLATCH), a
  3587                          l_rn_fileDetails_00125:
  3588  1025  db40              	in	a, (_IO_AYDATA)
  3589  1027  cb4f              	bit	1, a
  3590  1029  20fa              	jr	NZ,l_rn_fileDetails_00125
  3591  102b  db80              	in	a, (_IO_HCCA)
  3592  102d  77                	ld	(hl), a
  3593  102e  210f00            	ld	hl,0x000f
  3594  1031  19                	add	hl, de
  3595  1032  3e0f              	ld	a,0x0f
  3596  1034  d341              	out	(_IO_AYLATCH), a
  3597                          l_rn_fileDetails_00129:
  3598  1036  db40              	in	a, (_IO_AYDATA)
  3599  1038  cb4f              	bit	1, a
  3600  103a  20fa              	jr	NZ,l_rn_fileDetails_00129
  3601  103c  db80              	in	a, (_IO_HCCA)
  3602  103e  77                	ld	(hl), a
  3603  103f  211000            	ld	hl,0x0010
  3604  1042  19                	add	hl, de
  3605  1043  3e0f              	ld	a,0x0f
  3606  1045  d341              	out	(_IO_AYLATCH), a
  3607                          l_rn_fileDetails_00133:
  3608  1047  db40              	in	a, (_IO_AYDATA)
  3609  1049  cb4f              	bit	1, a
  3610  104b  20fa              	jr	NZ,l_rn_fileDetails_00133
  3611  104d  db80              	in	a, (_IO_HCCA)
  3612  104f  77                	ld	(hl), a
  3613  1050  211100            	ld	hl,0x0011
  3614  1053  19                	add	hl, de
  3615  1054  3e0f              	ld	a,0x0f
  3616  1056  d341              	out	(_IO_AYLATCH), a
  3617                          l_rn_fileDetails_00137:
  3618  1058  db40              	in	a, (_IO_AYDATA)
  3619  105a  cb4f              	bit	1, a
  3620  105c  20fa              	jr	NZ,l_rn_fileDetails_00137
  3621  105e  db80              	in	a, (_IO_HCCA)
  3622  1060  77                	ld	(hl), a
  3623  1061  211200            	ld	hl,0x0012
  3624  1064  19                	add	hl, de
  3625  1065  3e0f              	ld	a,0x0f
  3626  1067  d341              	out	(_IO_AYLATCH), a
  3627                          l_rn_fileDetails_00141:
  3628  1069  db40              	in	a, (_IO_AYDATA)
  3629  106b  cb4f              	bit	1, a
  3630  106d  20fa              	jr	NZ,l_rn_fileDetails_00141
  3631  106f  db80              	in	a, (_IO_HCCA)
  3632  1071  77                	ld	(hl), a
  3633  1072  211300            	ld	hl,0x0013
  3634  1075  19                	add	hl, de
  3635  1076  d5                	push	de
  3636  1077  e5                	push	hl
  3637  1078  214000            	ld	hl,0x0040
  3638  107b  e5                	push	hl
  3639  107c  6c                	ld	l, h
  3640  107d  e5                	push	hl
  3641  107e  cd9709            	call	_hcca_DiReadBytes
  3642  1081  210600            	ld	hl,6
  3643  1084  39                	add	hl, sp
  3644  1085  f9                	ld	sp, hl
  3645  1086  d1                	pop	de
  3646  1087  215300            	ld	hl,0x0053
  3647  108a  19                	add	hl, de
  3648  108b  d5                	push	de
  3649  108c  e5                	push	hl
  3650  108d  210400            	ld	hl,4
  3651  1090  39                	add	hl, sp
  3652  1091  eb                	ex	de, hl
  3653  1092  010400            	ld	bc,0x0004
  3654  1095  edb0              	ldir
  3655  1097  c1                	pop	bc
  3656  1098  d1                	pop	de
  3657  1099  dd7eff            	ld	a,(ix-1)
  3658  109c  07                	rlca
  3659  109d  e601              	and	a,0x01
  3660  109f  ee01              	xor	a,0x01
  3661  10a1  02                	ld	(bc), a
  3662  10a2  215400            	ld	hl,0x0054
  3663  10a5  19                	add	hl, de
  3664  10a6  4d                	ld	c, l
  3665  10a7  44                	ld	b, h
  3666  10a8  eb                	ex	de,hl
  3667  10a9  5e                	ld	e, (hl)
  3668  10aa  23                	inc	hl
  3669  10ab  56                	ld	d, (hl)
  3670  10ac  23                	inc	hl
  3671  10ad  23                	inc	hl
  3672  10ae  7e                	ld	a, (hl)
  3673  10af  2b                	dec	hl
  3674  10b0  6e                	ld	l, (hl)
  3675  10b1  67                	ld	h, a
  3676  10b2  7b                	ld	a, e
  3677  10b3  d6fe              	sub	a,0xfe
  3678  10b5  200a              	jr	NZ,l_rn_fileDetails_00279
  3679  10b7  7a                	ld	a, d
  3680  10b8  a5                	and	a, l
  3681  10b9  a4                	and	a, h
  3682  10ba  3c                	inc	a
  3683  10bb  2004              	jr	NZ,l_rn_fileDetails_00279
  3684  10bd  3e01              	ld	a,0x01
  3685  10bf  1801              	jr	l_rn_fileDetails_00280
  3686                          l_rn_fileDetails_00279:
  3687  10c1  af                	xor	a,a
  3688                          l_rn_fileDetails_00280:
  3689  10c2  ee01              	xor	a,0x01
  3690  10c4  02                	ld	(bc), a
  3691  10c5  cda607            	call	_hcca_DiRestoreInterrupts
  3692  10c8  ddf9              	ld	sp, ix
  3693  10ca  dde1              	pop	ix
  3694  10cc  c9                	ret
  3695                          	SECTION code_compiler
  3696                          ;	---------------------------------
  3697                          ; Function rn_fileHandleDetails
  3698                          ; ---------------------------------
  3699                          _rn_fileHandleDetails:
  3700  10cd  dde5              	push	ix
  3701  10cf  dd210000          	ld	ix,0
  3702  10d3  dd39              	add	ix,sp
  3703  10d5  f5                	push	af
  3704  10d6  f5                	push	af
  3705  10d7  cd8e07            	call	_hcca_DiFocusInterrupts
  3706  10da  3eb4              	ld	a,0xb4
  3707  10dc  f5                	push	af
  3708  10dd  33                	inc	sp
  3709  10de  cdb407            	call	_hcca_DiWriteByte
  3710  10e1  33                	inc	sp
  3711  10e2  dd7e04            	ld	a,(ix+4)
  3712  10e5  f5                	push	af
  3713  10e6  33                	inc	sp
  3714  10e7  cdb407            	call	_hcca_DiWriteByte
  3715  10ea  33                	inc	sp
  3716  10eb  dd5e05            	ld	e,(ix+5)
  3717  10ee  dd5606            	ld	d,(ix+6)
  3718  10f1  d5                	push	de
  3719  10f2  cd4409            	call	_hcca_DiReadInt32
  3720  10f5  dd75fc            	ld	(ix-4),l
  3721  10f8  dd74fd            	ld	(ix-3),h
  3722  10fb  dd73fe            	ld	(ix-2),e
  3723  10fe  dd72ff            	ld	(ix-1),d
  3724  1101  d1                	pop	de
  3725  1102  d5                	push	de
  3726  1103  210200            	ld	hl,2
  3727  1106  39                	add	hl, sp
  3728  1107  010400            	ld	bc,0x0004
  3729  110a  edb0              	ldir
  3730  110c  d1                	pop	de
  3731  110d  210400            	ld	hl,0x0004
  3732  1110  19                	add	hl, de
  3733  1111  e5                	push	hl
  3734  1112  d5                	push	de
  3735  1113  cda908            	call	_hcca_DiReadUInt16
  3736  1116  4d                	ld	c, l
  3737  1117  44                	ld	b, h
  3738  1118  d1                	pop	de
  3739  1119  e1                	pop	hl
  3740  111a  71                	ld	(hl), c
  3741  111b  23                	inc	hl
  3742  111c  70                	ld	(hl), b
  3743  111d  210600            	ld	hl,0x0006
  3744  1120  19                	add	hl, de
  3745  1121  3e0f              	ld	a,0x0f
  3746  1123  d341              	out	(_IO_AYLATCH), a
  3747                          l_rn_fileHandleDetails_00101:
  3748  1125  db40              	in	a, (_IO_AYDATA)
  3749  1127  cb4f              	bit	1, a
  3750  1129  20fa              	jr	NZ,l_rn_fileHandleDetails_00101
  3751  112b  db80              	in	a, (_IO_HCCA)
  3752  112d  77                	ld	(hl), a
  3753  112e  210700            	ld	hl,0x0007
  3754  1131  19                	add	hl, de
  3755  1132  3e0f              	ld	a,0x0f
  3756  1134  d341              	out	(_IO_AYLATCH), a
  3757                          l_rn_fileHandleDetails_00105:
  3758  1136  db40              	in	a, (_IO_AYDATA)
  3759  1138  cb4f              	bit	1, a
  3760  113a  20fa              	jr	NZ,l_rn_fileHandleDetails_00105
  3761  113c  db80              	in	a, (_IO_HCCA)
  3762  113e  77                	ld	(hl), a
  3763  113f  210800            	ld	hl,0x0008
  3764  1142  19                	add	hl, de
  3765  1143  3e0f              	ld	a,0x0f
  3766  1145  d341              	out	(_IO_AYLATCH), a
  3767                          l_rn_fileHandleDetails_00109:
  3768  1147  db40              	in	a, (_IO_AYDATA)
  3769  1149  cb4f              	bit	1, a
  3770  114b  20fa              	jr	NZ,l_rn_fileHandleDetails_00109
  3771  114d  db80              	in	a, (_IO_HCCA)
  3772  114f  77                	ld	(hl), a
  3773  1150  210900            	ld	hl,0x0009
  3774  1153  19                	add	hl, de
  3775  1154  3e0f              	ld	a,0x0f
  3776  1156  d341              	out	(_IO_AYLATCH), a
  3777                          l_rn_fileHandleDetails_00113:
  3778  1158  db40              	in	a, (_IO_AYDATA)
  3779  115a  cb4f              	bit	1, a
  3780  115c  20fa              	jr	NZ,l_rn_fileHandleDetails_00113
  3781  115e  db80              	in	a, (_IO_HCCA)
  3782  1160  77                	ld	(hl), a
  3783  1161  210a00            	ld	hl,0x000a
  3784  1164  19                	add	hl, de
  3785  1165  3e0f              	ld	a,0x0f
  3786  1167  d341              	out	(_IO_AYLATCH), a
  3787                          l_rn_fileHandleDetails_00117:
  3788  1169  db40              	in	a, (_IO_AYDATA)
  3789  116b  cb4f              	bit	1, a
  3790  116d  20fa              	jr	NZ,l_rn_fileHandleDetails_00117
  3791  116f  db80              	in	a, (_IO_HCCA)
  3792  1171  77                	ld	(hl), a
  3793  1172  210b00            	ld	hl,0x000b
  3794  1175  19                	add	hl, de
  3795  1176  e5                	push	hl
  3796  1177  d5                	push	de
  3797  1178  cda908            	call	_hcca_DiReadUInt16
  3798  117b  4d                	ld	c, l
  3799  117c  44                	ld	b, h
  3800  117d  d1                	pop	de
  3801  117e  e1                	pop	hl
  3802  117f  71                	ld	(hl), c
  3803  1180  23                	inc	hl
  3804  1181  70                	ld	(hl), b
  3805  1182  210d00            	ld	hl,0x000d
  3806  1185  19                	add	hl, de
  3807  1186  3e0f              	ld	a,0x0f
  3808  1188  d341              	out	(_IO_AYLATCH), a
  3809                          l_rn_fileHandleDetails_00121:
  3810  118a  db40              	in	a, (_IO_AYDATA)
  3811  118c  cb4f              	bit	1, a
  3812  118e  20fa              	jr	NZ,l_rn_fileHandleDetails_00121
  3813  1190  db80              	in	a, (_IO_HCCA)
  3814  1192  77                	ld	(hl), a
  3815  1193  210e00            	ld	hl,0x000e
  3816  1196  19                	add	hl, de
  3817  1197  3e0f              	ld	a,0x0f
  3818  1199  d341              	out	(_IO_AYLATCH), a
  3819                          l_rn_fileHandleDetails_00125:
  3820  119b  db40              	in	a, (_IO_AYDATA)
  3821  119d  cb4f              	bit	1, a
  3822  119f  20fa              	jr	NZ,l_rn_fileHandleDetails_00125
  3823  11a1  db80              	in	a, (_IO_HCCA)
  3824  11a3  77                	ld	(hl), a
  3825  11a4  210f00            	ld	hl,0x000f
  3826  11a7  19                	add	hl, de
  3827  11a8  3e0f              	ld	a,0x0f
  3828  11aa  d341              	out	(_IO_AYLATCH), a
  3829                          l_rn_fileHandleDetails_00129:
  3830  11ac  db40              	in	a, (_IO_AYDATA)
  3831  11ae  cb4f              	bit	1, a
  3832  11b0  20fa              	jr	NZ,l_rn_fileHandleDetails_00129
  3833  11b2  db80              	in	a, (_IO_HCCA)
  3834  11b4  77                	ld	(hl), a
  3835  11b5  211000            	ld	hl,0x0010
  3836  11b8  19                	add	hl, de
  3837  11b9  3e0f              	ld	a,0x0f
  3838  11bb  d341              	out	(_IO_AYLATCH), a
  3839                          l_rn_fileHandleDetails_00133:
  3840  11bd  db40              	in	a, (_IO_AYDATA)
  3841  11bf  cb4f              	bit	1, a
  3842  11c1  20fa              	jr	NZ,l_rn_fileHandleDetails_00133
  3843  11c3  db80              	in	a, (_IO_HCCA)
  3844  11c5  77                	ld	(hl), a
  3845  11c6  211100            	ld	hl,0x0011
  3846  11c9  19                	add	hl, de
  3847  11ca  3e0f              	ld	a,0x0f
  3848  11cc  d341              	out	(_IO_AYLATCH), a
  3849                          l_rn_fileHandleDetails_00137:
  3850  11ce  db40              	in	a, (_IO_AYDATA)
  3851  11d0  cb4f              	bit	1, a
  3852  11d2  20fa              	jr	NZ,l_rn_fileHandleDetails_00137
  3853  11d4  db80              	in	a, (_IO_HCCA)
  3854  11d6  77                	ld	(hl), a
  3855  11d7  211200            	ld	hl,0x0012
  3856  11da  19                	add	hl, de
  3857  11db  3e0f              	ld	a,0x0f
  3858  11dd  d341              	out	(_IO_AYLATCH), a
  3859                          l_rn_fileHandleDetails_00141:
  3860  11df  db40              	in	a, (_IO_AYDATA)
  3861  11e1  cb4f              	bit	1, a
  3862  11e3  20fa              	jr	NZ,l_rn_fileHandleDetails_00141
  3863  11e5  db80              	in	a, (_IO_HCCA)
  3864  11e7  77                	ld	(hl), a
  3865  11e8  211300            	ld	hl,0x0013
  3866  11eb  19                	add	hl, de
  3867  11ec  d5                	push	de
  3868  11ed  e5                	push	hl
  3869  11ee  214000            	ld	hl,0x0040
  3870  11f1  e5                	push	hl
  3871  11f2  6c                	ld	l, h
  3872  11f3  e5                	push	hl
  3873  11f4  cd9709            	call	_hcca_DiReadBytes
  3874  11f7  210600            	ld	hl,6
  3875  11fa  39                	add	hl, sp
  3876  11fb  f9                	ld	sp, hl
  3877  11fc  d1                	pop	de
  3878  11fd  215300            	ld	hl,0x0053
  3879  1200  19                	add	hl, de
  3880  1201  d5                	push	de
  3881  1202  e5                	push	hl
  3882  1203  210400            	ld	hl,4
  3883  1206  39                	add	hl, sp
  3884  1207  eb                	ex	de, hl
  3885  1208  010400            	ld	bc,0x0004
  3886  120b  edb0              	ldir
  3887  120d  c1                	pop	bc
  3888  120e  d1                	pop	de
  3889  120f  dd7eff            	ld	a,(ix-1)
  3890  1212  07                	rlca
  3891  1213  e601              	and	a,0x01
  3892  1215  ee01              	xor	a,0x01
  3893  1217  02                	ld	(bc), a
  3894  1218  215400            	ld	hl,0x0054
  3895  121b  19                	add	hl, de
  3896  121c  4d                	ld	c, l
  3897  121d  44                	ld	b, h
  3898  121e  eb                	ex	de,hl
  3899  121f  5e                	ld	e, (hl)
  3900  1220  23                	inc	hl
  3901  1221  56                	ld	d, (hl)
  3902  1222  23                	inc	hl
  3903  1223  23                	inc	hl
  3904  1224  7e                	ld	a, (hl)
  3905  1225  2b                	dec	hl
  3906  1226  6e                	ld	l, (hl)
  3907  1227  67                	ld	h, a
  3908  1228  7b                	ld	a, e
  3909  1229  d6fe              	sub	a,0xfe
  3910  122b  200a              	jr	NZ,l_rn_fileHandleDetails_00279
  3911  122d  7a                	ld	a, d
  3912  122e  a5                	and	a, l
  3913  122f  a4                	and	a, h
  3914  1230  3c                	inc	a
  3915  1231  2004              	jr	NZ,l_rn_fileHandleDetails_00279
  3916  1233  3e01              	ld	a,0x01
  3917  1235  1801              	jr	l_rn_fileHandleDetails_00280
  3918                          l_rn_fileHandleDetails_00279:
  3919  1237  af                	xor	a,a
  3920                          l_rn_fileHandleDetails_00280:
  3921  1238  ee01              	xor	a,0x01
  3922  123a  02                	ld	(bc), a
  3923  123b  cda607            	call	_hcca_DiRestoreInterrupts
  3924  123e  ddf9              	ld	sp, ix
  3925  1240  dde1              	pop	ix
  3926  1242  c9                	ret
  3927                          	SECTION code_compiler
  3928                          ;	---------------------------------
  3929                          ; Function rn_fileHandleReadSeq
  3930                          ; ---------------------------------
  3931                          _rn_fileHandleReadSeq:
  3932  1243  dde5              	push	ix
  3933  1245  dd210000          	ld	ix,0
  3934  1249  dd39              	add	ix,sp
  3935  124b  cd8e07            	call	_hcca_DiFocusInterrupts
  3936  124e  dd7e05            	ld	a,(ix+5)
  3937  1251  dd8607            	add	a,(ix+7)
  3938  1254  6f                	ld	l, a
  3939  1255  dd7e06            	ld	a,(ix+6)
  3940  1258  dd8e08            	adc	a,(ix+8)
  3941  125b  67                	ld	h, a
  3942  125c  e5                	push	hl
  3943  125d  3eb5              	ld	a,0xb5
  3944  125f  f5                	push	af
  3945  1260  33                	inc	sp
  3946  1261  cdb407            	call	_hcca_DiWriteByte
  3947  1264  33                	inc	sp
  3948  1265  dd7e04            	ld	a,(ix+4)
  3949  1268  f5                	push	af
  3950  1269  33                	inc	sp
  3951  126a  cdb407            	call	_hcca_DiWriteByte
  3952  126d  33                	inc	sp
  3953  126e  dd5e09            	ld	e,(ix+9)
  3954  1271  dd560a            	ld	d,(ix+10)
  3955  1274  d5                	push	de
  3956  1275  cd3008            	call	_hcca_DiWriteUInt16
  3957  1278  f1                	pop	af
  3958  1279  cda908            	call	_hcca_DiReadUInt16
  3959  127c  eb                	ex	de, hl
  3960  127d  e1                	pop	hl
  3961  127e  7d                	ld	a, l
  3962  127f  83                	add	a, e
  3963  1280  4f                	ld	c, a
  3964  1281  7c                	ld	a, h
  3965  1282  8a                	adc	a, d
  3966  1283  47                	ld	b, a
  3967                          l_rn_fileHandleReadSeq_00104:
  3968  1284  7d                	ld	a, l
  3969  1285  91                	sub	a, c
  3970  1286  2004              	jr	NZ,l_rn_fileHandleReadSeq_00125
  3971  1288  7c                	ld	a, h
  3972  1289  90                	sub	a, b
  3973  128a  280c              	jr	Z,l_rn_fileHandleReadSeq_00106
  3974                          l_rn_fileHandleReadSeq_00125:
  3975                          l_rn_fileHandleReadSeq_00101:
  3976  128c  db40              	in	a, (_IO_AYDATA)
  3977  128e  cb4f              	bit	1, a
  3978  1290  20fa              	jr	NZ,l_rn_fileHandleReadSeq_00101
  3979  1292  db80              	in	a, (_IO_HCCA)
  3980  1294  77                	ld	(hl), a
  3981  1295  23                	inc	hl
  3982  1296  18ec              	jr	l_rn_fileHandleReadSeq_00104
  3983                          l_rn_fileHandleReadSeq_00106:
  3984  1298  d5                	push	de
  3985  1299  cda607            	call	_hcca_DiRestoreInterrupts
  3986  129c  d1                	pop	de
  3987  129d  eb                	ex	de, hl
  3988  129e  dde1              	pop	ix
  3989  12a0  c9                	ret
  3990                          	SECTION code_compiler
  3991                          ;	---------------------------------
  3992                          ; Function rn_fileHandleSeek
  3993                          ; ---------------------------------
  3994                          _rn_fileHandleSeek:
  3995  12a1  dde5              	push	ix
  3996  12a3  dd210000          	ld	ix,0
  3997  12a7  dd39              	add	ix,sp
  3998  12a9  cd8e07            	call	_hcca_DiFocusInterrupts
  3999  12ac  3eb6              	ld	a,0xb6
  4000  12ae  f5                	push	af
  4001  12af  33                	inc	sp
  4002  12b0  cdb407            	call	_hcca_DiWriteByte
  4003  12b3  33                	inc	sp
  4004  12b4  dd7e04            	ld	a,(ix+4)
  4005  12b7  f5                	push	af
  4006  12b8  33                	inc	sp
  4007  12b9  cdb407            	call	_hcca_DiWriteByte
  4008  12bc  33                	inc	sp
  4009  12bd  dd6e07            	ld	l,(ix+7)
  4010  12c0  dd6608            	ld	h,(ix+8)
  4011  12c3  e5                	push	hl
  4012  12c4  dd6e05            	ld	l,(ix+5)
  4013  12c7  dd6606            	ld	h,(ix+6)
  4014  12ca  e5                	push	hl
  4015  12cb  cd0308            	call	_hcca_DiWriteInt32
  4016  12ce  f1                	pop	af
  4017  12cf  f1                	pop	af
  4018  12d0  dd7e09            	ld	a,(ix+9)
  4019  12d3  f5                	push	af
  4020  12d4  33                	inc	sp
  4021  12d5  cdb407            	call	_hcca_DiWriteByte
  4022  12d8  33                	inc	sp
  4023  12d9  cd4409            	call	_hcca_DiReadInt32
  4024  12dc  e5                	push	hl
  4025  12dd  d5                	push	de
  4026  12de  cda607            	call	_hcca_DiRestoreInterrupts
  4027  12e1  d1                	pop	de
  4028  12e2  e1                	pop	hl
  4029  12e3  dde1              	pop	ix
  4030  12e5  c9                	ret
  4031                          	SECTION code_compiler
  4032                          ;	---------------------------------
  4033                          ; Function rn_TCPOpen
  4034                          ; ---------------------------------
  4035                          _rn_TCPOpen:
  4036  12e6  cd8e07            	call	_hcca_DiFocusInterrupts
  4037  12e9  3ed0              	ld	a,0xd0
  4038  12eb  f5                	push	af
  4039  12ec  33                	inc	sp
  4040  12ed  cdb407            	call	_hcca_DiWriteByte
  4041  12f0  33                	inc	sp
  4042  12f1  210200            	ld	hl,2+0
  4043  12f4  39                	add	hl, sp
  4044  12f5  7e                	ld	a, (hl)
  4045  12f6  f5                	push	af
  4046  12f7  33                	inc	sp
  4047  12f8  cdb407            	call	_hcca_DiWriteByte
  4048  12fb  33                	inc	sp
  4049  12fc  fd210200          	ld	iy,2
  4050  1300  fd39              	add	iy, sp
  4051  1302  fd4e00            	ld	c,(iy+0)
  4052  1305  0600              	ld	b,0x00
  4053  1307  fd23              	inc	iy
  4054  1309  fd6e00            	ld	l,(iy+0)
  4055  130c  fd6601            	ld	h,(iy+1)
  4056  130f  e5                	push	hl
  4057  1310  c5                	push	bc
  4058  1311  210000            	ld	hl,0x0000
  4059  1314  e5                	push	hl
  4060  1315  cd7308            	call	_hcca_DiWriteBytes
  4061  1318  210600            	ld	hl,6
  4062  131b  39                	add	hl, sp
  4063  131c  f9                	ld	sp, hl
  4064  131d  210500            	ld	hl,5
  4065  1320  39                	add	hl, sp
  4066  1321  4e                	ld	c, (hl)
  4067  1322  23                	inc	hl
  4068  1323  46                	ld	b, (hl)
  4069  1324  c5                	push	bc
  4070  1325  cd3008            	call	_hcca_DiWriteUInt16
  4071  1328  f1                	pop	af
  4072  1329  210700            	ld	hl,7+0
  4073  132c  39                	add	hl, sp
  4074  132d  7e                	ld	a, (hl)
  4075  132e  f5                	push	af
  4076  132f  33                	inc	sp
  4077  1330  cdb407            	call	_hcca_DiWriteByte
  4078  1333  33                	inc	sp
  4079  1334  3e0f              	ld	a,0x0f
  4080  1336  d341              	out	(_IO_AYLATCH), a
  4081                          l_rn_TCPOpen_00101:
  4082  1338  db40              	in	a, (_IO_AYDATA)
  4083  133a  cb4f              	bit	1, a
  4084  133c  20fa              	jr	NZ,l_rn_TCPOpen_00101
  4085  133e  db80              	in	a, (_IO_HCCA)
  4086  1340  6f                	ld	l, a
  4087  1341  e5                	push	hl
  4088  1342  cda607            	call	_hcca_DiRestoreInterrupts
  4089  1345  e1                	pop	hl
  4090  1346  c9                	ret
  4091                          	SECTION code_compiler
  4092                          ;	---------------------------------
  4093                          ; Function rn_TCPHandleClose
  4094                          ; ---------------------------------
  4095                          _rn_TCPHandleClose:
  4096  1347  3ed1              	ld	a,0xd1
  4097  1349  f5                	push	af
  4098  134a  33                	inc	sp
  4099  134b  cd8206            	call	_hcca_writeByte
  4100  134e  33                	inc	sp
  4101  134f  210200            	ld	hl,2+0
  4102  1352  39                	add	hl, sp
  4103  1353  7e                	ld	a, (hl)
  4104  1354  f5                	push	af
  4105  1355  33                	inc	sp
  4106  1356  cd8206            	call	_hcca_writeByte
  4107  1359  33                	inc	sp
  4108  135a  c9                	ret
  4109                          	SECTION code_compiler
  4110                          ;	---------------------------------
  4111                          ; Function rn_TCPHandleSize
  4112                          ; ---------------------------------
  4113                          _rn_TCPHandleSize:
  4114  135b  dde5              	push	ix
  4115  135d  dd210000          	ld	ix,0
  4116  1361  dd39              	add	ix,sp
  4117  1363  cd8e07            	call	_hcca_DiFocusInterrupts
  4118  1366  3ed2              	ld	a,0xd2
  4119  1368  f5                	push	af
  4120  1369  33                	inc	sp
  4121  136a  cdb407            	call	_hcca_DiWriteByte
  4122  136d  33                	inc	sp
  4123  136e  dd7e04            	ld	a,(ix+4)
  4124  1371  f5                	push	af
  4125  1372  33                	inc	sp
  4126  1373  cdb407            	call	_hcca_DiWriteByte
  4127  1376  33                	inc	sp
  4128  1377  cd4409            	call	_hcca_DiReadInt32
  4129  137a  e5                	push	hl
  4130  137b  d5                	push	de
  4131  137c  cda607            	call	_hcca_DiRestoreInterrupts
  4132  137f  d1                	pop	de
  4133  1380  e1                	pop	hl
  4134  1381  dde1              	pop	ix
  4135  1383  c9                	ret
  4136                          	SECTION code_compiler
  4137                          ;	---------------------------------
  4138                          ; Function rn_TCPHandleRead
  4139                          ; ---------------------------------
  4140                          _rn_TCPHandleRead:
  4141  1384  dde5              	push	ix
  4142  1386  dd210000          	ld	ix,0
  4143  138a  dd39              	add	ix,sp
  4144  138c  f5                	push	af
  4145  138d  f5                	push	af
  4146  138e  cd8e07            	call	_hcca_DiFocusInterrupts
  4147  1391  dd7e05            	ld	a,(ix+5)
  4148  1394  dd8607            	add	a,(ix+7)
  4149  1397  4f                	ld	c, a
  4150  1398  dd7e06            	ld	a,(ix+6)
  4151  139b  dd8e08            	adc	a,(ix+8)
  4152  139e  dd71fe            	ld	(ix-2),c
  4153  13a1  dd77ff            	ld	(ix-1),a
  4154  13a4  3ed3              	ld	a,0xd3
  4155  13a6  f5                	push	af
  4156  13a7  33                	inc	sp
  4157  13a8  cdb407            	call	_hcca_DiWriteByte
  4158  13ab  33                	inc	sp
  4159  13ac  dd7e04            	ld	a,(ix+4)
  4160  13af  f5                	push	af
  4161  13b0  33                	inc	sp
  4162  13b1  cdb407            	call	_hcca_DiWriteByte
  4163  13b4  33                	inc	sp
  4164  13b5  dd6e09            	ld	l,(ix+9)
  4165  13b8  dd660a            	ld	h,(ix+10)
  4166  13bb  e5                	push	hl
  4167  13bc  cd3008            	call	_hcca_DiWriteUInt16
  4168  13bf  f1                	pop	af
  4169  13c0  cd4409            	call	_hcca_DiReadInt32
  4170  13c3  4d                	ld	c, l
  4171  13c4  44                	ld	b, h
  4172  13c5  af                	xor	a, a
  4173  13c6  b9                	cp	a, c
  4174  13c7  98                	sbc	a, b
  4175  13c8  3e00              	ld	a,0x00
  4176  13ca  9b                	sbc	a, e
  4177  13cb  3e00              	ld	a,0x00
  4178  13cd  9a                	sbc	a, d
  4179  13ce  e2d313            	jp	PO, l_rn_TCPHandleRead_00127
  4180  13d1  ee80              	xor	a,0x80
  4181                          l_rn_TCPHandleRead_00127:
  4182  13d3  f20f14            	jp	P, l_rn_TCPHandleRead_00108
  4183  13d6  79                	ld	a, c
  4184  13d7  dd86fe            	add	a,(ix-2)
  4185  13da  6f                	ld	l, a
  4186  13db  78                	ld	a, b
  4187  13dc  dd8eff            	adc	a,(ix-1)
  4188  13df  67                	ld	h, a
  4189  13e0  e3                	ex	(sp), hl
  4190                          l_rn_TCPHandleRead_00101:
  4191  13e1  db40              	in	a, (_IO_AYDATA)
  4192  13e3  cb4f              	bit	1, a
  4193  13e5  20fa              	jr	NZ,l_rn_TCPHandleRead_00101
  4194  13e7  dd6efe            	ld	l,(ix-2)
  4195  13ea  dd66ff            	ld	h,(ix-1)
  4196  13ed  db80              	in	a, (_IO_HCCA)
  4197  13ef  77                	ld	(hl), a
  4198  13f0  dd34fe            	inc	(ix-2)
  4199  13f3  2003              	jr	NZ,l_rn_TCPHandleRead_00130
  4200  13f5  dd34ff            	inc	(ix-1)
  4201                          l_rn_TCPHandleRead_00130:
  4202  13f8  3a0100            	ld	a, (__rxBufferReadPos+0)
  4203  13fb  3c                	inc	a
  4204  13fc  320100            	ld	(__rxBufferReadPos+0), a
  4205  13ff  dd7efc            	ld	a,(ix-4)
  4206  1402  dd96fe            	sub	a,(ix-2)
  4207  1405  20da              	jr	NZ,l_rn_TCPHandleRead_00101
  4208  1407  dd7efd            	ld	a,(ix-3)
  4209  140a  dd96ff            	sub	a,(ix-1)
  4210  140d  20d2              	jr	NZ,l_rn_TCPHandleRead_00101
  4211                          l_rn_TCPHandleRead_00108:
  4212  140f  c5                	push	bc
  4213  1410  d5                	push	de
  4214  1411  cda607            	call	_hcca_DiRestoreInterrupts
  4215  1414  d1                	pop	de
  4216  1415  e1                	pop	hl
  4217  1416  ddf9              	ld	sp, ix
  4218  1418  dde1              	pop	ix
  4219  141a  c9                	ret
  4220                          	SECTION code_compiler
  4221                          ;	---------------------------------
  4222                          ; Function rn_TCPHandleWrite
  4223                          ; ---------------------------------
  4224                          _rn_TCPHandleWrite:
  4225  141b  dde5              	push	ix
  4226  141d  dd210000          	ld	ix,0
  4227  1421  dd39              	add	ix,sp
  4228  1423  cd8e07            	call	_hcca_DiFocusInterrupts
  4229  1426  3ed4              	ld	a,0xd4
  4230  1428  f5                	push	af
  4231  1429  33                	inc	sp
  4232  142a  cdb407            	call	_hcca_DiWriteByte
  4233  142d  33                	inc	sp
  4234  142e  dd7e04            	ld	a,(ix+4)
  4235  1431  f5                	push	af
  4236  1432  33                	inc	sp
  4237  1433  cdb407            	call	_hcca_DiWriteByte
  4238  1436  33                	inc	sp
  4239  1437  dd6e07            	ld	l,(ix+7)
  4240  143a  dd6608            	ld	h,(ix+8)
  4241  143d  e5                	push	hl
  4242  143e  cd3008            	call	_hcca_DiWriteUInt16
  4243  1441  f1                	pop	af
  4244  1442  dd6e09            	ld	l,(ix+9)
  4245  1445  dd660a            	ld	h,(ix+10)
  4246  1448  e5                	push	hl
  4247  1449  dd6e07            	ld	l,(ix+7)
  4248  144c  dd6608            	ld	h,(ix+8)
  4249  144f  e5                	push	hl
  4250  1450  dd6e05            	ld	l,(ix+5)
  4251  1453  dd6606            	ld	h,(ix+6)
  4252  1456  e5                	push	hl
  4253  1457  cd7308            	call	_hcca_DiWriteBytes
  4254  145a  210600            	ld	hl,6
  4255  145d  39                	add	hl, sp
  4256  145e  f9                	ld	sp, hl
  4257  145f  cd4409            	call	_hcca_DiReadInt32
  4258  1462  e5                	push	hl
  4259  1463  d5                	push	de
  4260  1464  cda607            	call	_hcca_DiRestoreInterrupts
  4261  1467  d1                	pop	de
  4262  1468  e1                	pop	hl
  4263  1469  dde1              	pop	ix
  4264  146b  c9                	ret
  4265                          	SECTION code_compiler
  4266                          ;	---------------------------------
  4267                          ; Function rn_TCPServerClientCnt
  4268                          ; ---------------------------------
  4269                          _rn_TCPServerClientCnt:
  4270  146c  cd8e07            	call	_hcca_DiFocusInterrupts
  4271  146f  3ed5              	ld	a,0xd5
  4272  1471  f5                	push	af
  4273  1472  33                	inc	sp
  4274  1473  cdb407            	call	_hcca_DiWriteByte
  4275  1476  33                	inc	sp
  4276  1477  3e0f              	ld	a,0x0f
  4277  1479  d341              	out	(_IO_AYLATCH), a
  4278                          l_rn_TCPServerClientCnt_00101:
  4279  147b  db40              	in	a, (_IO_AYDATA)
  4280  147d  cb4f              	bit	1, a
  4281  147f  20fa              	jr	NZ,l_rn_TCPServerClientCnt_00101
  4282  1481  db80              	in	a, (_IO_HCCA)
  4283  1483  6f                	ld	l, a
  4284  1484  e5                	push	hl
  4285  1485  cda607            	call	_hcca_DiRestoreInterrupts
  4286  1488  e1                	pop	hl
  4287  1489  c9                	ret
  4288                          	SECTION code_compiler
  4289                          ;	---------------------------------
  4290                          ; Function rn_TCPServerAvailable
  4291                          ; ---------------------------------
  4292                          _rn_TCPServerAvailable:
  4293  148a  cd8e07            	call	_hcca_DiFocusInterrupts
  4294  148d  3ed6              	ld	a,0xd6
  4295  148f  f5                	push	af
  4296  1490  33                	inc	sp
  4297  1491  cdb407            	call	_hcca_DiWriteByte
  4298  1494  33                	inc	sp
  4299  1495  3e0f              	ld	a,0x0f
  4300  1497  d341              	out	(_IO_AYLATCH), a
  4301                          l_rn_TCPServerAvailable_00101:
  4302  1499  db40              	in	a, (_IO_AYDATA)
  4303  149b  cb4f              	bit	1, a
  4304  149d  20fa              	jr	NZ,l_rn_TCPServerAvailable_00101
  4305  149f  db80              	in	a, (_IO_HCCA)
  4306  14a1  6f                	ld	l, a
  4307  14a2  e5                	push	hl
  4308  14a3  cda607            	call	_hcca_DiRestoreInterrupts
  4309  14a6  e1                	pop	hl
  4310  14a7  c9                	ret
  4311                          	SECTION code_compiler
  4312                          ;	---------------------------------
  4313                          ; Function rn_TCPServerRead
  4314                          ; ---------------------------------
  4315                          _rn_TCPServerRead:
  4316  14a8  dde5              	push	ix
  4317  14aa  dd210000          	ld	ix,0
  4318  14ae  dd39              	add	ix,sp
  4319  14b0  21fbff            	ld	hl, -5
  4320  14b3  39                	add	hl, sp
  4321  14b4  f9                	ld	sp, hl
  4322  14b5  cd8e07            	call	_hcca_DiFocusInterrupts
  4323  14b8  dd7e04            	ld	a,(ix+4)
  4324  14bb  dd8606            	add	a,(ix+6)
  4325  14be  4f                	ld	c, a
  4326  14bf  dd7e05            	ld	a,(ix+5)
  4327  14c2  dd8e07            	adc	a,(ix+7)
  4328  14c5  dd71fe            	ld	(ix-2),c
  4329  14c8  dd77ff            	ld	(ix-1),a
  4330  14cb  3ed7              	ld	a,0xd7
  4331  14cd  f5                	push	af
  4332  14ce  33                	inc	sp
  4333  14cf  cdb407            	call	_hcca_DiWriteByte
  4334  14d2  33                	inc	sp
  4335  14d3  dd7e08            	ld	a,(ix+8)
  4336  14d6  f5                	push	af
  4337  14d7  33                	inc	sp
  4338  14d8  cdb407            	call	_hcca_DiWriteByte
  4339  14db  33                	inc	sp
  4340  14dc  3e0f              	ld	a,0x0f
  4341  14de  d341              	out	(_IO_AYLATCH), a
  4342                          l_rn_TCPServerRead_00109:
  4343  14e0  db40              	in	a, (_IO_AYDATA)
  4344  14e2  cb4f              	bit	1, a
  4345  14e4  20fa              	jr	NZ,l_rn_TCPServerRead_00109
  4346  14e6  db80              	in	a, (_IO_HCCA)
  4347  14e8  dd77fd            	ld	(ix-3),a
  4348  14eb  dd77fb            	ld	(ix-5),a
  4349  14ee  dd7efd            	ld	a,(ix-3)
  4350  14f1  b7                	or	a, a
  4351  14f2  283f              	jr	Z,l_rn_TCPServerRead_00108
  4352  14f4  dd7efd            	ld	a,(ix-3)
  4353  14f7  dd86fe            	add	a,(ix-2)
  4354  14fa  dd77fc            	ld	(ix-4),a
  4355  14fd  3e00              	ld	a,0x00
  4356  14ff  dd8eff            	adc	a,(ix-1)
  4357  1502  dd77fd            	ld	(ix-3),a
  4358                          l_rn_TCPServerRead_00101:
  4359  1505  db40              	in	a, (_IO_AYDATA)
  4360  1507  cb4f              	bit	1, a
  4361  1509  20fa              	jr	NZ,l_rn_TCPServerRead_00101
  4362  150b  dd6efe            	ld	l,(ix-2)
  4363  150e  dd66ff            	ld	h,(ix-1)
  4364  1511  db80              	in	a, (_IO_HCCA)
  4365  1513  77                	ld	(hl), a
  4366  1514  dd34fe            	inc	(ix-2)
  4367  1517  2003              	jr	NZ,l_rn_TCPServerRead_00145
  4368  1519  dd34ff            	inc	(ix-1)
  4369                          l_rn_TCPServerRead_00145:
  4370  151c  3a0100            	ld	a, (__rxBufferReadPos+0)
  4371  151f  3c                	inc	a
  4372  1520  320100            	ld	(__rxBufferReadPos+0), a
  4373  1523  dd7efe            	ld	a,(ix-2)
  4374  1526  dd96fc            	sub	a,(ix-4)
  4375  1529  20da              	jr	NZ,l_rn_TCPServerRead_00101
  4376  152b  dd7eff            	ld	a,(ix-1)
  4377  152e  dd96fd            	sub	a,(ix-3)
  4378  1531  20d2              	jr	NZ,l_rn_TCPServerRead_00101
  4379                          l_rn_TCPServerRead_00108:
  4380  1533  cda607            	call	_hcca_DiRestoreInterrupts
  4381  1536  dd6efb            	ld	l,(ix-5)
  4382  1539  ddf9              	ld	sp, ix
  4383  153b  dde1              	pop	ix
  4384  153d  c9                	ret
  4385                          	SECTION code_compiler
  4386                          ;	---------------------------------
  4387                          ; Function rn_TCPServerWrite
  4388                          ; ---------------------------------
  4389                          _rn_TCPServerWrite:
  4390  153e  cd8e07            	call	_hcca_DiFocusInterrupts
  4391  1541  3ed8              	ld	a,0xd8
  4392  1543  f5                	push	af
  4393  1544  33                	inc	sp
  4394  1545  cdb407            	call	_hcca_DiWriteByte
  4395  1548  33                	inc	sp
  4396  1549  210400            	ld	hl,4+0
  4397  154c  39                	add	hl, sp
  4398  154d  7e                	ld	a, (hl)
  4399  154e  f5                	push	af
  4400  154f  33                	inc	sp
  4401  1550  cdb407            	call	_hcca_DiWriteByte
  4402  1553  33                	inc	sp
  4403  1554  fd210400          	ld	iy,4
  4404  1558  fd39              	add	iy, sp
  4405  155a  fd4e00            	ld	c,(iy+0)
  4406  155d  0600              	ld	b,0x00
  4407  155f  fd23              	inc	iy
  4408  1561  fd6e00            	ld	l,(iy+0)
  4409  1564  fd6601            	ld	h,(iy+1)
  4410  1567  e5                	push	hl
  4411  1568  c5                	push	bc
  4412  1569  fd2b              	dec	iy
  4413  156b  fd2b              	dec	iy
  4414  156d  fd2b              	dec	iy
  4415  156f  fd7e00            	ld	a,(iy+0)
  4416  1572  fd6601            	ld	h,(iy+1)
  4417  1575  6f                	ld	l, a
  4418  1576  e5                	push	hl
  4419  1577  cd7308            	call	_hcca_DiWriteBytes
  4420  157a  210600            	ld	hl,6
  4421  157d  39                	add	hl, sp
  4422  157e  f9                	ld	sp, hl
  4423  157f  c3a607            	jp	_hcca_DiRestoreInterrupts
  4424                          	SECTION code_compiler
  4425                          ;	---------------------------------
  4426                          ; Function rn_Printer
  4427                          ; ---------------------------------
  4428                          _rn_Printer:
  4429  1582  3eda              	ld	a,0xda
  4430  1584  f5                	push	af
  4431  1585  33                	inc	sp
  4432  1586  cd8206            	call	_hcca_writeByte
  4433  1589  33                	inc	sp
  4434  158a  210200            	ld	hl,2+0
  4435  158d  39                	add	hl, sp
  4436  158e  7e                	ld	a, (hl)
  4437  158f  f5                	push	af
  4438  1590  33                	inc	sp
  4439  1591  cd8206            	call	_hcca_writeByte
  4440  1594  33                	inc	sp
  4441  1595  c9                	ret
  4442                          	SECTION code_compiler
  4443                          ;	---------------------------------
  4444                          ; Function rn_PunchOut
  4445                          ; ---------------------------------
  4446                          _rn_PunchOut:
  4447  1596  3edb              	ld	a,0xdb
  4448  1598  f5                	push	af
  4449  1599  33                	inc	sp
  4450  159a  cd8206            	call	_hcca_writeByte
  4451  159d  33                	inc	sp
  4452  159e  210200            	ld	hl,2+0
  4453  15a1  39                	add	hl, sp
  4454  15a2  7e                	ld	a, (hl)
  4455  15a3  f5                	push	af
  4456  15a4  33                	inc	sp
  4457  15a5  cd8206            	call	_hcca_writeByte
  4458  15a8  33                	inc	sp
  4459  15a9  c9                	ret
  4460                          	SECTION code_compiler
  4461                          ;	---------------------------------
  4462                          ; Function main
  4463                          ; ---------------------------------
  4464                          _main:
  4465  15aa  dde5              	push	ix
  4466  15ac  dd210000          	ld	ix,0
  4467  15b0  dd39              	add	ix,sp
  4468  15b2  3b                	dec	sp
  4469  15b3  cd0000            	call	_initNABULib
  4470  15b6  210201            	ld	hl,___str_43
  4471  15b9  e5                	push	hl
  4472  15ba  cd0000            	call	_puts
  4473  15bd  f1                	pop	af
  4474                          l_main_00118:
  4475  15be  cdd204            	call	_isKeyPressed
  4476  15c1  dd75ff            	ld	(ix-1),l
  4477  15c4  7d                	ld	a, l
  4478  15c5  b7                	or	a, a
  4479  15c6  2866              	jr	Z,l_main_00112
  4480  15c8  cde704            	call	_getChar
  4481  15cb  dd75ff            	ld	(ix-1),l
  4482  15ce  7d                	ld	a, l
  4483  15cf  d603              	sub	a,0x03
  4484  15d1  201c              	jr	NZ,l_main_00109
  4485  15d3  3a10ff            	ld	a,(_cpm_cursor + 0)
  4486  15d6  dd77ff            	ld	(ix-1),a
  4487  15d9  b7                	or	a, a
  4488  15da  2808              	jr	Z,l_main_00102
  4489  15dc  21e000            	ld	hl,___str_20
  4490  15df  e5                	push	hl
  4491  15e0  cd0000            	call	_puts
  4492  15e3  f1                	pop	af
  4493                          l_main_00102:
  4494  15e4  21e100            	ld	hl,___str_30
  4495  15e7  e5                	push	hl
  4496  15e8  cd0000            	call	_puts
  4497  15eb  f1                	pop	af
  4498  15ec  c37516            	jp	l_main_00126
  4499                          l_main_00109:
  4500  15ef  dd7eff            	ld	a,(ix-1)
  4501  15f2  d604              	sub	a,0x04
  4502  15f4  2022              	jr	NZ,l_main_00106
  4503  15f6  cd6c14            	call	_rn_TCPServerClientCnt
  4504  15f9  4d                	ld	c, l
  4505  15fa  0600              	ld	b,0x00
  4506  15fc  3a10ff            	ld	a, (_cpm_cursor + 0)
  4507  15ff  b7                	or	a, a
  4508  1600  280a              	jr	Z,l_main_00104
  4509  1602  c5                	push	bc
  4510  1603  21e000            	ld	hl,___str_20
  4511  1606  e5                	push	hl
  4512  1607  cd0000            	call	_puts
  4513  160a  f1                	pop	af
  4514  160b  c1                	pop	bc
  4515                          l_main_00104:
  4516  160c  c5                	push	bc
  4517  160d  21ec00            	ld	hl,___str_31
  4518  1610  e5                	push	hl
  4519  1611  cd0000            	call	_printf
  4520  1614  f1                	pop	af
  4521  1615  f1                	pop	af
  4522  1616  1816              	jr	l_main_00112
  4523                          l_main_00106:
  4524  1618  012b00            	ld	bc,__outBuf+0
  4525  161b  dd7eff            	ld	a,(ix-1)
  4526  161e  02                	ld	(bc), a
  4527  161f  c5                	push	bc
  4528  1620  3e01              	ld	a,0x01
  4529  1622  f5                	push	af
  4530  1623  33                	inc	sp
  4531  1624  210000            	ld	hl,0x0000
  4532  1627  e5                	push	hl
  4533  1628  cd3e15            	call	_rn_TCPServerWrite
  4534  162b  f1                	pop	af
  4535  162c  f1                	pop	af
  4536  162d  33                	inc	sp
  4537                          l_main_00112:
  4538  162e  3e20              	ld	a,0x20
  4539  1630  f5                	push	af
  4540  1631  33                	inc	sp
  4541  1632  210000            	ld	hl,0x0000
  4542  1635  e5                	push	hl
  4543  1636  210b00            	ld	hl,__inBuf
  4544  1639  e5                	push	hl
  4545  163a  cda814            	call	_rn_TCPServerRead
  4546  163d  f1                	pop	af
  4547  163e  f1                	pop	af
  4548  163f  33                	inc	sp
  4549  1640  4d                	ld	c, l
  4550  1641  dd71ff            	ld	(ix-1),c
  4551  1644  79                	ld	a, c
  4552  1645  b7                	or	a, a
  4553  1646  281e              	jr	Z,l_main_00138
  4554  1648  0e00              	ld	c,0x00
  4555                          l_main_00121:
  4556  164a  79                	ld	a, c
  4557  164b  dd96ff            	sub	a,(ix-1)
  4558  164e  3016              	jr	NC,l_main_00138
  4559  1650  210b00            	ld	hl,__inBuf
  4560  1653  0600              	ld	b,0x00
  4561  1655  09                	add	hl, bc
  4562  1656  5e                	ld	e, (hl)
  4563  1657  1600              	ld	d,0x00
  4564  1659  c5                	push	bc
  4565  165a  d5                	push	de
  4566  165b  210a00            	ld	hl, +(__sgoioblk + 10)
  4567  165e  e5                	push	hl
  4568  165f  cd0000            	call	_fputc_callee
  4569  1662  c1                	pop	bc
  4570  1663  0c                	inc	c
  4571  1664  18e4              	jr	l_main_00121
  4572                          l_main_00138:
  4573  1666  010000            	ld	bc,0x0000
  4574                          l_main_00124:
  4575  1669  79                	ld	a, c
  4576  166a  d688              	sub	a,0x88
  4577  166c  78                	ld	a, b
  4578  166d  de13              	sbc	a,0x13
  4579  166f  d2be15            	jp	NC, l_main_00118
  4580  1672  03                	inc	bc
  4581  1673  18f4              	jr	l_main_00124
  4582                          l_main_00126:
  4583  1675  33                	inc	sp
  4584  1676  dde1              	pop	ix
  4585  1678  c9                	ret
  4586                          	SECTION rodata_compiler
  4587                          ___str_20:
  4588  00e0  00                	DEFB 0x00
  4589                          	SECTION rodata_compiler
  4590                          ___str_30:
  4591  00e1  06786974fd6e052e  	DEFM "Exiting..."
              202e              
  4592  00eb  00                	DEFB 0x00
  4593                          	SECTION rodata_compiler
  4594                          ___str_31:
  4595  00ec  ef7520636c69656e  	DEFM "%u clients connected"
              7400006302006e00  
              63748064          
  4596  0100  0a                	DEFB 0x0a
  4597  0101  00                	DEFB 0x00
  4598                          	SECTION rodata_compiler
  4599                          ___str_43:
  4600  0102  0a                	DEFB 0x0a
  4601  0103  5468020020757469  	DEFM "This utility will test the RetroNET IA"
              6c69747920770000  
              6c2090657380200e  
              6883205209747205  
              004554004969      
  4602  0129  0a                	DEFB 0x0a
  4603  012a  5490500553957276  	DEFM "TCP Server. Ensure you have the server"
              5f7205004580730e  
              728120186f822022  
              6183652c74386520  
              050072760000      
  4604  0150  0a                	DEFB 0x0a
  4605  0151  060061623c656405  	DEFM "enabled in the IA settings menu."
              006e200000650700  
              41202e657405006e  
              6700006d0800752e  
  4606  0171  0a                	DEFB 0x0a
  4607  0172  0a                	DEFB 0x0a
  4608  0173  490500656e00006c  	DEFM "If enabled, you can telnet to the port"
              09002c20126f0001  
              6361040074006c6e  
              650400746f040068  
              6520706f7274      
  4609  0199  0a                	DEFB 0x0a
  4610  019a  1b00642090006c20  	DEFM "and all incoming TCP data will be"
              0000636f6d691b00  
              2054940020640000  
              6120776912ff2062  
              0d                
  4611  01bb  0a                	DEFB 0x0a
  4612  01bc  1a0073700a007965  	DEFM "displayed here. All NABU keyboard data"
              0000680d721b0020  
              419800204e000055  
              206b651b006f619c  
              002064000061      
  4613  01e2  0a                	DEFB 0x0a
  4614  01e3  77691b002062a000  	DEFM "will be sent to all TCP clients"
              7365000020746f20  
              1b006c20a4005020  
              000069656e7400    
  4615  0202  0a                	DEFB 0x0a
  4616  0203  0a                	DEFB 0x0a
  4617  0204  00204354524c2d1b  	DEFM "- CTRL-C to exit"
              00746fa800786900  
  4618  0214  0a                	DEFB 0x0a
  4619  0215  2d20435452e72d1b  	DEFM "- CTRL-D display client count"
              006469ac006c6100  
              00636c6965007402  
              006f756e74        
  4620  0232  0a                	DEFB 0x0a
  4621  0233  00                	DEFB 0x00
  4622                          	SECTION data_compiler
  4623                          __randomSeed:
  4624  0000  00                	DEFB +0x00
  4625                          __rxBufferReadPos:
  4626  0001  00                	DEFB +0x00
  4627                          __rxBufferWritePos:
  4628  0002  00                	DEFB +0x00
  4629                          __kbdBufferReadPos:
  4630  0003  00                	DEFB +0x00
  4631                          __kbdBufferWritePos:
  4632  0004  00                	DEFB +0x00
  4633                          __lastKeyboardIntVal:
  4634  0005  00                	DEFB +0x00
  4635                          __joyStatus:
  4636  0006  00                	DEFB +0x00
  4637  0007  00                	DEFB 0x00
  4638  0008  00                	DEFB 0x00
  4639  0009  00                	DEFB 0x00
  4640                          __rnFS_INT_BACKUP:
  4641  000a  00                	DEFB +0x00
  4642                          __inBuf:
  4643  000b  00                	DEFB +0x00
  4644  000c  00                	DEFB 0x00
  4645  000d  00                	DEFB 0x00
  4646  000e  00                	DEFB 0x00
  4647  000f  00                	DEFB 0x00
  4648  0010  00                	DEFB 0x00
  4649  0011  00                	DEFB 0x00
  4650  0012  00                	DEFB 0x00
  4651  0013  00                	DEFB 0x00
  4652  0014  00                	DEFB 0x00
  4653  0015  00                	DEFB 0x00
  4654  0016  00                	DEFB 0x00
  4655  0017  00                	DEFB 0x00
  4656  0018  00                	DEFB 0x00
  4657  0019  00                	DEFB 0x00
  4658  001a  00                	DEFB 0x00
  4659  001b  00                	DEFB 0x00
  4660  001c  00                	DEFB 0x00
  4661  001d  00                	DEFB 0x00
  4662  001e  00                	DEFB 0x00
  4663  001f  00                	DEFB 0x00
  4664  0020  00                	DEFB 0x00
  4665  0021  00                	DEFB 0x00
  4666  0022  00                	DEFB 0x00
  4667  0023  00                	DEFB 0x00
  4668  0024  00                	DEFB 0x00
  4669  0025  00                	DEFB 0x00
  4670  0026  00                	DEFB 0x00
  4671  0027  00                	DEFB 0x00
  4672  0028  00                	DEFB 0x00
  4673  0029  00                	DEFB 0x00
  4674  002a  00                	DEFB 0x00
  4675                          __outBuf:
  4676  002b  00                	DEFB +0x00
  4677                          	SECTION IGNORE
  4678                          
