C:/Users/dj/AppData/Local/Temp/zcc00000AC4FA8A2.asm:
     1                          MODULE main_c
     2                          LINE 0, "main.c"
main.c:
                                
     1                          ;--------------------------------------------------------
     2                          ; File Created by SDCC : free open source ANSI-C Compiler
     3                          ; Version 4.2.0 #13081 (MINGW64)
     4                          ;--------------------------------------------------------
     5                          ; Processed by Z88DK
     6                          ;--------------------------------------------------------
     7                          
     8                          	EXTERN __divschar
     9                          	EXTERN __divschar_callee
    10                          	EXTERN __divsint
    11                          	EXTERN __divsint_callee
    12                          	EXTERN __divslong
    13                          	EXTERN __divslong_callee
    14                          	EXTERN __divslonglong
    15                          	EXTERN __divslonglong_callee
    16                          	EXTERN __divsuchar
    17                          	EXTERN __divsuchar_callee
    18                          	EXTERN __divuchar
    19                          	EXTERN __divuchar_callee
    20                          	EXTERN __divuint
    21                          	EXTERN __divuint_callee
    22                          	EXTERN __divulong
    23                          	EXTERN __divulong_callee
    24                          	EXTERN __divulonglong
    25                          	EXTERN __divulonglong_callee
    26                          	EXTERN __divuschar
    27                          	EXTERN __divuschar_callee
    28                          	EXTERN __modschar
    29                          	EXTERN __modschar_callee
    30                          	EXTERN __modsint
    31                          	EXTERN __modsint_callee
    32                          	EXTERN __modslong
    33                          	EXTERN __modslong_callee
    34                          	EXTERN __modslonglong
    35                          	EXTERN __modslonglong_callee
    36                          	EXTERN __modsuchar
    37                          	EXTERN __modsuchar_callee
    38                          	EXTERN __moduchar
    39                          	EXTERN __moduchar_callee
    40                          	EXTERN __moduint
    41                          	EXTERN __moduint_callee
    42                          	EXTERN __modulong
    43                          	EXTERN __modulong_callee
    44                          	EXTERN __modulonglong
    45                          	EXTERN __modulonglong_callee
    46                          	EXTERN __moduschar
    47                          	EXTERN __moduschar_callee
    48                          	EXTERN __mulint
    49                          	EXTERN __mulint_callee
    50                          	EXTERN __mullong
    51                          	EXTERN __mullong_callee
    52                          	EXTERN __mullonglong
    53                          	EXTERN __mullonglong_callee
    54                          	EXTERN __mulschar
    55                          	EXTERN __mulschar_callee
    56                          	EXTERN __mulsuchar
    57                          	EXTERN __mulsuchar_callee
    58                          	EXTERN __muluchar
    59                          	EXTERN __muluchar_callee
    60                          	EXTERN __muluschar
    61                          	EXTERN __muluschar_callee
    62                          	EXTERN __rlslonglong
    63                          	EXTERN __rlslonglong_callee
    64                          	EXTERN __rlulonglong
    65                          	EXTERN __rlulonglong_callee
    66                          	EXTERN __rrslonglong
    67                          	EXTERN __rrslonglong_callee
    68                          	EXTERN __rrulonglong
    69                          	EXTERN __rrulonglong_callee
    70                          	EXTERN ___mulsint2slong
    71                          	EXTERN ___mulsint2slong_callee
    72                          	EXTERN ___muluint2ulong
    73                          	EXTERN ___muluint2ulong_callee
    74                          	EXTERN ___sdcc_call_hl
    75                          	EXTERN ___sdcc_call_iy
    76                          	EXTERN ___sdcc_enter_ix
    77                          	EXTERN banked_call
    78                          	EXTERN _banked_ret
    79                          	EXTERN ___fs2schar
    80                          	EXTERN ___fs2schar_callee
    81                          	EXTERN ___fs2sint
    82                          	EXTERN ___fs2sint_callee
    83                          	EXTERN ___fs2slong
    84                          	EXTERN ___fs2slong_callee
    85                          	EXTERN ___fs2slonglong
    86                          	EXTERN ___fs2slonglong_callee
    87                          	EXTERN ___fs2uchar
    88                          	EXTERN ___fs2uchar_callee
    89                          	EXTERN ___fs2uint
    90                          	EXTERN ___fs2uint_callee
    91                          	EXTERN ___fs2ulong
    92                          	EXTERN ___fs2ulong_callee
    93                          	EXTERN ___fs2ulonglong
    94                          	EXTERN ___fs2ulonglong_callee
    95                          	EXTERN ___fsadd
    96                          	EXTERN ___fsadd_callee
    97                          	EXTERN ___fsdiv
    98                          	EXTERN ___fsdiv_callee
    99                          	EXTERN ___fseq
   100                          	EXTERN ___fseq_callee
   101                          	EXTERN ___fsgt
   102                          	EXTERN ___fsgt_callee
   103                          	EXTERN ___fslt
   104                          	EXTERN ___fslt_callee
   105                          	EXTERN ___fsmul
   106                          	EXTERN ___fsmul_callee
   107                          	EXTERN ___fsneq
   108                          	EXTERN ___fsneq_callee
   109                          	EXTERN ___fssub
   110                          	EXTERN ___fssub_callee
   111                          	EXTERN ___schar2fs
   112                          	EXTERN ___schar2fs_callee
   113                          	EXTERN ___sint2fs
   114                          	EXTERN ___sint2fs_callee
   115                          	EXTERN ___slong2fs
   116                          	EXTERN ___slong2fs_callee
   117                          	EXTERN ___slonglong2fs
   118                          	EXTERN ___slonglong2fs_callee
   119                          	EXTERN ___uchar2fs
   120                          	EXTERN ___uchar2fs_callee
   121                          	EXTERN ___uint2fs
   122                          	EXTERN ___uint2fs_callee
   123                          	EXTERN ___ulong2fs
   124                          	EXTERN ___ulong2fs_callee
   125                          	EXTERN ___ulonglong2fs
   126                          	EXTERN ___ulonglong2fs_callee
   127                          	EXTERN ____sdcc_2_copy_src_mhl_dst_deix
   128                          	EXTERN ____sdcc_2_copy_src_mhl_dst_bcix
   129                          	EXTERN ____sdcc_4_copy_src_mhl_dst_deix
   130                          	EXTERN ____sdcc_4_copy_src_mhl_dst_bcix
   131                          	EXTERN ____sdcc_4_copy_src_mhl_dst_mbc
   132                          	EXTERN ____sdcc_4_ldi_nosave_bc
   133                          	EXTERN ____sdcc_4_ldi_save_bc
   134                          	EXTERN ____sdcc_4_push_hlix
   135                          	EXTERN ____sdcc_4_push_mhl
   136                          	EXTERN ____sdcc_lib_setmem_hl
   137                          	EXTERN ____sdcc_ll_add_de_bc_hl
   138                          	EXTERN ____sdcc_ll_add_de_bc_hlix
   139                          	EXTERN ____sdcc_ll_add_de_hlix_bc
   140                          	EXTERN ____sdcc_ll_add_de_hlix_bcix
   141                          	EXTERN ____sdcc_ll_add_deix_bc_hl
   142                          	EXTERN ____sdcc_ll_add_deix_hlix
   143                          	EXTERN ____sdcc_ll_add_hlix_bc_deix
   144                          	EXTERN ____sdcc_ll_add_hlix_deix_bc
   145                          	EXTERN ____sdcc_ll_add_hlix_deix_bcix
   146                          	EXTERN ____sdcc_ll_asr_hlix_a
   147                          	EXTERN ____sdcc_ll_asr_mbc_a
   148                          	EXTERN ____sdcc_ll_copy_src_de_dst_hlix
   149                          	EXTERN ____sdcc_ll_copy_src_de_dst_hlsp
   150                          	EXTERN ____sdcc_ll_copy_src_deix_dst_hl
   151                          	EXTERN ____sdcc_ll_copy_src_deix_dst_hlix
   152                          	EXTERN ____sdcc_ll_copy_src_deixm_dst_hlsp
   153                          	EXTERN ____sdcc_ll_copy_src_desp_dst_hlsp
   154                          	EXTERN ____sdcc_ll_copy_src_hl_dst_de
   155                          	EXTERN ____sdcc_ll_copy_src_hlsp_dst_de
   156                          	EXTERN ____sdcc_ll_copy_src_hlsp_dst_deixm
   157                          	EXTERN ____sdcc_ll_lsl_hlix_a
   158                          	EXTERN ____sdcc_ll_lsl_mbc_a
   159                          	EXTERN ____sdcc_ll_lsr_hlix_a
   160                          	EXTERN ____sdcc_ll_lsr_mbc_a
   161                          	EXTERN ____sdcc_ll_push_hlix
   162                          	EXTERN ____sdcc_ll_push_mhl
   163                          	EXTERN ____sdcc_ll_sub_de_bc_hl
   164                          	EXTERN ____sdcc_ll_sub_de_bc_hlix
   165                          	EXTERN ____sdcc_ll_sub_de_hlix_bc
   166                          	EXTERN ____sdcc_ll_sub_de_hlix_bcix
   167                          	EXTERN ____sdcc_ll_sub_deix_bc_hl
   168                          	EXTERN ____sdcc_ll_sub_deix_hlix
   169                          	EXTERN ____sdcc_ll_sub_hlix_bc_deix
   170                          	EXTERN ____sdcc_ll_sub_hlix_deix_bc
   171                          	EXTERN ____sdcc_ll_sub_hlix_deix_bcix
   172                          	EXTERN ____sdcc_load_debc_deix
   173                          	EXTERN ____sdcc_load_dehl_deix
   174                          	EXTERN ____sdcc_load_debc_mhl
   175                          	EXTERN ____sdcc_load_hlde_mhl
   176                          	EXTERN ____sdcc_store_dehl_bcix
   177                          	EXTERN ____sdcc_store_debc_hlix
   178                          	EXTERN ____sdcc_store_debc_mhl
   179                          	EXTERN ____sdcc_cpu_pop_ei
   180                          	EXTERN ____sdcc_cpu_pop_ei_jp
   181                          	EXTERN ____sdcc_cpu_push_di
   182                          	EXTERN ____sdcc_outi
   183                          	EXTERN ____sdcc_outi_128
   184                          	EXTERN ____sdcc_outi_256
   185                          	EXTERN ____sdcc_ldi
   186                          	EXTERN ____sdcc_ldi_128
   187                          	EXTERN ____sdcc_ldi_256
   188                          	EXTERN ____sdcc_4_copy_srcd_hlix_dst_deix
   189                          	EXTERN ____sdcc_4_and_src_mbc_mhl_dst_deix
   190                          	EXTERN ____sdcc_4_or_src_mbc_mhl_dst_deix
   191                          	EXTERN ____sdcc_4_xor_src_mbc_mhl_dst_deix
   192                          	EXTERN ____sdcc_4_or_src_dehl_dst_bcix
   193                          	EXTERN ____sdcc_4_xor_src_dehl_dst_bcix
   194                          	EXTERN ____sdcc_4_and_src_dehl_dst_bcix
   195                          	EXTERN ____sdcc_4_xor_src_mbc_mhl_dst_debc
   196                          	EXTERN ____sdcc_4_or_src_mbc_mhl_dst_debc
   197                          	EXTERN ____sdcc_4_and_src_mbc_mhl_dst_debc
   198                          	EXTERN ____sdcc_4_cpl_src_mhl_dst_debc
   199                          	EXTERN ____sdcc_4_xor_src_debc_mhl_dst_debc
   200                          	EXTERN ____sdcc_4_or_src_debc_mhl_dst_debc
   201                          	EXTERN ____sdcc_4_and_src_debc_mhl_dst_debc
   202                          	EXTERN ____sdcc_4_and_src_debc_hlix_dst_debc
   203                          	EXTERN ____sdcc_4_or_src_debc_hlix_dst_debc
   204                          	EXTERN ____sdcc_4_xor_src_debc_hlix_dst_debc
   205                          
   206                          ;--------------------------------------------------------
   207                          ; Public variables in this module
   208                          ;--------------------------------------------------------
   209                          	GLOBAL _main
   210                          	GLOBAL _printTitle
   211                          	GLOBAL _doGameLoop
   212                          	GLOBAL _myVdpISR
   213                          	GLOBAL _doCollision
   214                          	GLOBAL _doRock
   215                          	GLOBAL _doPlayer
   216                          	GLOBAL _initSprites
   217                          	GLOBAL _initGame
   218                          	GLOBAL _vdp_printG2
   219                          	GLOBAL _vdp_getSpriteAttributes
   220                          	GLOBAL _isrKeyboard
   221                          	GLOBAL __rock
   222                          	GLOBAL __player
   223                          	GLOBAL __speedCurve
   224                          	GLOBAL __isCollision
   225                          	GLOBAL __loopCntr
   226                          	GLOBAL _r
   227                          	GLOBAL _TIME
   228                          	GLOBAL _PELLET_CNT
   229                          	GLOBAL _PLAYER_CNT
   230                          	GLOBAL _PLAYER_LIVES
   231                          	GLOBAL _SPRITE_DEAD
   232                          	GLOBAL _SPRITE_PELLET
   233                          	GLOBAL _SPRITE_ROCK3
   234                          	GLOBAL _SPRITE_ROCK2
   235                          	GLOBAL _SPRITE_ROCK1
   236                          	GLOBAL _SPRITE_UFO
   237                          	GLOBAL __vdp_crsr_max_x
   238                          	GLOBAL __vdp_color_table_size
   239                          	GLOBAL __vdpReg1Val
   240                          	GLOBAL _vdp_cursor
   241                          	GLOBAL _RETRONET_BRIDGE_EXIT_CODE
   242                          	GLOBAL __ORIGINAL_INT_MASK
   243                          	GLOBAL __joyStatus
   244                          	GLOBAL __lastKeyboardIntVal
   245                          	GLOBAL __kbdBufferWritePos
   246                          	GLOBAL __kbdBufferReadPos
   247                          	GLOBAL __kbdBuffer
   248                          	GLOBAL _cpm_cursor
   249                          	GLOBAL __autoScroll
   250                          	GLOBAL __vdp_bgcolor
   251                          	GLOBAL __vdp_fgcolor
   252                          	GLOBAL __vdp_mode
   253                          	GLOBAL __vdp_pattern_table
   254                          	GLOBAL __vdp_color_table
   255                          	GLOBAL __vdp_name_table
   256                          	GLOBAL __vdp_sprite_size_sel
   257                          	GLOBAL __vdp_sprite_pattern_table
   258                          	GLOBAL __vdp_sprite_attribute_table
   259                          	GLOBAL __vdp_ISR
   260                          	GLOBAL __vdp_textBuffer
   261                          	GLOBAL __NOTES_FINE
   262                          	GLOBAL __NOTES_COURSE
   263                          	GLOBAL __vdp_crsr_max_y
   264                          	GLOBAL _ASCII
   265                          	GLOBAL _initNABULib
   266                          	GLOBAL _nop
   267                          	GLOBAL _NABU_DisableInterrupts
   268                          	GLOBAL _NABU_EnableInterrupts
   269                          	GLOBAL _ayWrite
   270                          	GLOBAL _ayRead
   271                          	GLOBAL _playNoteDelay
   272                          	GLOBAL _isKeyPressed
   273                          	GLOBAL _getChar
   274                          	GLOBAL _getJoyStatus
   275                          	GLOBAL _readLine
   276                          	GLOBAL _vdp_addISR
   277                          	GLOBAL _vdp_removeISR
   278                          	GLOBAL _vdp_init
   279                          	GLOBAL _vdp_initTextModeFont
   280                          	GLOBAL _vdp_colorize
   281                          	GLOBAL _vdp_plotHires
   282                          	GLOBAL _vdp_plotColor
   283                          	GLOBAL _vdp_setSpritePattern
   284                          	GLOBAL _vdp_setSpriteColor
   285                          	GLOBAL _vdp_getSpritePosition
   286                          	GLOBAL _vdp_spriteInit
   287                          	GLOBAL _vdp_setSpritePosition
   288                          	GLOBAL _vdp_print
   289                          	GLOBAL _vdp_printPart
   290                          	GLOBAL _vdp_newLine
   291                          	GLOBAL _vdp_setBackDropColor
   292                          	GLOBAL _vdp_setPatternColor
   293                          	GLOBAL _vdp_setCursor2
   294                          	GLOBAL _vdp_setCursor
   295                          	GLOBAL _vdp_setTextColor
   296                          	GLOBAL _vdp_write
   297                          	GLOBAL _vdp_writeG2
   298                          	GLOBAL _vdp_writeCharAtLocation
   299                          	GLOBAL _vdp_getCharAtLocationVRAM
   300                          	GLOBAL _vdp_getCharAtLocationBuf
   301                          	GLOBAL _vdp_setCharAtLocationBuf
   302                          	GLOBAL _vdp_scrollTextUp
   303                          	GLOBAL _vdp_clearRows
   304                          	GLOBAL _vdp_writeUInt32
   305                          	GLOBAL _vdp_writeInt32
   306                          	GLOBAL _vdp_writeUInt16
   307                          	GLOBAL _vdp_writeInt16
   308                          	GLOBAL _vdp_writeUInt8
   309                          	GLOBAL _vdp_writeInt8
   310                          	GLOBAL _vdp_writeUInt8ToBinary
   311                          	GLOBAL _vdp_writeUInt16ToBinary
   312                          	GLOBAL _vdp_initTextMode
   313                          	GLOBAL _vdp_initG1Mode
   314                          	GLOBAL _vdp_initG2Mode
   315                          	GLOBAL _vdp_initMultiColorMode
   316                          ;--------------------------------------------------------
   317                          ; Externals used
   318                          ;--------------------------------------------------------
   319                          	GLOBAL _vdp_getSpriteeAttributes
   320                          	GLOBAL _vt_wrapOn
   321                          	GLOBAL _vt_wrapOff
   322                          	GLOBAL _vt_cursorUpAndInsert
   323                          	GLOBAL _vt_saveCursorPosition
   324                          	GLOBAL _vt_backgroundColor
   325                          	GLOBAL _vt_restoreCursorPosition
   326                          	GLOBAL _vt_insertLine
   327                          	GLOBAL _vt_foregroundColor
   328                          	GLOBAL _vt_setCursor
   329                          	GLOBAL _vt_deleteLine
   330                          	GLOBAL _vt_moveCursorUp
   331                          	GLOBAL _vt_moveCursorRight
   332                          	GLOBAL _vt_moveCursorLeft
   333                          	GLOBAL _vt_cursorHome
   334                          	GLOBAL _vt_moveCursorDown
   335                          	GLOBAL _vt_clearToStartOfScreen
   336                          	GLOBAL _vt_clearToStartOfLine
   337                          	GLOBAL _vt_clearLine
   338                          	GLOBAL _vt_clearScreen
   339                          	GLOBAL _vt_clearToEndOfLine
   340                          	GLOBAL _vt_clearToEndOfScreen
   341                          	GLOBAL _fputc_cons_ansi
   342                          	GLOBAL _fputc_cons_generic
   343                          	GLOBAL _fputc_cons_native
   344                          	GLOBAL _set_fputc_cons
   345                          	GLOBAL _perror
   346                          	GLOBAL _printk
   347                          	GLOBAL _getk_inkey
   348                          	GLOBAL _getk
   349                          	GLOBAL _remove
   350                          	GLOBAL _rename
   351                          	GLOBAL _fdgetpos
   352                          	GLOBAL _fdtell
   353                          	GLOBAL _fabandon
   354                          	GLOBAL _puts_cons
   355                          	GLOBAL _fgets_cons
   356                          	GLOBAL _fputc_cons
   357                          	GLOBAL _fgetc_cons_inkey
   358                          	GLOBAL _fgetc_cons
   359                          	GLOBAL _fchkstd
   360                          	GLOBAL _getarg
   361                          	GLOBAL _vsscanf
   362                          	GLOBAL _vfscanf
   363                          	GLOBAL _sscanf
   364                          	GLOBAL _fscanf
   365                          	GLOBAL _scanf
   366                          	GLOBAL _printn
   367                          	GLOBAL _vsnprintf
   368                          	GLOBAL _vfprintf
   369                          	GLOBAL _snprintf
   370                          	GLOBAL _sprintf
   371                          	GLOBAL _fprintf
   372                          	GLOBAL _printf
   373                          	GLOBAL _gets
   374                          	GLOBAL _fwrite
   375                          	GLOBAL _fread
   376                          	GLOBAL _fseek
   377                          	GLOBAL _fgetpos
   378                          	GLOBAL _ftell
   379                          	GLOBAL _puts
   380                          	GLOBAL _ferror
   381                          	GLOBAL _feof
   382                          	GLOBAL _ungetc
   383                          	GLOBAL _fgetc
   384                          	GLOBAL _fputc_callee
   385                          	GLOBAL _fputs_callee
   386                          	GLOBAL _fputc
   387                          	GLOBAL _fputs
   388                          	GLOBAL _fgets
   389                          	GLOBAL _closeall
   390                          	GLOBAL _fflush
   391                          	GLOBAL _fclose
   392                          	GLOBAL _funopen
   393                          	GLOBAL _fmemopen
   394                          	GLOBAL __freopen1
   395                          	GLOBAL _fdopen
   396                          	GLOBAL _freopen
   397                          	GLOBAL _fopen
   398                          	GLOBAL _fileno
   399                          	GLOBAL _fopen_zsock
   400                          	GLOBAL _rnd_erase
   401                          	GLOBAL _rnd_saveblock
   402                          	GLOBAL _rnd_loadblock
   403                          	GLOBAL _rmdir
   404                          	GLOBAL _getwd
   405                          	GLOBAL _chdir
   406                          	GLOBAL _getcwd
   407                          	GLOBAL _writebyte
   408                          	GLOBAL _readbyte
   409                          	GLOBAL _lseek
   410                          	GLOBAL _write
   411                          	GLOBAL _read
   412                          	GLOBAL _close
   413                          	GLOBAL _creat
   414                          	GLOBAL _open
   415                          	GLOBAL _gios_esc
   416                          	GLOBAL _gios_text
   417                          	GLOBAL _gios_1px_callee
   418                          	GLOBAL _gios_1px
   419                          	GLOBAL _gios_2px_callee
   420                          	GLOBAL _gios_2px
   421                          	GLOBAL _gios_1pm_callee
   422                          	GLOBAL _gios_1pm
   423                          	GLOBAL _gios
   424                          	GLOBAL _a_serialport
   425                          	GLOBAL _a_driveb
   426                          	GLOBAL _a_memsize
   427                          	GLOBAL _a_biosver
   428                          	GLOBAL _a_machinever
   429                          	GLOBAL _a_machine
   430                          	GLOBAL _a_cury
   431                          	GLOBAL _a_curx
   432                          	GLOBAL _a_ink
   433                          	GLOBAL _a_paper
   434                          	GLOBAL _a_border
   435                          	GLOBAL _a_keyspeed
   436                          	GLOBAL _a_statusline
   437                          	GLOBAL _get_dir_name
   438                          	GLOBAL _dir_get_entry_size
   439                          	GLOBAL _dir_get_entry_name
   440                          	GLOBAL _dir_get_entry_type
   441                          	GLOBAL _dir_move_next
   442                          	GLOBAL _dir_move_first
   443                          	GLOBAL _get_current_volume
   444                          	GLOBAL _change_volume
   445                          	GLOBAL __putoffset
   446                          	GLOBAL _swapuid
   447                          	GLOBAL _putoffset
   448                          	GLOBAL _parsefcb
   449                          	GLOBAL _setfcb
   450                          	GLOBAL _cpm_cache_flush
   451                          	GLOBAL _cpm_cache_get
   452                          	GLOBAL _getfcb
   453                          	GLOBAL _biosh
   454                          	GLOBAL _bios
   455                          	GLOBAL _bdosh_callee
   456                          	GLOBAL _bdosh
   457                          	GLOBAL _bdos_callee
   458                          	GLOBAL _bdos
   459                          	GLOBAL _get_dpb
   460                          	GLOBAL _unbcd
   461                          	GLOBAL _wcmatch
   462                          	GLOBAL _extract_bits_callee
   463                          	GLOBAL _extract_bits
   464                          	GLOBAL _msleep
   465                          	GLOBAL _sleep
   466                          	GLOBAL _t_delay
   467                          	GLOBAL _wpeek
   468                          	GLOBAL _bpeek
   469                          	GLOBAL _wpoke_callee
   470                          	GLOBAL _wpoke
   471                          	GLOBAL _bpoke_callee
   472                          	GLOBAL _bpoke
   473                          	GLOBAL _swapendian
   474                          	GLOBAL _outp_callee
   475                          	GLOBAL _outp
   476                          	GLOBAL _inp
   477                          	GLOBAL _isqrt
   478                          	GLOBAL _labs
   479                          	GLOBAL _abs
   480                          	GLOBAL __ldivu__callee
   481                          	GLOBAL __ldivu_
   482                          	GLOBAL __ldiv__callee
   483                          	GLOBAL __ldiv_
   484                          	GLOBAL __divu__callee
   485                          	GLOBAL __divu_
   486                          	GLOBAL __div__callee
   487                          	GLOBAL __div_
   488                          	GLOBAL _qsort_sdcc_callee
   489                          	GLOBAL _qsort_sdcc
   490                          	GLOBAL _qsort_sccz80_callee
   491                          	GLOBAL _qsort_sccz80
   492                          	GLOBAL _l_qsort_callee
   493                          	GLOBAL _l_qsort
   494                          	GLOBAL _l_bsearch_callee
   495                          	GLOBAL _l_bsearch
   496                          	GLOBAL _getopt
   497                          	GLOBAL _unsetenv
   498                          	GLOBAL _setenv
   499                          	GLOBAL _getenv_r
   500                          	GLOBAL _getenv
   501                          	GLOBAL _atexit
   502                          	GLOBAL _exit
   503                          	GLOBAL _HeapInfo_callee
   504                          	GLOBAL _HeapInfo
   505                          	GLOBAL _HeapRealloc_callee
   506                          	GLOBAL _HeapRealloc
   507                          	GLOBAL _HeapAlloc_callee
   508                          	GLOBAL _HeapAlloc
   509                          	GLOBAL _HeapFree_callee
   510                          	GLOBAL _HeapFree
   511                          	GLOBAL _HeapCalloc_callee
   512                          	GLOBAL _HeapCalloc
   513                          	GLOBAL _HeapSbrk_callee
   514                          	GLOBAL _HeapSbrk
   515                          	GLOBAL _HeapCreate
   516                          	GLOBAL _mallinfo_callee
   517                          	GLOBAL _mallinfo
   518                          	GLOBAL _realloc_callee
   519                          	GLOBAL _realloc
   520                          	GLOBAL _malloc
   521                          	GLOBAL _free
   522                          	GLOBAL _calloc_callee
   523                          	GLOBAL _calloc
   524                          	GLOBAL _sbrk_callee
   525                          	GLOBAL _sbrk
   526                          	GLOBAL _mallinit
   527                          	GLOBAL _srand
   528                          	GLOBAL _rand
   529                          	GLOBAL _ulltoa_callee
   530                          	GLOBAL _ulltoa
   531                          	GLOBAL _strtoull_callee
   532                          	GLOBAL _strtoull
   533                          	GLOBAL _strtoll_callee
   534                          	GLOBAL _strtoll
   535                          	GLOBAL _lltoa_callee
   536                          	GLOBAL _lltoa
   537                          	GLOBAL _atoll_callee
   538                          	GLOBAL _atoll
   539                          	GLOBAL _utoa_callee
   540                          	GLOBAL _utoa
   541                          	GLOBAL _ultoa_callee
   542                          	GLOBAL _ultoa
   543                          	GLOBAL _strtoul_callee
   544                          	GLOBAL _strtoul
   545                          	GLOBAL _strtol_callee
   546                          	GLOBAL _strtol
   547                          	GLOBAL _ltoa_callee
   548                          	GLOBAL _ltoa
   549                          	GLOBAL _itoa_callee
   550                          	GLOBAL _itoa
   551                          	GLOBAL _atol
   552                          	GLOBAL _atoi
   553                          	GLOBAL __sgoioblk_end
   554                          	GLOBAL __sgoioblk
   555                          	GLOBAL __FOPEN_MAX
   556                          	GLOBAL __RND_BLOCKSIZE
   557                          	GLOBAL _gios_ptsout
   558                          	GLOBAL _gios_intout
   559                          	GLOBAL _gios_ptsin
   560                          	GLOBAL _gios_intin
   561                          	GLOBAL _gios_ctl
   562                          	GLOBAL _gios_pb
   563                          	GLOBAL _fc_dirbuf
   564                          	GLOBAL _fc_dirpos
   565                          	GLOBAL _fc_dir
   566                          	GLOBAL __fcb
   567                          	GLOBAL __CLIB_OPEN_MAX
   568                          	GLOBAL _optreset
   569                          	GLOBAL _optopt
   570                          	GLOBAL _optind
   571                          	GLOBAL _opterr
   572                          	GLOBAL _optarg
   573                          ;--------------------------------------------------------
   574                          ; special function registers
   575                          ;--------------------------------------------------------
   576                          defc _IO_VDPDATA	=	0x00a0
   577                          defc _IO_VDPLATCH	=	0x00a1
   578                          defc _IO_AYDATA	=	0x0040
   579                          defc _IO_AYLATCH	=	0x0041
   580                          defc _IO_HCCA	=	0x0080
   581                          defc _IO_KEYBOARD	=	0x0090
   582                          defc _IO_KEYBOARD_STATUS	=	0x0091
   583                          defc _IO_CONTROL	=	0x0000
   584                          ;--------------------------------------------------------
   585                          ; ram data
   586                          ;--------------------------------------------------------
   587                          	SECTION bss_compiler
   588                          __vdp_textBuffer:
   589  0000  0000000000000000  	DEFS 960
              0000000000000000  
              0000000000000000  
              0000000000000000  
              0000000000000000  
              0000000000000000  
              0000000000000000  
              0000000000000000  
              0000000000000000  
              0000000000000000  
              0000000000000000  
              0000000000000000  
              0000000000000000  
              0000000000000000  
              0000000000000000  
              0000000000000000  
              0000000000000000  
              0000000000000000  
              0000000000000000  
              0000000000000000  
              0000000000000000  
              0000000000000000  
              0000000000000000  
              0000000000000000  
              0000000000000000  
              0000000000000000  
              0000000000000000  
              0000000000000000  
              0000000000000000  
              0000000000000000  
              0000000000000000  
              0000000000000000  
              0000000000000000  
              0000000000000000  
              0000000000000000  
              0000000000000000  
              0000000000000000  
              0000000000000000  
              0000000000000000  
              0000000000000000  
              0000000000000000  
              0000000000000000  
              0000000000000000  
              0000000000000000  
              0000000000000000  
              0000000000000000  
              0000000000000000  
              0000000000000000  
              0000000000000000  
              0000000000000000  
              0000000000000000  
              0000000000000000  
              0000000000000000  
              0000000000000000  
              0000000000000000  
              0000000000000000  
              0000000000000000  
              0000000000000000  
              0000000000000000  
              0000000000000000  
              0000000000000000  
              0000000000000000  
              0000000000000000  
              0000000000000000  
              0000000000000000  
              0000000000000000  
              0000000000000000  
              0000000000000000  
              0000000000000000  
              0000000000000000  
              0000000000000000  
              0000000000000000  
              0000000000000000  
              0000000000000000  
              0000000000000000  
              0000000000000000  
              0000000000000000  
              0000000000000000  
              0000000000000000  
              0000000000000000  
              0000000000000000  
              0000000000000000  
              0000000000000000  
              0000000000000000  
              0000000000000000  
              0000000000000000  
              0000000000000000  
              0000000000000000  
              0000000000000000  
              0000000000000000  
              0000000000000000  
              0000000000000000  
              0000000000000000  
              0000000000000000  
              0000000000000000  
              0000000000000000  
              0000000000000000  
              0000000000000000  
              0000000000000000  
              0000000000000000  
              0000000000000000  
              0000000000000000  
              0000000000000000  
              0000000000000000  
              0000000000000000  
              0000000000000000  
              0000000000000000  
              0000000000000000  
              0000000000000000  
              0000000000000000  
              0000000000000000  
              0000000000000000  
              0000000000000000  
              0000000000000000  
              0000000000000000  
              0000000000000000  
              0000000000000000  
              0000000000000000  
              0000000000000000  
              0000000000000000  
   590                          __vdp_ISR:
   591  03c0  0000              	DEFS 2
   592                          __vdp_sprite_attribute_table:
   593  03c2  0000              	DEFS 2
   594                          __vdp_sprite_pattern_table:
   595  03c4  0000              	DEFS 2
   596                          __vdp_sprite_size_sel:
   597  03c6  00                	DEFS 1
   598                          __vdp_name_table:
   599  03c7  0000              	DEFS 2
   600                          __vdp_color_table:
   601  03c9  0000              	DEFS 2
   602                          __vdp_pattern_table:
   603  03cb  0000              	DEFS 2
   604                          __vdp_mode:
   605  03cd  00                	DEFS 1
   606                          __vdp_fgcolor:
   607  03ce  00                	DEFS 1
   608                          __vdp_bgcolor:
   609  03cf  00                	DEFS 1
   610                          __autoScroll:
   611  03d0  00                	DEFS 1
   612                          defc _cpm_cursor	=	0xff10
   613                          ;--------------------------------------------------------
   614                          ; ram data
   615                          ;--------------------------------------------------------
   616                          
   617                          IF 0
   618                          
   619                          ; .area _INITIALIZED removed by z88dk
   620                          
   621                          __kbdBuffer:
   622                          	DEFS 256
   623                          __kbdBufferReadPos:
   624                          	DEFS 1
   625                          __kbdBufferWritePos:
   626                          	DEFS 1
   627                          __lastKeyboardIntVal:
   628                          	DEFS 1
   629                          __joyStatus:
   630                          	DEFS 4
   631                          __ORIGINAL_INT_MASK:
   632                          	DEFS 1
   633                          _RETRONET_BRIDGE_EXIT_CODE:
   634                          	DEFS 21
   635                          _vdp_cursor:
   636                          	DEFS 2
   637                          __vdpReg1Val:
   638                          	DEFS 1
   639                          __vdp_color_table_size:
   640                          	DEFS 2
   641                          __vdp_crsr_max_x:
   642                          	DEFS 1
   643                          _SPRITE_UFO:
   644                          	DEFS 32
   645                          _SPRITE_ROCK1:
   646                          	DEFS 32
   647                          _SPRITE_ROCK2:
   648                          	DEFS 32
   649                          _SPRITE_ROCK3:
   650                          	DEFS 32
   651                          _SPRITE_PELLET:
   652                          	DEFS 32
   653                          _SPRITE_DEAD:
   654                          	DEFS 32
   655                          _PLAYER_LIVES:
   656                          	DEFS 1
   657                          _PLAYER_CNT:
   658                          	DEFS 1
   659                          _PELLET_CNT:
   660                          	DEFS 1
   661                          _TIME:
   662                          	DEFS 1
   663                          _r:
   664                          	DEFS 1
   665                          __loopCntr:
   666                          	DEFS 2
   667                          __isCollision:
   668                          	DEFS 1
   669                          __speedCurve:
   670                          	DEFS 6
   671                          __player:
   672                          	DEFS 44
   673                          __rock:
   674                          	DEFS 54
   675                          
   676                          ENDIF
   677                          
   678                          ;--------------------------------------------------------
   679                          ; absolute external ram data
   680                          ;--------------------------------------------------------
   681                          	SECTION IGNORE
   682                          ;--------------------------------------------------------
   683                          ; global & static initialisations
   684                          ;--------------------------------------------------------
   685                          	SECTION code_crt_init
   686                          ;--------------------------------------------------------
   687                          ; Home
   688                          ;--------------------------------------------------------
   689                          	SECTION IGNORE
   690                          ;--------------------------------------------------------
   691                          ; code
   692                          ;--------------------------------------------------------
   693                          	SECTION code_compiler
   694                          ;	---------------------------------
   695                          ; Function initNABULib
   696                          ; ---------------------------------
   697                          _initNABULib:
   698  0000  3e00              	ld	a,0x03
   699  0002  d300              	out	(_IO_CONTROL), a
   700  0004  cd0000            	call	_NABU_DisableInterrupts
   701  0007  ed5e              	IM	2
   702  0009  3e00              	ld	a, 0xff
   703  000b  ed47              	ld	i, a
   704  000d  210000            	ld	hl, _isrKeyboard
   705  0010  220000            	ld	(0xff00 + 4), hl
   706  0013  3e00              	ld	a,0x0e
   707  0015  f5                	push	af
   708  0016  33                	inc	sp
   709  0017  cd0000            	call	_ayRead
   710  001a  33                	inc	sp
   711  001b  7d                	ld	a, l
   712  001c  320000            	ld	(__ORIGINAL_INT_MASK+0), a
   713  001f  3a0000            	ld	a, (__ORIGINAL_INT_MASK+0)
   714  0022  f600              	or	a,0x20
   715  0024  320000            	ld	(__ORIGINAL_INT_MASK+0), a
   716  0027  3a0000            	ld	a, (__ORIGINAL_INT_MASK+0)
   717  002a  57                	ld	d,a
   718  002b  1e00              	ld	e,0x0e
   719  002d  d5                	push	de
   720  002e  cd0000            	call	_ayWrite
   721  0031  f1                	pop	af
   722  0032  cd0000            	call	_NABU_EnableInterrupts
   723  0035  af                	xor	a, a
   724  0036  57                	ld	d,a
   725  0037  1e00              	ld	e,0x06
   726  0039  d5                	push	de
   727  003a  cd0000            	call	_ayWrite
   728  003d  f1                	pop	af
   729  003e  110000            	ld	de,0x1008
   730  0041  d5                	push	de
   731  0042  cd0000            	call	_ayWrite
   732  0045  f1                	pop	af
   733  0046  110000            	ld	de,0x1009
   734  0049  d5                	push	de
   735  004a  cd0000            	call	_ayWrite
   736  004d  f1                	pop	af
   737  004e  110000            	ld	de,0x100a
   738  0051  d5                	push	de
   739  0052  cd0000            	call	_ayWrite
   740  0055  f1                	pop	af
   741  0056  110000            	ld	de,0x7807
   742  0059  d5                	push	de
   743  005a  cd0000            	call	_ayWrite
   744  005d  f1                	pop	af
   745  005e  c9                	ret
   746                          	SECTION rodata_compiler
   747                          _ASCII:
   748  0000  00                	DEFB +0x00
   749  0001  00                	DEFB +0x00
   750  0002  00                	DEFB +0x00
   751  0003  00                	DEFB +0x00
   752  0004  00                	DEFB +0x00
   753  0005  00                	DEFB +0x00
   754  0006  00                	DEFB +0x00
   755  0007  00                	DEFB +0x00
   756  0008  00                	DEFB +0x20
   757  0009  00                	DEFB +0x20
   758  000a  00                	DEFB +0x20
   759  000b  00                	DEFB +0x20
   760  000c  00                	DEFB +0x20
   761  000d  00                	DEFB +0x00
   762  000e  00                	DEFB +0x20
   763  000f  00                	DEFB +0x00
   764  0010  00                	DEFB +0x50
   765  0011  00                	DEFB +0x50
   766  0012  00                	DEFB +0x50
   767  0013  00                	DEFB +0x00
   768  0014  00                	DEFB +0x00
   769  0015  00                	DEFB +0x00
   770  0016  00                	DEFB +0x00
   771  0017  00                	DEFB +0x00
   772  0018  00                	DEFB +0x50
   773  0019  00                	DEFB +0x50
   774  001a  00                	DEFB +0xf8
   775  001b  00                	DEFB +0x50
   776  001c  00                	DEFB +0xf8
   777  001d  00                	DEFB +0x50
   778  001e  00                	DEFB +0x50
   779  001f  00                	DEFB +0x00
   780  0020  00                	DEFB +0x20
   781  0021  00                	DEFB +0x78
   782  0022  00                	DEFB +0xa0
   783  0023  00                	DEFB +0x70
   784  0024  00                	DEFB +0x28
   785  0025  00                	DEFB +0xf0
   786  0026  00                	DEFB +0x20
   787  0027  00                	DEFB +0x00
   788  0028  00                	DEFB +0xc0
   789  0029  00                	DEFB +0xc8
   790  002a  00                	DEFB +0x10
   791  002b  00                	DEFB +0x20
   792  002c  00                	DEFB +0x40
   793  002d  00                	DEFB +0x98
   794  002e  00                	DEFB +0x18
   795  002f  00                	DEFB +0x00
   796  0030  00                	DEFB +0x40
   797  0031  00                	DEFB +0xa0
   798  0032  00                	DEFB +0xa0
   799  0033  00                	DEFB +0x40
   800  0034  00                	DEFB +0xa8
   801  0035  00                	DEFB +0x90
   802  0036  00                	DEFB +0x68
   803  0037  00                	DEFB +0x00
   804  0038  00                	DEFB +0x20
   805  0039  00                	DEFB +0x20
   806  003a  00                	DEFB +0x20
   807  003b  00                	DEFB +0x00
   808  003c  00                	DEFB +0x00
   809  003d  00                	DEFB +0x00
   810  003e  00                	DEFB +0x00
   811  003f  00                	DEFB +0x00
   812  0040  00                	DEFB +0x20
   813  0041  00                	DEFB +0x40
   814  0042  00                	DEFB +0x80
   815  0043  00                	DEFB +0x80
   816  0044  00                	DEFB +0x80
   817  0045  00                	DEFB +0x40
   818  0046  00                	DEFB +0x20
   819  0047  00                	DEFB +0x00
   820  0048  00                	DEFB +0x20
   821  0049  00                	DEFB +0x10
   822  004a  00                	DEFB +0x08
   823  004b  00                	DEFB +0x08
   824  004c  00                	DEFB +0x08
   825  004d  00                	DEFB +0x10
   826  004e  00                	DEFB +0x20
   827  004f  00                	DEFB +0x00
   828  0050  00                	DEFB +0x20
   829  0051  00                	DEFB +0xa8
   830  0052  00                	DEFB +0x70
   831  0053  00                	DEFB +0x20
   832  0054  00                	DEFB +0x70
   833  0055  00                	DEFB +0xa8
   834  0056  00                	DEFB +0x20
   835  0057  00                	DEFB +0x00
   836  0058  00                	DEFB +0x00
   837  0059  00                	DEFB +0x20
   838  005a  00                	DEFB +0x20
   839  005b  00                	DEFB +0xf8
   840  005c  00                	DEFB +0x20
   841  005d  00                	DEFB +0x20
   842  005e  00                	DEFB +0x00
   843  005f  00                	DEFB +0x00
   844  0060  00                	DEFB +0x00
   845  0061  00                	DEFB +0x00
   846  0062  00                	DEFB +0x00
   847  0063  00                	DEFB +0x00
   848  0064  00                	DEFB +0x20
   849  0065  00                	DEFB +0x20
   850  0066  00                	DEFB +0x40
   851  0067  00                	DEFB +0x00
   852  0068  00                	DEFB +0x00
   853  0069  00                	DEFB +0x00
   854  006a  00                	DEFB +0x00
   855  006b  00                	DEFB +0xf8
   856  006c  00                	DEFB +0x00
   857  006d  00                	DEFB +0x00
   858  006e  00                	DEFB +0x00
   859  006f  00                	DEFB +0x00
   860  0070  00                	DEFB +0x00
   861  0071  00                	DEFB +0x00
   862  0072  00                	DEFB +0x00
   863  0073  00                	DEFB +0x00
   864  0074  00                	DEFB +0x00
   865  0075  00                	DEFB +0x00
   866  0076  00                	DEFB +0x20
   867  0077  00                	DEFB +0x00
   868  0078  00                	DEFB +0x00
   869  0079  00                	DEFB +0x08
   870  007a  00                	DEFB +0x10
   871  007b  00                	DEFB +0x20
   872  007c  00                	DEFB +0x40
   873  007d  00                	DEFB +0x80
   874  007e  00                	DEFB +0x00
   875  007f  00                	DEFB +0x00
   876  0080  00                	DEFB +0x70
   877  0081  00                	DEFB +0x88
   878  0082  00                	DEFB +0x98
   879  0083  00                	DEFB +0xa8
   880  0084  00                	DEFB +0xc8
   881  0085  00                	DEFB +0x88
   882  0086  00                	DEFB +0x70
   883  0087  00                	DEFB +0x00
   884  0088  00                	DEFB +0x20
   885  0089  00                	DEFB +0x60
   886  008a  00                	DEFB +0x20
   887  008b  00                	DEFB +0x20
   888  008c  00                	DEFB +0x20
   889  008d  00                	DEFB +0x20
   890  008e  00                	DEFB +0x70
   891  008f  00                	DEFB +0x00
   892  0090  00                	DEFB +0x70
   893  0091  00                	DEFB +0x88
   894  0092  00                	DEFB +0x08
   895  0093  00                	DEFB +0x30
   896  0094  00                	DEFB +0x40
   897  0095  00                	DEFB +0x80
   898  0096  00                	DEFB +0xf8
   899  0097  00                	DEFB +0x00
   900  0098  00                	DEFB +0xf8
   901  0099  00                	DEFB +0x08
   902  009a  00                	DEFB +0x10
   903  009b  00                	DEFB +0x30
   904  009c  00                	DEFB +0x08
   905  009d  00                	DEFB +0x88
   906  009e  00                	DEFB +0x70
   907  009f  00                	DEFB +0x00
   908  00a0  00                	DEFB +0x10
   909  00a1  00                	DEFB +0x30
   910  00a2  00                	DEFB +0x50
   911  00a3  00                	DEFB +0x90
   912  00a4  00                	DEFB +0xf8
   913  00a5  00                	DEFB +0x10
   914  00a6  00                	DEFB +0x10
   915  00a7  00                	DEFB +0x00
   916  00a8  00                	DEFB +0xf8
   917  00a9  00                	DEFB +0x80
   918  00aa  00                	DEFB +0xf0
   919  00ab  00                	DEFB +0x08
   920  00ac  00                	DEFB +0x08
   921  00ad  00                	DEFB +0x88
   922  00ae  00                	DEFB +0x70
   923  00af  00                	DEFB +0x00
   924  00b0  00                	DEFB +0x38
   925  00b1  00                	DEFB +0x40
   926  00b2  00                	DEFB +0x80
   927  00b3  00                	DEFB +0xf0
   928  00b4  00                	DEFB +0x88
   929  00b5  00                	DEFB +0x88
   930  00b6  00                	DEFB +0x70
   931  00b7  00                	DEFB +0x00
   932  00b8  00                	DEFB +0xf8
   933  00b9  00                	DEFB +0x08
   934  00ba  00                	DEFB +0x10
   935  00bb  00                	DEFB +0x20
   936  00bc  00                	DEFB +0x40
   937  00bd  00                	DEFB +0x40
   938  00be  00                	DEFB +0x40
   939  00bf  00                	DEFB +0x00
   940  00c0  00                	DEFB +0x70
   941  00c1  00                	DEFB +0x88
   942  00c2  00                	DEFB +0x88
   943  00c3  00                	DEFB +0x70
   944  00c4  00                	DEFB +0x88
   945  00c5  00                	DEFB +0x88
   946  00c6  00                	DEFB +0x70
   947  00c7  00                	DEFB +0x00
   948  00c8  00                	DEFB +0x70
   949  00c9  00                	DEFB +0x88
   950  00ca  00                	DEFB +0x88
   951  00cb  00                	DEFB +0x78
   952  00cc  00                	DEFB +0x08
   953  00cd  00                	DEFB +0x10
   954  00ce  00                	DEFB +0xe0
   955  00cf  00                	DEFB +0x00
   956  00d0  00                	DEFB +0x00
   957  00d1  00                	DEFB +0x00
   958  00d2  00                	DEFB +0x20
   959  00d3  00                	DEFB +0x00
   960  00d4  00                	DEFB +0x20
   961  00d5  00                	DEFB +0x00
   962  00d6  00                	DEFB +0x00
   963  00d7  00                	DEFB +0x00
   964  00d8  00                	DEFB +0x00
   965  00d9  00                	DEFB +0x00
   966  00da  00                	DEFB +0x20
   967  00db  00                	DEFB +0x00
   968  00dc  00                	DEFB +0x20
   969  00dd  00                	DEFB +0x20
   970  00de  00                	DEFB +0x40
   971  00df  00                	DEFB +0x00
   972  00e0  00                	DEFB +0x10
   973  00e1  00                	DEFB +0x20
   974  00e2  00                	DEFB +0x40
   975  00e3  00                	DEFB +0x80
   976  00e4  00                	DEFB +0x40
   977  00e5  00                	DEFB +0x20
   978  00e6  00                	DEFB +0x10
   979  00e7  00                	DEFB +0x00
   980  00e8  00                	DEFB +0x00
   981  00e9  00                	DEFB +0x00
   982  00ea  00                	DEFB +0xf8
   983  00eb  00                	DEFB +0x00
   984  00ec  00                	DEFB +0xf8
   985  00ed  00                	DEFB +0x00
   986  00ee  00                	DEFB +0x00
   987  00ef  00                	DEFB +0x00
   988  00f0  00                	DEFB +0x40
   989  00f1  00                	DEFB +0x20
   990  00f2  00                	DEFB +0x10
   991  00f3  00                	DEFB +0x08
   992  00f4  00                	DEFB +0x10
   993  00f5  00                	DEFB +0x20
   994  00f6  00                	DEFB +0x40
   995  00f7  00                	DEFB +0x00
   996  00f8  00                	DEFB +0x70
   997  00f9  00                	DEFB +0x88
   998  00fa  00                	DEFB +0x10
   999  00fb  00                	DEFB +0x20
  1000  00fc  00                	DEFB +0x20
  1001  00fd  00                	DEFB +0x00
  1002  00fe  00                	DEFB +0x20
  1003  00ff  00                	DEFB +0x00
  1004  0100  00                	DEFB +0x70
  1005  0101  00                	DEFB +0x88
  1006  0102  00                	DEFB +0xa8
  1007  0103  00                	DEFB +0xb8
  1008  0104  00                	DEFB +0xb0
  1009  0105  00                	DEFB +0x80
  1010  0106  00                	DEFB +0x78
  1011  0107  00                	DEFB +0x00
  1012  0108  00                	DEFB +0x20
  1013  0109  00                	DEFB +0x50
  1014  010a  00                	DEFB +0x88
  1015  010b  00                	DEFB +0x88
  1016  010c  00                	DEFB +0xf8
  1017  010d  00                	DEFB +0x88
  1018  010e  00                	DEFB +0x88
  1019  010f  00                	DEFB +0x00
  1020  0110  00                	DEFB +0xf0
  1021  0111  00                	DEFB +0x88
  1022  0112  00                	DEFB +0x88
  1023  0113  00                	DEFB +0xf0
  1024  0114  00                	DEFB +0x88
  1025  0115  00                	DEFB +0x88
  1026  0116  00                	DEFB +0xf0
  1027  0117  00                	DEFB +0x00
  1028  0118  00                	DEFB +0x70
  1029  0119  00                	DEFB +0x88
  1030  011a  00                	DEFB +0x80
  1031  011b  00                	DEFB +0x80
  1032  011c  00                	DEFB +0x80
  1033  011d  00                	DEFB +0x88
  1034  011e  00                	DEFB +0x70
  1035  011f  00                	DEFB +0x00
  1036  0120  00                	DEFB +0xf0
  1037  0121  00                	DEFB +0x88
  1038  0122  00                	DEFB +0x88
  1039  0123  00                	DEFB +0x88
  1040  0124  00                	DEFB +0x88
  1041  0125  00                	DEFB +0x88
  1042  0126  00                	DEFB +0xf0
  1043  0127  00                	DEFB +0x00
  1044  0128  00                	DEFB +0xf8
  1045  0129  00                	DEFB +0x80
  1046  012a  00                	DEFB +0x80
  1047  012b  00                	DEFB +0xf0
  1048  012c  00                	DEFB +0x80
  1049  012d  00                	DEFB +0x80
  1050  012e  00                	DEFB +0xf8
  1051  012f  00                	DEFB +0x00
  1052  0130  00                	DEFB +0xf8
  1053  0131  00                	DEFB +0x80
  1054  0132  00                	DEFB +0x80
  1055  0133  00                	DEFB +0xf0
  1056  0134  00                	DEFB +0x80
  1057  0135  00                	DEFB +0x80
  1058  0136  00                	DEFB +0x80
  1059  0137  00                	DEFB +0x00
  1060  0138  00                	DEFB +0x78
  1061  0139  00                	DEFB +0x80
  1062  013a  00                	DEFB +0x80
  1063  013b  00                	DEFB +0x80
  1064  013c  00                	DEFB +0x98
  1065  013d  00                	DEFB +0x88
  1066  013e  00                	DEFB +0x78
  1067  013f  00                	DEFB +0x00
  1068  0140  00                	DEFB +0x88
  1069  0141  00                	DEFB +0x88
  1070  0142  00                	DEFB +0x88
  1071  0143  00                	DEFB +0xf8
  1072  0144  00                	DEFB +0x88
  1073  0145  00                	DEFB +0x88
  1074  0146  00                	DEFB +0x88
  1075  0147  00                	DEFB +0x00
  1076  0148  00                	DEFB +0x70
  1077  0149  00                	DEFB +0x20
  1078  014a  00                	DEFB +0x20
  1079  014b  00                	DEFB +0x20
  1080  014c  00                	DEFB +0x20
  1081  014d  00                	DEFB +0x20
  1082  014e  00                	DEFB +0x70
  1083  014f  00                	DEFB +0x00
  1084  0150  00                	DEFB +0x08
  1085  0151  00                	DEFB +0x08
  1086  0152  00                	DEFB +0x08
  1087  0153  00                	DEFB +0x08
  1088  0154  00                	DEFB +0x08
  1089  0155  00                	DEFB +0x88
  1090  0156  00                	DEFB +0x70
  1091  0157  00                	DEFB +0x00
  1092  0158  00                	DEFB +0x88
  1093  0159  00                	DEFB +0x90
  1094  015a  00                	DEFB +0xa0
  1095  015b  00                	DEFB +0xc0
  1096  015c  00                	DEFB +0xa0
  1097  015d  00                	DEFB +0x90
  1098  015e  00                	DEFB +0x88
  1099  015f  00                	DEFB +0x00
  1100  0160  00                	DEFB +0x80
  1101  0161  00                	DEFB +0x80
  1102  0162  00                	DEFB +0x80
  1103  0163  00                	DEFB +0x80
  1104  0164  00                	DEFB +0x80
  1105  0165  00                	DEFB +0x80
  1106  0166  00                	DEFB +0xf8
  1107  0167  00                	DEFB +0x00
  1108  0168  00                	DEFB +0x88
  1109  0169  00                	DEFB +0xd8
  1110  016a  00                	DEFB +0xa8
  1111  016b  00                	DEFB +0xa8
  1112  016c  00                	DEFB +0x88
  1113  016d  00                	DEFB +0x88
  1114  016e  00                	DEFB +0x88
  1115  016f  00                	DEFB +0x00
  1116  0170  00                	DEFB +0x88
  1117  0171  00                	DEFB +0x88
  1118  0172  00                	DEFB +0xc8
  1119  0173  00                	DEFB +0xa8
  1120  0174  00                	DEFB +0x98
  1121  0175  00                	DEFB +0x88
  1122  0176  00                	DEFB +0x88
  1123  0177  00                	DEFB +0x00
  1124  0178  00                	DEFB +0x70
  1125  0179  00                	DEFB +0x88
  1126  017a  00                	DEFB +0x88
  1127  017b  00                	DEFB +0x88
  1128  017c  00                	DEFB +0x88
  1129  017d  00                	DEFB +0x88
  1130  017e  00                	DEFB +0x70
  1131  017f  00                	DEFB +0x00
  1132  0180  00                	DEFB +0xf0
  1133  0181  00                	DEFB +0x88
  1134  0182  00                	DEFB +0x88
  1135  0183  00                	DEFB +0xf0
  1136  0184  00                	DEFB +0x80
  1137  0185  00                	DEFB +0x80
  1138  0186  00                	DEFB +0x80
  1139  0187  00                	DEFB +0x00
  1140  0188  00                	DEFB +0x70
  1141  0189  00                	DEFB +0x88
  1142  018a  00                	DEFB +0x88
  1143  018b  00                	DEFB +0x88
  1144  018c  00                	DEFB +0xa8
  1145  018d  00                	DEFB +0x90
  1146  018e  00                	DEFB +0x68
  1147  018f  00                	DEFB +0x00
  1148  0190  00                	DEFB +0xf0
  1149  0191  00                	DEFB +0x88
  1150  0192  00                	DEFB +0x88
  1151  0193  00                	DEFB +0xf0
  1152  0194  00                	DEFB +0xa0
  1153  0195  00                	DEFB +0x90
  1154  0196  00                	DEFB +0x88
  1155  0197  00                	DEFB +0x00
  1156  0198  00                	DEFB +0x70
  1157  0199  00                	DEFB +0x88
  1158  019a  00                	DEFB +0x80
  1159  019b  00                	DEFB +0x70
  1160  019c  00                	DEFB +0x08
  1161  019d  00                	DEFB +0x88
  1162  019e  00                	DEFB +0x70
  1163  019f  00                	DEFB +0x00
  1164  01a0  00                	DEFB +0xf8
  1165  01a1  00                	DEFB +0x20
  1166  01a2  00                	DEFB +0x20
  1167  01a3  00                	DEFB +0x20
  1168  01a4  00                	DEFB +0x20
  1169  01a5  00                	DEFB +0x20
  1170  01a6  00                	DEFB +0x20
  1171  01a7  00                	DEFB +0x00
  1172  01a8  00                	DEFB +0x88
  1173  01a9  00                	DEFB +0x88
  1174  01aa  00                	DEFB +0x88
  1175  01ab  00                	DEFB +0x88
  1176  01ac  00                	DEFB +0x88
  1177  01ad  00                	DEFB +0x88
  1178  01ae  00                	DEFB +0x70
  1179  01af  00                	DEFB +0x00
  1180  01b0  00                	DEFB +0x88
  1181  01b1  00                	DEFB +0x88
  1182  01b2  00                	DEFB +0x88
  1183  01b3  00                	DEFB +0x88
  1184  01b4  00                	DEFB +0x88
  1185  01b5  00                	DEFB +0x50
  1186  01b6  00                	DEFB +0x20
  1187  01b7  00                	DEFB +0x00
  1188  01b8  00                	DEFB +0x88
  1189  01b9  00                	DEFB +0x88
  1190  01ba  00                	DEFB +0x88
  1191  01bb  00                	DEFB +0xa8
  1192  01bc  00                	DEFB +0xa8
  1193  01bd  00                	DEFB +0xd8
  1194  01be  00                	DEFB +0x88
  1195  01bf  00                	DEFB +0x00
  1196  01c0  00                	DEFB +0x88
  1197  01c1  00                	DEFB +0x88
  1198  01c2  00                	DEFB +0x50
  1199  01c3  00                	DEFB +0x20
  1200  01c4  00                	DEFB +0x50
  1201  01c5  00                	DEFB +0x88
  1202  01c6  00                	DEFB +0x88
  1203  01c7  00                	DEFB +0x00
  1204  01c8  00                	DEFB +0x88
  1205  01c9  00                	DEFB +0x88
  1206  01ca  00                	DEFB +0x50
  1207  01cb  00                	DEFB +0x20
  1208  01cc  00                	DEFB +0x20
  1209  01cd  00                	DEFB +0x20
  1210  01ce  00                	DEFB +0x20
  1211  01cf  00                	DEFB +0x00
  1212  01d0  00                	DEFB +0xf8
  1213  01d1  00                	DEFB +0x08
  1214  01d2  00                	DEFB +0x10
  1215  01d3  00                	DEFB +0x20
  1216  01d4  00                	DEFB +0x40
  1217  01d5  00                	DEFB +0x80
  1218  01d6  00                	DEFB +0xf8
  1219  01d7  00                	DEFB +0x00
  1220  01d8  00                	DEFB +0x78
  1221  01d9  00                	DEFB +0x40
  1222  01da  00                	DEFB +0x40
  1223  01db  00                	DEFB +0x40
  1224  01dc  00                	DEFB +0x40
  1225  01dd  00                	DEFB +0x40
  1226  01de  00                	DEFB +0x78
  1227  01df  00                	DEFB +0x00
  1228  01e0  00                	DEFB +0x00
  1229  01e1  00                	DEFB +0x80
  1230  01e2  00                	DEFB +0x40
  1231  01e3  00                	DEFB +0x20
  1232  01e4  00                	DEFB +0x10
  1233  01e5  00                	DEFB +0x08
  1234  01e6  00                	DEFB +0x00
  1235  01e7  00                	DEFB +0x00
  1236  01e8  00                	DEFB +0xf0
  1237  01e9  00                	DEFB +0x10
  1238  01ea  00                	DEFB +0x10
  1239  01eb  00                	DEFB +0x10
  1240  01ec  00                	DEFB +0x10
  1241  01ed  00                	DEFB +0x10
  1242  01ee  00                	DEFB +0xf0
  1243  01ef  00                	DEFB +0x00
  1244  01f0  00                	DEFB +0x00
  1245  01f1  00                	DEFB +0x00
  1246  01f2  00                	DEFB +0x20
  1247  01f3  00                	DEFB +0x50
  1248  01f4  00                	DEFB +0x88
  1249  01f5  00                	DEFB +0x00
  1250  01f6  00                	DEFB +0x00
  1251  01f7  00                	DEFB +0x00
  1252  01f8  00                	DEFB +0x00
  1253  01f9  00                	DEFB +0x00
  1254  01fa  00                	DEFB +0x00
  1255  01fb  00                	DEFB +0x00
  1256  01fc  00                	DEFB +0x00
  1257  01fd  00                	DEFB +0x00
  1258  01fe  00                	DEFB +0x00
  1259  01ff  00                	DEFB +0xf8
  1260  0200  00                	DEFB +0x40
  1261  0201  00                	DEFB +0x20
  1262  0202  00                	DEFB +0x10
  1263  0203  00                	DEFB +0x00
  1264  0204  00                	DEFB +0x00
  1265  0205  00                	DEFB +0x00
  1266  0206  00                	DEFB +0x00
  1267  0207  00                	DEFB +0x00
  1268  0208  00                	DEFB +0x00
  1269  0209  00                	DEFB +0x10
  1270  020a  00                	DEFB +0x38
  1271  020b  00                	DEFB +0x7c
  1272  020c  00                	DEFB +0x7c
  1273  020d  00                	DEFB +0x7c
  1274  020e  00                	DEFB +0x44
  1275  020f  00                	DEFB +0x00
  1276  0210  00                	DEFB +0x00
  1277  0211  00                	DEFB +0x30
  1278  0212  00                	DEFB +0x48
  1279  0213  00                	DEFB +0x48
  1280  0214  00                	DEFB +0xfc
  1281  0215  00                	DEFB +0x78
  1282  0216  00                	DEFB +0x00
  1283  0217  00                	DEFB +0x00
  1284  0218  00                	DEFB +0x00
  1285  0219  00                	DEFB +0x44
  1286  021a  00                	DEFB +0x7c
  1287  021b  00                	DEFB +0x7c
  1288  021c  00                	DEFB +0x7c
  1289  021d  00                	DEFB +0x38
  1290  021e  00                	DEFB +0x10
  1291  021f  00                	DEFB +0x00
  1292  0220  00                	DEFB +0x00
  1293  0221  00                	DEFB +0x3c
  1294  0222  00                	DEFB +0x78
  1295  0223  00                	DEFB +0xf8
  1296  0224  00                	DEFB +0x78
  1297  0225  00                	DEFB +0x3c
  1298  0226  00                	DEFB +0x00
  1299  0227  00                	DEFB +0x00
  1300  0228  00                	DEFB +0x00
  1301  0229  00                	DEFB +0x00
  1302  022a  00                	DEFB +0xf0
  1303  022b  00                	DEFB +0x80
  1304  022c  00                	DEFB +0xe0
  1305  022d  00                	DEFB +0x80
  1306  022e  00                	DEFB +0xf0
  1307  022f  00                	DEFB +0x00
  1308  0230  00                	DEFB +0x20
  1309  0231  00                	DEFB +0x20
  1310  0232  00                	DEFB +0xf8
  1311  0233  00                	DEFB +0x20
  1312  0234  00                	DEFB +0x20
  1313  0235  00                	DEFB +0x20
  1314  0236  00                	DEFB +0x20
  1315  0237  00                	DEFB +0x00
  1316  0238  00                	DEFB +0x00
  1317  0239  00                	DEFB +0x00
  1318  023a  00                	DEFB +0x20
  1319  023b  00                	DEFB +0x70
  1320  023c  00                	DEFB +0x20
  1321  023d  00                	DEFB +0x00
  1322  023e  00                	DEFB +0x00
  1323  023f  00                	DEFB +0x00
  1324  0240  00                	DEFB +0x30
  1325  0241  00                	DEFB +0x30
  1326  0242  00                	DEFB +0x78
  1327  0243  00                	DEFB +0xfc
  1328  0244  00                	DEFB +0xcc
  1329  0245  00                	DEFB +0xcc
  1330  0246  00                	DEFB +0xfc
  1331  0247  00                	DEFB +0x00
  1332  0248  00                	DEFB +0x10
  1333  0249  00                	DEFB +0x20
  1334  024a  00                	DEFB +0x20
  1335  024b  00                	DEFB +0x70
  1336  024c  00                	DEFB +0xf8
  1337  024d  00                	DEFB +0xf8
  1338  024e  00                	DEFB +0x70
  1339  024f  00                	DEFB +0x00
  1340  0250  00                	DEFB +0x00
  1341  0251  00                	DEFB +0x00
  1342  0252  00                	DEFB +0x04
  1343  0253  00                	DEFB +0x18
  1344  0254  00                	DEFB +0x60
  1345  0255  00                	DEFB +0x80
  1346  0256  00                	DEFB +0x00
  1347  0257  00                	DEFB +0x00
  1348  0258  00                	DEFB +0x18
  1349  0259  00                	DEFB +0x64
  1350  025a  00                	DEFB +0x80
  1351  025b  00                	DEFB +0x00
  1352  025c  00                	DEFB +0x00
  1353  025d  00                	DEFB +0x00
  1354  025e  00                	DEFB +0x00
  1355  025f  00                	DEFB +0x00
  1356  0260  00                	DEFB +0x00
  1357  0261  00                	DEFB +0x80
  1358  0262  00                	DEFB +0x60
  1359  0263  00                	DEFB +0x18
  1360  0264  00                	DEFB +0x04
  1361  0265  00                	DEFB +0x00
  1362  0266  00                	DEFB +0x00
  1363  0267  00                	DEFB +0x00
  1364  0268  00                	DEFB +0x00
  1365  0269  00                	DEFB +0x00
  1366  026a  00                	DEFB +0x00
  1367  026b  00                	DEFB +0x00
  1368  026c  00                	DEFB +0x80
  1369  026d  00                	DEFB +0x64
  1370  026e  00                	DEFB +0x18
  1371  026f  00                	DEFB +0x00
  1372  0270  00                	DEFB +0x00
  1373  0271  00                	DEFB +0x00
  1374  0272  00                	DEFB +0x88
  1375  0273  00                	DEFB +0xc8
  1376  0274  00                	DEFB +0xa8
  1377  0275  00                	DEFB +0x98
  1378  0276  00                	DEFB +0x88
  1379  0277  00                	DEFB +0x00
  1380  0278  00                	DEFB +0x00
  1381  0279  00                	DEFB +0x00
  1382  027a  00                	DEFB +0x70
  1383  027b  00                	DEFB +0x88
  1384  027c  00                	DEFB +0x88
  1385  027d  00                	DEFB +0x88
  1386  027e  00                	DEFB +0x70
  1387  027f  00                	DEFB +0x00
  1388  0280  00                	DEFB +0x00
  1389  0281  00                	DEFB +0x00
  1390  0282  00                	DEFB +0xf0
  1391  0283  00                	DEFB +0x88
  1392  0284  00                	DEFB +0xf0
  1393  0285  00                	DEFB +0x80
  1394  0286  00                	DEFB +0x80
  1395  0287  00                	DEFB +0x00
  1396  0288  00                	DEFB +0x00
  1397  0289  00                	DEFB +0x00
  1398  028a  00                	DEFB +0xf8
  1399  028b  00                	DEFB +0x88
  1400  028c  00                	DEFB +0xa8
  1401  028d  00                	DEFB +0x90
  1402  028e  00                	DEFB +0xe8
  1403  028f  00                	DEFB +0x00
  1404  0290  00                	DEFB +0x00
  1405  0291  00                	DEFB +0x00
  1406  0292  00                	DEFB +0xf8
  1407  0293  00                	DEFB +0x88
  1408  0294  00                	DEFB +0xf8
  1409  0295  00                	DEFB +0xa0
  1410  0296  00                	DEFB +0x90
  1411  0297  00                	DEFB +0x00
  1412  0298  00                	DEFB +0x00
  1413  0299  00                	DEFB +0x00
  1414  029a  00                	DEFB +0x78
  1415  029b  00                	DEFB +0x80
  1416  029c  00                	DEFB +0x70
  1417  029d  00                	DEFB +0x08
  1418  029e  00                	DEFB +0xf0
  1419  029f  00                	DEFB +0x00
  1420  02a0  00                	DEFB +0x00
  1421  02a1  00                	DEFB +0x00
  1422  02a2  00                	DEFB +0xf8
  1423  02a3  00                	DEFB +0x20
  1424  02a4  00                	DEFB +0x20
  1425  02a5  00                	DEFB +0x20
  1426  02a6  00                	DEFB +0x20
  1427  02a7  00                	DEFB +0x00
  1428  02a8  00                	DEFB +0x00
  1429  02a9  00                	DEFB +0x00
  1430  02aa  00                	DEFB +0x88
  1431  02ab  00                	DEFB +0x88
  1432  02ac  00                	DEFB +0x88
  1433  02ad  00                	DEFB +0x88
  1434  02ae  00                	DEFB +0x70
  1435  02af  00                	DEFB +0x00
  1436  02b0  00                	DEFB +0x00
  1437  02b1  00                	DEFB +0x00
  1438  02b2  00                	DEFB +0x88
  1439  02b3  00                	DEFB +0x88
  1440  02b4  00                	DEFB +0x90
  1441  02b5  00                	DEFB +0xa0
  1442  02b6  00                	DEFB +0x40
  1443  02b7  00                	DEFB +0x00
  1444  02b8  00                	DEFB +0x00
  1445  02b9  00                	DEFB +0x00
  1446  02ba  00                	DEFB +0x88
  1447  02bb  00                	DEFB +0x88
  1448  02bc  00                	DEFB +0xa8
  1449  02bd  00                	DEFB +0xd8
  1450  02be  00                	DEFB +0x88
  1451  02bf  00                	DEFB +0x00
  1452  02c0  00                	DEFB +0x00
  1453  02c1  00                	DEFB +0x00
  1454  02c2  00                	DEFB +0x88
  1455  02c3  00                	DEFB +0x70
  1456  02c4  00                	DEFB +0x20
  1457  02c5  00                	DEFB +0x70
  1458  02c6  00                	DEFB +0x88
  1459  02c7  00                	DEFB +0x00
  1460  02c8  00                	DEFB +0x00
  1461  02c9  00                	DEFB +0x00
  1462  02ca  00                	DEFB +0x88
  1463  02cb  00                	DEFB +0x50
  1464  02cc  00                	DEFB +0x20
  1465  02cd  00                	DEFB +0x20
  1466  02ce  00                	DEFB +0x20
  1467  02cf  00                	DEFB +0x00
  1468  02d0  00                	DEFB +0x00
  1469  02d1  00                	DEFB +0x00
  1470  02d2  00                	DEFB +0xf8
  1471  02d3  00                	DEFB +0x10
  1472  02d4  00                	DEFB +0x20
  1473  02d5  00                	DEFB +0x40
  1474  02d6  00                	DEFB +0xf8
  1475  02d7  00                	DEFB +0x00
  1476  02d8  00                	DEFB +0x38
  1477  02d9  00                	DEFB +0x40
  1478  02da  00                	DEFB +0x20
  1479  02db  00                	DEFB +0xc0
  1480  02dc  00                	DEFB +0x20
  1481  02dd  00                	DEFB +0x40
  1482  02de  00                	DEFB +0x38
  1483  02df  00                	DEFB +0x00
  1484  02e0  00                	DEFB +0x40
  1485  02e1  00                	DEFB +0x20
  1486  02e2  00                	DEFB +0x10
  1487  02e3  00                	DEFB +0x08
  1488  02e4  00                	DEFB +0x10
  1489  02e5  00                	DEFB +0x20
  1490  02e6  00                	DEFB +0x40
  1491  02e7  00                	DEFB +0x00
  1492  02e8  00                	DEFB +0xe0
  1493  02e9  00                	DEFB +0x10
  1494  02ea  00                	DEFB +0x20
  1495  02eb  00                	DEFB +0x18
  1496  02ec  00                	DEFB +0x20
  1497  02ed  00                	DEFB +0x10
  1498  02ee  00                	DEFB +0xe0
  1499  02ef  00                	DEFB +0x00
  1500  02f0  00                	DEFB +0x40
  1501  02f1  00                	DEFB +0xa8
  1502  02f2  00                	DEFB +0x10
  1503  02f3  00                	DEFB +0x00
  1504  02f4  00                	DEFB +0x00
  1505  02f5  00                	DEFB +0x00
  1506  02f6  00                	DEFB +0x00
  1507  02f7  00                	DEFB +0x00
  1508  02f8  00                	DEFB +0xa8
  1509  02f9  00                	DEFB +0x50
  1510  02fa  00                	DEFB +0xa8
  1511  02fb  00                	DEFB +0x50
  1512  02fc  00                	DEFB +0xa8
  1513  02fd  00                	DEFB +0x50
  1514  02fe  00                	DEFB +0xa8
  1515  02ff  00                	DEFB +0x00
  1516                          __vdp_crsr_max_y:
  1517  0300  00                	DEFB +0x17
  1518                          __NOTES_COURSE:
  1519  0301  00                	DEFB +0x0d
  1520  0302  00                	DEFB +0x0c
  1521  0303  00                	DEFB +0x0b
  1522  0304  00                	DEFB +0x0b
  1523  0305  00                	DEFB +0x0a
  1524  0306  00                	DEFB +0x0a
  1525  0307  00                	DEFB +0x09
  1526  0308  00                	DEFB +0x08
  1527  0309  00                	DEFB +0x08
  1528  030a  00                	DEFB +0x07
  1529  030b  00                	DEFB +0x07
  1530  030c  00                	DEFB +0x07
  1531  030d  00                	DEFB +0x06
  1532  030e  00                	DEFB +0x06
  1533  030f  00                	DEFB +0x05
  1534  0310  00                	DEFB +0x05
  1535  0311  00                	DEFB +0x05
  1536  0312  00                	DEFB +0x05
  1537  0313  00                	DEFB +0x04
  1538  0314  00                	DEFB +0x04
  1539  0315  00                	DEFB +0x04
  1540  0316  00                	DEFB +0x03
  1541  0317  00                	DEFB +0x03
  1542  0318  00                	DEFB +0x03
  1543  0319  00                	DEFB +0x03
  1544  031a  00                	DEFB +0x03
  1545  031b  00                	DEFB +0x02
  1546  031c  00                	DEFB +0x02
  1547  031d  00                	DEFB +0x02
  1548  031e  00                	DEFB +0x02
  1549  031f  00                	DEFB +0x02
  1550  0320  00                	DEFB +0x02
  1551  0321  00                	DEFB +0x02
  1552  0322  00                	DEFB +0x01
  1553  0323  00                	DEFB +0x01
  1554  0324  00                	DEFB +0x01
  1555  0325  00                	DEFB +0x01
  1556  0326  00                	DEFB +0x01
  1557  0327  00                	DEFB +0x01
  1558  0328  00                	DEFB +0x01
  1559  0329  00                	DEFB +0x01
  1560  032a  00                	DEFB +0x01
  1561  032b  00                	DEFB +0x01
  1562  032c  00                	DEFB +0x01
  1563  032d  00                	DEFB +0x01
  1564  032e  00                	DEFB +0x00
  1565  032f  00                	DEFB +0x00
  1566  0330  00                	DEFB +0x00
  1567  0331  00                	DEFB +0x00
  1568  0332  00                	DEFB +0x00
  1569  0333  00                	DEFB +0x00
  1570  0334  00                	DEFB +0x00
  1571  0335  00                	DEFB +0x00
  1572  0336  00                	DEFB +0x00
  1573  0337  00                	DEFB +0x00
  1574  0338  00                	DEFB +0x00
  1575  0339  00                	DEFB +0x00
  1576  033a  00                	DEFB +0x00
  1577  033b  00                	DEFB +0x00
  1578  033c  00                	DEFB +0x00
  1579  033d  00                	DEFB +0x00
  1580  033e  00                	DEFB +0x00
  1581  033f  00                	DEFB +0x00
  1582  0340  00                	DEFB +0x00
  1583  0341  00                	DEFB +0x00
  1584  0342  00                	DEFB +0x00
  1585  0343  00                	DEFB +0x00
  1586  0344  00                	DEFB +0x00
  1587  0345  00                	DEFB +0x00
  1588  0346  00                	DEFB +0x00
  1589  0347  00                	DEFB +0x00
  1590  0348  00                	DEFB +0x00
  1591                          __NOTES_FINE:
  1592  0349  00                	DEFB +0x5c
  1593  034a  00                	DEFB +0x9c
  1594  034b  00                	DEFB +0xe7
  1595  034c  00                	DEFB +0x3c
  1596  034d  00                	DEFB +0x9b
  1597  034e  00                	DEFB +0x02
  1598  034f  00                	DEFB +0x72
  1599  0350  00                	DEFB +0xeb
  1600  0351  00                	DEFB +0x6a
  1601  0352  00                	DEFB +0xf2
  1602  0353  00                	DEFB +0x7f
  1603  0354  00                	DEFB +0x14
  1604  0355  00                	DEFB +0xae
  1605  0356  00                	DEFB +0x4e
  1606  0357  00                	DEFB +0xf3
  1607  0358  00                	DEFB +0x9e
  1608  0359  00                	DEFB +0x4d
  1609  035a  00                	DEFB +0x01
  1610  035b  00                	DEFB +0xb9
  1611  035c  00                	DEFB +0x75
  1612  035d  00                	DEFB +0x35
  1613  035e  00                	DEFB +0xf9
  1614  035f  00                	DEFB +0xbf
  1615  0360  00                	DEFB +0x8a
  1616  0361  00                	DEFB +0x57
  1617  0362  00                	DEFB +0x27
  1618  0363  00                	DEFB +0xf9
  1619  0364  00                	DEFB +0xcf
  1620  0365  00                	DEFB +0xa6
  1621  0366  00                	DEFB +0x80
  1622  0367  00                	DEFB +0x5c
  1623  0368  00                	DEFB +0x3a
  1624  0369  00                	DEFB +0x1a
  1625  036a  00                	DEFB +0xfc
  1626  036b  00                	DEFB +0xdf
  1627  036c  00                	DEFB +0xc5
  1628  036d  00                	DEFB +0xab
  1629  036e  00                	DEFB +0x93
  1630  036f  00                	DEFB +0x7c
  1631  0370  00                	DEFB +0x67
  1632  0371  00                	DEFB +0x53
  1633  0372  00                	DEFB +0x40
  1634  0373  00                	DEFB +0x2e
  1635  0374  00                	DEFB +0x1d
  1636  0375  00                	DEFB +0x0d
  1637  0376  00                	DEFB +0xfe
  1638  0377  00                	DEFB +0xef
  1639  0378  00                	DEFB +0xe2
  1640  0379  00                	DEFB +0xd5
  1641  037a  00                	DEFB +0xc9
  1642  037b  00                	DEFB +0xbe
  1643  037c  00                	DEFB +0xb3
  1644  037d  00                	DEFB +0xa9
  1645  037e  00                	DEFB +0xa0
  1646  037f  00                	DEFB +0x97
  1647  0380  00                	DEFB +0x8e
  1648  0381  00                	DEFB +0x86
  1649  0382  00                	DEFB +0x7f
  1650  0383  00                	DEFB +0x77
  1651  0384  00                	DEFB +0x71
  1652  0385  00                	DEFB +0x6a
  1653  0386  00                	DEFB +0x64
  1654  0387  00                	DEFB +0x5f
  1655  0388  00                	DEFB +0x59
  1656  0389  00                	DEFB +0x54
  1657  038a  00                	DEFB +0x50
  1658  038b  00                	DEFB +0x4b
  1659  038c  00                	DEFB +0x47
  1660  038d  00                	DEFB +0x43
  1661  038e  00                	DEFB +0x3f
  1662  038f  00                	DEFB +0x3b
  1663  0390  00                	DEFB +0x38
  1664                          	SECTION code_compiler
  1665                          ;	---------------------------------
  1666                          ; Function nop
  1667                          ; ---------------------------------
  1668                          _nop:
  1669  005f  00                	NOP
  1670  0060  c9                	ret
  1671                          	SECTION code_compiler
  1672                          ;	---------------------------------
  1673                          ; Function NABU_DisableInterrupts
  1674                          ; ---------------------------------
  1675                          _NABU_DisableInterrupts:
  1676  0061  f3                	di
  1677  0062  c9                	ret
  1678                          	SECTION code_compiler
  1679                          ;	---------------------------------
  1680                          ; Function NABU_EnableInterrupts
  1681                          ; ---------------------------------
  1682                          _NABU_EnableInterrupts:
  1683  0063  fb                	ei
  1684  0064  c9                	ret
  1685                          	SECTION code_compiler
  1686                          ;	---------------------------------
  1687                          ; Function isrKeyboard
  1688                          ; ---------------------------------
  1689                          _isrKeyboard:
  1690  0065  f5                	push	af
  1691  0066  c5                	push	bc
  1692  0067  d5                	push	de
  1693  0068  e5                	push	hl
  1694  0069  fde5              	push	iy
  1695  006b  db00              	in	a, (_IO_KEYBOARD)
  1696  006d  4f                	ld	c,a
  1697  006e  d600              	sub	a,0x80
  1698  0070  3800              	jr	C,l_isrKeyboard_00111
  1699  0072  3e00              	ld	a,0x83
  1700  0074  91                	sub	a, c
  1701  0075  3800              	jr	C,l_isrKeyboard_00111
  1702  0077  fd210000          	ld	iy,__lastKeyboardIntVal
  1703  007b  fd7100            	ld	(iy+0),c
  1704  007e  1800              	jr	l_isrKeyboard_00112
  1705                          l_isrKeyboard_00111:
  1706  0080  79                	ld	a, c
  1707  0081  d600              	sub	a,0x90
  1708  0083  3800              	jr	C,l_isrKeyboard_00107
  1709  0085  3e00              	ld	a,0x95
  1710  0087  91                	sub	a, c
  1711  0088  3000              	jr	NC,l_isrKeyboard_00112
  1712                          l_isrKeyboard_00107:
  1713  008a  3a0000            	ld	a, (__lastKeyboardIntVal+0)
  1714  008d  fe00              	cp	a,0x80
  1715  008f  2800              	jr	Z,l_isrKeyboard_00101
  1716  0091  fe00              	cp	a,0x81
  1717  0093  2800              	jr	Z,l_isrKeyboard_00102
  1718  0095  fe00              	cp	a,0x82
  1719  0097  2800              	jr	Z,l_isrKeyboard_00103
  1720  0099  d600              	sub	a,0x83
  1721  009b  2800              	jr	Z,l_isrKeyboard_00104
  1722  009d  1800              	jr	l_isrKeyboard_00105
  1723                          l_isrKeyboard_00101:
  1724  009f  fd210000          	ld	iy,__lastKeyboardIntVal
  1725  00a3  fd360000          	ld	(iy+0),0x00
  1726  00a7  210000            	ld	hl,__joyStatus
  1727  00aa  71                	ld	(hl), c
  1728  00ab  1800              	jr	l_isrKeyboard_00112
  1729                          l_isrKeyboard_00102:
  1730  00ad  fd210000          	ld	iy,__lastKeyboardIntVal
  1731  00b1  fd360000          	ld	(iy+0),0x00
  1732  00b5  210000            	ld	hl, +(__joyStatus + 1)
  1733  00b8  71                	ld	(hl), c
  1734  00b9  1800              	jr	l_isrKeyboard_00112
  1735                          l_isrKeyboard_00103:
  1736  00bb  fd210000          	ld	iy,__lastKeyboardIntVal
  1737  00bf  fd360000          	ld	(iy+0),0x00
  1738  00c3  210000            	ld	hl, +(__joyStatus + 2)
  1739  00c6  71                	ld	(hl), c
  1740  00c7  1800              	jr	l_isrKeyboard_00112
  1741                          l_isrKeyboard_00104:
  1742  00c9  fd210000          	ld	iy,__lastKeyboardIntVal
  1743  00cd  fd360000          	ld	(iy+0),0x00
  1744  00d1  210000            	ld	hl, +(__joyStatus + 3)
  1745  00d4  71                	ld	(hl), c
  1746  00d5  1800              	jr	l_isrKeyboard_00112
  1747                          l_isrKeyboard_00105:
  1748  00d7  210000            	ld	hl,__kbdBuffer+0
  1749  00da  ed5b0000          	ld	de, (__kbdBufferWritePos)
  1750  00de  1600              	ld	d,0x00
  1751  00e0  19                	add	hl, de
  1752  00e1  71                	ld	(hl), c
  1753  00e2  3a0000            	ld	a, (__kbdBufferWritePos+0)
  1754  00e5  3c                	inc	a
  1755  00e6  320000            	ld	(__kbdBufferWritePos+0), a
  1756                          l_isrKeyboard_00112:
  1757  00e9  fde1              	pop	iy
  1758  00eb  e1                	pop	hl
  1759  00ec  d1                	pop	de
  1760  00ed  c1                	pop	bc
  1761  00ee  f1                	pop	af
  1762  00ef  fb                	ei
  1763  00f0  ed4d              	reti
  1764                          ;	---------------------------------
  1765                          ; Function ayWrite
  1766                          ; ---------------------------------
  1767                          _ayWrite:
  1768  00f2  fd210000          	ld	iy,2
  1769  00f6  fd39              	add	iy, sp
  1770  00f8  fd7e00            	ld	a,(iy+0)
  1771  00fb  d300              	out	(_IO_AYLATCH), a
  1772  00fd  fd7e00            	ld	a,(iy+0+1)
  1773  0100  d300              	out	(_IO_AYDATA), a
  1774  0102  c9                	ret
  1775                          	SECTION code_compiler
  1776                          ;	---------------------------------
  1777                          ; Function ayRead
  1778                          ; ---------------------------------
  1779                          _ayRead:
  1780  0103  210000            	ld	hl,2+0
  1781  0106  39                	add	hl, sp
  1782  0107  7e                	ld	a, (hl)
  1783  0108  d300              	out	(_IO_AYLATCH), a
  1784  010a  db00              	in	a, (_IO_AYDATA)
  1785  010c  6f                	ld	l, a
  1786  010d  c9                	ret
  1787                          	SECTION code_compiler
  1788                          ;	---------------------------------
  1789                          ; Function playNoteDelay
  1790                          ; ---------------------------------
  1791                          _playNoteDelay:
  1792  010e  dde5              	push	ix
  1793  0110  dd210000          	ld	ix,0
  1794  0114  dd39              	add	ix,sp
  1795  0116  dd4e00            	ld	c,(ix+7)
  1796  0119  3e00              	ld	a,0x0b
  1797  011b  d300              	out	(_IO_AYLATCH), a
  1798  011d  79                	ld	a, c
  1799  011e  d300              	out	(_IO_AYDATA), a
  1800  0120  dd4e00            	ld	c,(ix+6)
  1801  0123  3e00              	ld	a,0x0c
  1802  0125  d300              	out	(_IO_AYLATCH), a
  1803  0127  79                	ld	a, c
  1804  0128  d300              	out	(_IO_AYDATA), a
  1805  012a  dd7e00            	ld	a,(ix+4)
  1806  012d  b7                	or	a, a
  1807  012e  2800              	jr	Z,l_playNoteDelay_00101
  1808  0130  dd7e00            	ld	a,(ix+4)
  1809  0133  3d                	dec	a
  1810  0134  2800              	jr	Z,l_playNoteDelay_00102
  1811  0136  dd7e00            	ld	a,(ix+4)
  1812  0139  d600              	sub	a,0x02
  1813  013b  ca0000            	jp	Z,l_playNoteDelay_00103
  1814  013e  c30000            	jp	l_playNoteDelay_00125
  1815                          l_playNoteDelay_00101:
  1816  0141  3e00              	ld	a,0x08
  1817  0143  d300              	out	(_IO_AYLATCH), a
  1818  0145  3e00              	ld	a,0x10
  1819  0147  d300              	out	(_IO_AYDATA), a
  1820  0149  3e00              	ld	a,0x09
  1821  014b  d300              	out	(_IO_AYLATCH), a
  1822  014d  3e00              	ld	a,0x00
  1823  014f  d300              	out	(_IO_AYDATA), a
  1824  0151  3e00              	ld	a,0x0a
  1825  0153  d300              	out	(_IO_AYLATCH), a
  1826  0155  3e00              	ld	a,0x00
  1827  0157  d300              	out	(_IO_AYDATA), a
  1828  0159  010000            	ld	bc,__NOTES_FINE+0
  1829  015c  dd6e00            	ld	l,(ix+5)
  1830  015f  2600              	ld	h,0x00
  1831  0161  09                	add	hl, bc
  1832  0162  4e                	ld	c, (hl)
  1833  0163  3e00              	ld	a,0x00
  1834  0165  d300              	out	(_IO_AYLATCH), a
  1835  0167  79                	ld	a, c
  1836  0168  d300              	out	(_IO_AYDATA), a
  1837  016a  010000            	ld	bc,__NOTES_COURSE+0
  1838  016d  dd6e00            	ld	l,(ix+5)
  1839  0170  2600              	ld	h,0x00
  1840  0172  09                	add	hl, bc
  1841  0173  4e                	ld	c, (hl)
  1842  0174  3e00              	ld	a,0x01
  1843  0176  d300              	out	(_IO_AYLATCH), a
  1844  0178  79                	ld	a, c
  1845  0179  d300              	out	(_IO_AYDATA), a
  1846  017b  3e00              	ld	a,0x0d
  1847  017d  d300              	out	(_IO_AYLATCH), a
  1848  017f  3e00              	ld	a,0x00
  1849  0181  d300              	out	(_IO_AYDATA), a
  1850  0183  c30000            	jp	l_playNoteDelay_00125
  1851                          l_playNoteDelay_00102:
  1852  0186  3e00              	ld	a,0x08
  1853  0188  d300              	out	(_IO_AYLATCH), a
  1854  018a  3e00              	ld	a,0x00
  1855  018c  d300              	out	(_IO_AYDATA), a
  1856  018e  3e00              	ld	a,0x09
  1857  0190  d300              	out	(_IO_AYLATCH), a
  1858  0192  3e00              	ld	a,0x10
  1859  0194  d300              	out	(_IO_AYDATA), a
  1860  0196  3e00              	ld	a,0x0a
  1861  0198  d300              	out	(_IO_AYLATCH), a
  1862  019a  3e00              	ld	a,0x00
  1863  019c  d300              	out	(_IO_AYDATA), a
  1864  019e  010000            	ld	bc,__NOTES_FINE+0
  1865  01a1  dd6e00            	ld	l,(ix+5)
  1866  01a4  2600              	ld	h,0x00
  1867  01a6  09                	add	hl, bc
  1868  01a7  4e                	ld	c, (hl)
  1869  01a8  3e00              	ld	a,0x02
  1870  01aa  d300              	out	(_IO_AYLATCH), a
  1871  01ac  79                	ld	a, c
  1872  01ad  d300              	out	(_IO_AYDATA), a
  1873  01af  010000            	ld	bc,__NOTES_COURSE+0
  1874  01b2  dd6e00            	ld	l,(ix+5)
  1875  01b5  2600              	ld	h,0x00
  1876  01b7  09                	add	hl, bc
  1877  01b8  4e                	ld	c, (hl)
  1878  01b9  3e00              	ld	a,0x03
  1879  01bb  d300              	out	(_IO_AYLATCH), a
  1880  01bd  79                	ld	a, c
  1881  01be  d300              	out	(_IO_AYDATA), a
  1882  01c0  3e00              	ld	a,0x0d
  1883  01c2  d300              	out	(_IO_AYLATCH), a
  1884  01c4  3e00              	ld	a,0x00
  1885  01c6  d300              	out	(_IO_AYDATA), a
  1886  01c8  1800              	jr	l_playNoteDelay_00125
  1887                          l_playNoteDelay_00103:
  1888  01ca  3e00              	ld	a,0x08
  1889  01cc  d300              	out	(_IO_AYLATCH), a
  1890  01ce  3e00              	ld	a,0x00
  1891  01d0  d300              	out	(_IO_AYDATA), a
  1892  01d2  3e00              	ld	a,0x09
  1893  01d4  d300              	out	(_IO_AYLATCH), a
  1894  01d6  3e00              	ld	a,0x00
  1895  01d8  d300              	out	(_IO_AYDATA), a
  1896  01da  3e00              	ld	a,0x0a
  1897  01dc  d300              	out	(_IO_AYLATCH), a
  1898  01de  3e00              	ld	a,0x10
  1899  01e0  d300              	out	(_IO_AYDATA), a
  1900  01e2  010000            	ld	bc,__NOTES_FINE+0
  1901  01e5  dd6e00            	ld	l,(ix+5)
  1902  01e8  2600              	ld	h,0x00
  1903  01ea  09                	add	hl, bc
  1904  01eb  4e                	ld	c, (hl)
  1905  01ec  3e00              	ld	a,0x04
  1906  01ee  d300              	out	(_IO_AYLATCH), a
  1907  01f0  79                	ld	a, c
  1908  01f1  d300              	out	(_IO_AYDATA), a
  1909  01f3  010000            	ld	bc,__NOTES_COURSE+0
  1910  01f6  dd6e00            	ld	l,(ix+5)
  1911  01f9  2600              	ld	h,0x00
  1912  01fb  09                	add	hl, bc
  1913  01fc  4e                	ld	c, (hl)
  1914  01fd  3e00              	ld	a,0x05
  1915  01ff  d300              	out	(_IO_AYLATCH), a
  1916  0201  79                	ld	a, c
  1917  0202  d300              	out	(_IO_AYDATA), a
  1918  0204  3e00              	ld	a,0x0d
  1919  0206  d300              	out	(_IO_AYLATCH), a
  1920  0208  3e00              	ld	a,0x00
  1921  020a  d300              	out	(_IO_AYDATA), a
  1922                          l_playNoteDelay_00125:
  1923  020c  dde1              	pop	ix
  1924  020e  c9                	ret
  1925                          	SECTION code_compiler
  1926                          ;	---------------------------------
  1927                          ; Function isKeyPressed
  1928                          ; ---------------------------------
  1929                          _isKeyPressed:
  1930  020f  3a0000            	ld	a, (__kbdBufferWritePos+0)
  1931  0212  fd210000          	ld	iy,__kbdBufferReadPos
  1932  0216  fd9600            	sub	a,(iy+0)
  1933  0219  2000              	jr	NZ,l_isKeyPressed_00103
  1934  021b  3e00              	ld	a,0x01
  1935  021d  1800              	jr	l_isKeyPressed_00104
  1936                          l_isKeyPressed_00103:
  1937  021f  af                	xor	a,a
  1938                          l_isKeyPressed_00104:
  1939  0220  ee00              	xor	a,0x01
  1940  0222  6f                	ld	l, a
  1941  0223  c9                	ret
  1942                          	SECTION code_compiler
  1943                          ;	---------------------------------
  1944                          ; Function getChar
  1945                          ; ---------------------------------
  1946                          _getChar:
  1947  0224  010000            	ld	bc,0x0000
  1948                          l_getChar_00111:
  1949  0227  3a0000            	ld	a, (__kbdBufferWritePos+0)
  1950  022a  fd210000          	ld	iy,__kbdBufferReadPos
  1951  022e  fd9600            	sub	a,(iy+0)
  1952  0231  2000              	jr	NZ,l_getChar_00114
  1953  0233  79                	ld	a, c
  1954  0234  3d                	dec	a
  1955  0235  b0                	or	a, b
  1956  0236  2000              	jr	NZ,l_getChar_00107
  1957  0238  3a0000            	ld	a, ((_vdp_cursor + 1) + 0)
  1958  023b  210000            	ld	hl,_vdp_cursor + 0
  1959  023e  56                	ld	d, (hl)
  1960  023f  c5                	push	bc
  1961  0240  2600              	ld	h,0x5f
  1962  0242  e5                	push	hl
  1963  0243  33                	inc	sp
  1964  0244  f5                	push	af
  1965  0245  33                	inc	sp
  1966  0246  d5                	push	de
  1967  0247  33                	inc	sp
  1968  0248  cd0000            	call	_vdp_writeCharAtLocation
  1969  024b  f1                	pop	af
  1970  024c  33                	inc	sp
  1971  024d  c1                	pop	bc
  1972  024e  1800              	jr	l_getChar_00108
  1973                          l_getChar_00107:
  1974  0250  79                	ld	a, c
  1975  0251  d600              	sub	a,0x98
  1976  0253  181d              	jr	NZ,l_getChar_00104
  1977  0255  80                	ld	a, b
  1978  0256  003a              	sub	a,0x3a
  1979  0258  1818              	jr	NZ,l_getChar_00104
  1980  025a  801e01            	ld	hl, +(_vdp_cursor + 1) + 0
  1981  025d  00                	ld	d, (hl)
  1982  025e  001d01            	ld	a, (_vdp_cursor + 0)
  1983  0261  80                	push	bc
  1984  0262  6020              	ld	h,0x20
  1985  0264  04                	push	hl
  1986  0265  00                	inc	sp
  1987  0266  00                	push	de
  1988  0267  00                	inc	sp
  1989  0268  00                	push	af
  1990  0269  00                	inc	sp
  1991  026a  00e70c            	call	_vdp_writeCharAtLocation
  1992  026d  64                	pop	af
  1993  026e  18                	inc	sp
  1994  026f  00                	pop	bc
  1995  0270  000b              	jr	l_getChar_00108
  1996                          l_getChar_00104:
  1997  0272  8830              	ld	a,0x30
  1998  0274  a8                	cp	a, c
  1999  0275  9875              	ld	a,0x75
  2000  0277  00                	sbc	a, b
  2001  0278  0003              	jr	NC,l_getChar_00108
  2002  027a  700000            	ld	bc,0x0000
  2003                          l_getChar_00108:
  2004  027d  88                	inc	bc
  2005  027e  70a7              	jr	l_getChar_00111
  2006                          l_getChar_00114:
  2007  0280  001e01            	ld	a, ((_vdp_cursor + 1) + 0)
  2008  0283  881d01            	ld	hl,_vdp_cursor + 0
  2009  0286  80                	ld	b, (hl)
  2010  0287  0020              	ld	h,0x20
  2011  0289  00                	push	hl
  2012  028a  f8                	inc	sp
  2013  028b  88                	push	af
  2014  028c  a8                	inc	sp
  2015  028d  90                	push	bc
  2016  028e  e8                	inc	sp
  2017  028f  00e70c            	call	_vdp_writeCharAtLocation
  2018  0292  f8                	pop	af
  2019  0293  88                	inc	sp
  2020  0294  f80000            	ld	bc,__kbdBuffer+0
  2021  0297  000001            	ld	hl, (__kbdBufferReadPos)
  2022  029a  7800              	ld	h,0x00
  2023  029c  70                	add	hl, bc
  2024  029d  08                	ld	c, (hl)
  2025  029e  f00001            	ld	a, (__kbdBufferReadPos+0)
  2026  02a1  00                	inc	a
  2027  02a2  f80001            	ld	(__kbdBufferReadPos+0), a
  2028  02a5  20                	ld	l, c
  2029  02a6  20                	ret
  2030                          	SECTION code_compiler
  2031                          ;	---------------------------------
  2032                          ; Function getJoyStatus
  2033                          ; ---------------------------------
  2034                          _getJoyStatus:
  2035  02a7  0003              	ld	a, +((__joyStatus) & 0xFF)
  2036  02a9  000200            	ld	hl,2
  2037  02ac  88                	add	hl, sp
  2038  02ad  88                	add	a, (hl)
  2039  02ae  70                	ld	l, a
  2040  02af  0001              	ld	a, +((__joyStatus) / 256)
  2041  02b1  0000              	adc	a,0x00
  2042  02b3  88                	ld	h, a
  2043  02b4  90                	ld	l, (hl)
  2044  02b5  a0                	ret
  2045                          	SECTION code_compiler
  2046                          ;	---------------------------------
  2047                          ; Function readLine
  2048                          ; ---------------------------------
  2049                          _readLine:
  2050  02b6  4000              	push	ix
  2051  02b8  00000000          	ld	ix,0
  2052  02bc  a8d8              	add	ix,sp
  2053  02be  8800              	ld	c,0x00
  2054                          l_readLine_00120:
  2055  02c0  00                	push	bc
  2056  02c1  002402            	call	_getChar
  2057  02c4  20                	ld	e, l
  2058  02c5  70                	pop	bc
  2059  02c6  88                	ld	a, e
  2060  02c7  000d              	sub	a,0x0d
  2061  02c9  005203            	jp	Z,l_readLine_00121
  2062  02cc  20                	ld	a, c
  2063  02cd  202006            	sub	a,(ix+6)
  2064  02d0  0020              	jr	NC,l_readLine_00112
  2065  02d2  f8                	ld	a, e
  2066  02d3  1020              	sub	a,0x20
  2067  02d5  401b              	jr	C,l_readLine_00112
  2068  02d7  007e              	ld	a,0x7e
  2069  02d9  40                	sub	a, e
  2070  02da  2016              	jr	C,l_readLine_00112
  2071  02dc  204004            	ld	l,(ix+4)
  2072  02df  004005            	ld	h,(ix+5)
  2073  02e2  1000              	ld	b,0x00
  2074  02e4  10                	add	hl, bc
  2075  02e5  20                	ld	(hl), e
  2076  02e6  40                	push	bc
  2077  02e7  00                	ld	a, e
  2078  02e8  e0                	push	af
  2079  02e9  10                	inc	sp
  2080  02ea  200f0c            	call	_vdp_write
  2081  02ed  10                	inc	sp
  2082  02ee  e0                	pop	bc
  2083  02ef  00                	inc	c
  2084  02f0  40ce              	jr	l_readLine_00120
  2085                          l_readLine_00112:
  2086  02f2  10                	ld	a, e
  2087  02f3  007f              	sub	a,0x7f
  2088  02f5  0004              	jr	NZ,l_readLine_00175
  2089  02f7  0001              	ld	a,0x01
  2090  02f9  5001              	jr	l_readLine_00176
  2091                          l_readLine_00175:
  2092  02fb  50                	xor	a,a
  2093                          l_readLine_00176:
  2094  02fc  a8                	ld	b, a
  2095  02fd  50a806            	ld	a,(ix+6)
  2096  0300  17                	sub	a, c
  2097  0301  0d18              	jr	NZ,l_readLine_00108
  2098  0303  0b0b              	bit	0, b
  2099  0305  0a14              	jr	NZ,l_readLine_00108
  2100  0307  09                	push	bc
  2101  0308  080a00            	ld	hl,0x000a
  2102  030b  07                	push	hl
  2103  030c  073c              	ld	a,0x3c
  2104  030e  06                	push	af
  2105  030f  05                	inc	sp
  2106  0310  05                	xor	a, a
  2107  0311  05                	push	af
  2108  0312  05                	inc	sp
  2109  0313  040e01            	call	_playNoteDelay
  2110  0316  03                	pop	af
  2111  0317  03                	pop	af
  2112  0318  03                	pop	bc
  2113  0319  03a5              	jr	l_readLine_00120
  2114                          l_readLine_00108:
  2115  031b  02                	ld	a, b
  2116  031c  02                	or	a, a
  2117  031d  02a1              	jr	Z,l_readLine_00120
  2118  031f  02                	ld	a, c
  2119  0320  02                	or	a, a
  2120  0321  029d              	jr	Z,l_readLine_00120
  2121  0323  011d01            	ld	de,_vdp_cursor+0
  2122  0326  01                	ld	a, (de)
  2123  0327  01                	or	a, a
  2124  0328  010c              	jr	NZ,l_readLine_00102
  2125  032a  0127              	ld	a,0x27
  2126  032c  01                	ld	(de), a
  2127  032d  011e01            	ld	a, ((_vdp_cursor + 1) + 0)
  2128  0330  00                	dec	a
  2129  0331  001e01            	ld	((_vdp_cursor + 1)),a
  2130  0334  0002              	jr	l_readLine_00103
  2131                          l_readLine_00102:
  2132  0336  00                	dec	a
  2133  0337  00                	ld	(de), a
  2134                          l_readLine_00103:
  2135  0338  00                	dec	c
  2136  0339  001e01            	ld	a, ((_vdp_cursor + 1) + 0)
  2137  033c  001d01            	ld	hl,_vdp_cursor + 0
  2138  033f  00                	ld	b, (hl)
  2139  0340  00                	push	bc
  2140  0341  0020              	ld	h,0x20
  2141  0343  00                	push	hl
  2142  0344  00                	inc	sp
  2143  0345  00                	push	af
  2144  0346  00                	inc	sp
  2145  0347  00                	push	bc
  2146  0348  00                	inc	sp
  2147  0349  5ce70c            	call	_vdp_writeCharAtLocation
  2148  034c  3c                	pop	af
  2149  034d  9b                	inc	sp
  2150  034e  02                	pop	bc
  2151  034f  72c002            	jp	l_readLine_00120
  2152                          l_readLine_00121:
  2153  0352  f2                	ld	l, c
  2154  0353  7f14              	pop	ix
  2155  0355  ae                	ret
  2156                          	SECTION code_compiler
  2157                          ;	---------------------------------
  2158                          ; Function vdp_addISR
  2159                          ; ---------------------------------
  2160                          _vdp_addISR:
  2161  0356  4ef30200          	ld	iy,2
  2162  035a  01b9              	add	iy, sp
  2163  035c  753500            	ld	a,(iy+0)
  2164  035f  bfc003            	ld	(__vdp_ISR+0), a
  2165  0362  27f901            	ld	a,(iy+1)
  2166  0365  a6c103            	ld	(__vdp_ISR+1), a
  2167  0368  3a                	di
  2168  0369  1ac003            	ld	hl, (__vdp_ISR)
  2169  036c  c506ff            	ld	(0xff00 + 6), hl
  2170  036f  7c0701            	ld	a, (__ORIGINAL_INT_MASK+0)
  2171  0372  4010              	or	a,0x10
  2172  0374  1d0701            	ld	(__ORIGINAL_INT_MASK+0), a
  2173  0377  ef0701            	ld	a, (__ORIGINAL_INT_MASK+0)
  2174  037a  c9                	push	af
  2175  037b  be0e              	ld	a,0x0e
  2176  037d  a941              	out	(_IO_AYLATCH), a
  2177  037f  97                	pop	af
  2178  0380  8e40              	out	(_IO_AYDATA), a
  2179  0382  7f                	ei
  2180  0383  771f01            	ld	a, (__vdpReg1Val+0)
  2181  0386  6420              	or	a,0x20
  2182  0388  59a1              	out	(_IO_VDPLATCH), a
  2183  038a  5081              	ld	a,0x81
  2184  038c  47a1              	out	(_IO_VDPLATCH), a
  2185  038e  3f                	ret
  2186                          	SECTION code_compiler
  2187                          ;	---------------------------------
  2188                          ; Function vdp_removeISR
  2189                          ; ---------------------------------
  2190                          _vdp_removeISR:
  2191  038f  3b1f00            	ld	a, (__vdpReg1Val+0)
  2192  0392  d300              	out	(_IO_VDPLATCH), a
  2193  0394  3e00              	ld	a,0x81
  2194  0396  d300              	out	(_IO_VDPLATCH), a
  2195  0398  f3                	di
  2196  0399  3a0000            	ld	a, (__ORIGINAL_INT_MASK+0)
  2197  039c  ee00              	xor	a,0x10
  2198  039e  320000            	ld	(__ORIGINAL_INT_MASK+0), a
  2199  03a1  3a0000            	ld	a, (__ORIGINAL_INT_MASK+0)
  2200  03a4  f5                	push	af
  2201  03a5  3e00              	ld	a,0x0e
  2202  03a7  d300              	out	(_IO_AYLATCH), a
  2203  03a9  f1                	pop	af
  2204  03aa  d300              	out	(_IO_AYDATA), a
  2205  03ac  fb                	ei
  2206  03ad  c9                	ret
  2207                          	SECTION code_compiler
  2208                          ;	---------------------------------
  2209                          ; Function vdp_init
  2210                          ; ---------------------------------
  2211                          _vdp_init:
  2212  03ae  dde5              	push	ix
  2213  03b0  dd210000          	ld	ix,0
  2214  03b4  dd39              	add	ix,sp
  2215  03b6  f5                	push	af
  2216  03b7  f5                	push	af
  2217  03b8  dd7e00            	ld	a,(ix+4)
  2218  03bb  320000            	ld	(__vdp_mode+0), a
  2219  03be  dd7e00            	ld	a,(ix+6)
  2220  03c1  320000            	ld	(__vdp_sprite_size_sel+0), a
  2221  03c4  dd7e00            	ld	a,(ix+8)
  2222  03c7  320000            	ld	(__autoScroll+0), a
  2223  03ca  3e00              	ld	a,0x00
  2224  03cc  d300              	out	(_IO_VDPLATCH), a
  2225  03ce  3e00              	ld	a,0x40
  2226  03d0  d300              	out	(_IO_VDPLATCH), a
  2227  03d2  010000            	ld	bc,0x0000
  2228                          l_vdp_init_00144:
  2229  03d5  79                	ld	a, c
  2230  03d6  d600              	sub	a,0xff
  2231  03d8  78                	ld	a, b
  2232  03d9  17                	rla
  2233  03da  3f                	ccf
  2234  03db  1f                	rra
  2235  03dc  de00              	sbc	a,0xbf
  2236  03de  3000              	jr	NC,l_vdp_init_00101
  2237  03e0  3e00              	ld	a,0x00
  2238  03e2  d300              	out	(_IO_VDPDATA), a
  2239  03e4  03                	inc	bc
  2240  03e5  1800              	jr	l_vdp_init_00144
  2241                          l_vdp_init_00101:
  2242  03e7  dd7e00            	ld	a,(ix+4)
  2243  03ea  b7                	or	a, a
  2244  03eb  2800              	jr	Z,l_vdp_init_00102
  2245  03ed  dd7e00            	ld	a,(ix+4)
  2246  03f0  3d                	dec	a
  2247  03f1  ca0000            	jp	Z,l_vdp_init_00104
  2248  03f4  dd7e00            	ld	a,(ix+4)
  2249  03f7  d600              	sub	a,0x02
  2250  03f9  ca0000            	jp	Z,l_vdp_init_00109
  2251  03fc  dd7e00            	ld	a,(ix+4)
  2252  03ff  d600              	sub	a,0x03
  2253  0401  ca0000            	jp	Z,l_vdp_init_00106
  2254  0404  c30000            	jp	l_vdp_init_00112
  2255                          l_vdp_init_00102:
  2256  0407  3e00              	ld	a,0x00
  2257  0409  d300              	out	(_IO_VDPLATCH), a
  2258  040b  3e00              	ld	a,0x80
  2259  040d  d300              	out	(_IO_VDPLATCH), a
  2260  040f  dd7e00            	ld	a,(ix+6)
  2261  0412  87                	add	a, a
  2262  0413  f600              	or	a,0xc0
  2263  0415  ddb600            	or	a,(ix+7)
  2264  0418  320000            	ld	(__vdpReg1Val+0), a
  2265  041b  3a0000            	ld	a, (__vdpReg1Val+0)
  2266  041e  d300              	out	(_IO_VDPLATCH), a
  2267  0420  3e00              	ld	a,0x81
  2268  0422  d300              	out	(_IO_VDPLATCH), a
  2269  0424  3e00              	ld	a,0x05
  2270  0426  d300              	out	(_IO_VDPLATCH), a
  2271  0428  3e00              	ld	a,0x82
  2272  042a  d300              	out	(_IO_VDPLATCH), a
  2273  042c  3e00              	ld	a,0x80
  2274  042e  d300              	out	(_IO_VDPLATCH), a
  2275  0430  3e00              	ld	a,0x83
  2276  0432  d300              	out	(_IO_VDPLATCH), a
  2277  0434  3e00              	ld	a,0x01
  2278  0436  d300              	out	(_IO_VDPLATCH), a
  2279  0438  3e00              	ld	a,0x84
  2280  043a  d300              	out	(_IO_VDPLATCH), a
  2281  043c  3e20              	ld	a,0x20
  2282  043e  d3a1              	out	(_IO_VDPLATCH), a
  2283  0440  3e85              	ld	a,0x85
  2284  0442  d3a1              	out	(_IO_VDPLATCH), a
  2285  0444  3e00              	ld	a,0x00
  2286  0446  d3a1              	out	(_IO_VDPLATCH), a
  2287  0448  3e86              	ld	a,0x86
  2288  044a  d3a1              	out	(_IO_VDPLATCH), a
  2289  044c  210000            	ld	hl,0x0000
  2290  044f  22c403            	ld	(__vdp_sprite_pattern_table), hl
  2291  0452  2608              	ld	h,0x08
  2292  0454  22cb03            	ld	(__vdp_pattern_table), hl
  2293  0457  2610              	ld	h,0x10
  2294  0459  22c203            	ld	(__vdp_sprite_attribute_table), hl
  2295  045c  2614              	ld	h,0x14
  2296  045e  22c703            	ld	(__vdp_name_table), hl
  2297  0461  2620              	ld	h,0x20
  2298  0463  22c903            	ld	(__vdp_color_table), hl
  2299  0466  212000            	ld	hl,0x0020
  2300  0469  222001            	ld	(__vdp_color_table_size), hl
  2301  046c  3e00              	ld	a,0x00
  2302  046e  d3a1              	out	(_IO_VDPLATCH), a
  2303  0470  3e49              	ld	a,0x49
  2304  0472  d3a1              	out	(_IO_VDPLATCH), a
  2305  0474  af                	xor	a, a
  2306  0475  dd77fe            	ld	(ix-2),a
  2307  0478  dd77ff            	ld	(ix-1),a
  2308                          l_vdp_init_00147:
  2309  047b  dd7eff            	ld	a,(ix-1)
  2310  047e  d603              	sub	a,0x03
  2311  0480  d22f06            	jp	NC, l_vdp_init_00112
  2312  0483  3e00              	ld	a, +((_ASCII) & 0xFF)
  2313  0485  dd86fe            	add	a,(ix-2)
  2314  0488  dd77fc            	ld	(ix-4),a
  2315  048b  3e00              	ld	a, +((_ASCII) / 256)
  2316  048d  dd8eff            	adc	a,(ix-1)
  2317  0490  dd77fd            	ld	(ix-3),a
  2318  0493  e1                	pop	hl
  2319  0494  e5                	push	hl
  2320  0495  7e                	ld	a, (hl)
  2321  0496  d3a0              	out	(_IO_VDPDATA), a
  2322  0498  dd34fe            	inc	(ix-2)
  2323  049b  20de              	jr	NZ,l_vdp_init_00147
  2324  049d  dd34ff            	inc	(ix-1)
  2325  04a0  18d9              	jr	l_vdp_init_00147
  2326                          l_vdp_init_00104:
  2327  04a2  3e02              	ld	a,0x02
  2328  04a4  d3a1              	out	(_IO_VDPLATCH), a
  2329  04a6  3e80              	ld	a,0x80
  2330  04a8  d3a1              	out	(_IO_VDPLATCH), a
  2331  04aa  dd7e06            	ld	a,(ix+6)
  2332  04ad  87                	add	a, a
  2333  04ae  f6c0              	or	a,0xc0
  2334  04b0  ddb607            	or	a,(ix+7)
  2335  04b3  321f01            	ld	(__vdpReg1Val+0), a
  2336  04b6  3a1f01            	ld	a, (__vdpReg1Val+0)
  2337  04b9  d3a1              	out	(_IO_VDPLATCH), a
  2338  04bb  3e81              	ld	a,0x81
  2339  04bd  d3a1              	out	(_IO_VDPLATCH), a
  2340  04bf  3e0e              	ld	a,0x0e
  2341  04c1  d3a1              	out	(_IO_VDPLATCH), a
  2342  04c3  3e82              	ld	a,0x82
  2343  04c5  d3a1              	out	(_IO_VDPLATCH), a
  2344  04c7  3eff              	ld	a,0xff
  2345  04c9  d3a1              	out	(_IO_VDPLATCH), a
  2346  04cb  3e83              	ld	a,0x83
  2347  04cd  d3a1              	out	(_IO_VDPLATCH), a
  2348  04cf  3e03              	ld	a,0x03
  2349  04d1  d3a1              	out	(_IO_VDPLATCH), a
  2350  04d3  3e84              	ld	a,0x84
  2351  04d5  d3a1              	out	(_IO_VDPLATCH), a
  2352  04d7  3e76              	ld	a,0x76
  2353  04d9  d3a1              	out	(_IO_VDPLATCH), a
  2354  04db  3e85              	ld	a,0x85
  2355  04dd  d3a1              	out	(_IO_VDPLATCH), a
  2356  04df  3e03              	ld	a,0x03
  2357  04e1  d3a1              	out	(_IO_VDPLATCH), a
  2358  04e3  3e86              	ld	a,0x86
  2359  04e5  d3a1              	out	(_IO_VDPLATCH), a
  2360  04e7  210000            	ld	hl,0x0000
  2361  04ea  22cb03            	ld	(__vdp_pattern_table), hl
  2362  04ed  2618              	ld	h,0x18
  2363  04ef  22c403            	ld	(__vdp_sprite_pattern_table), hl
  2364  04f2  2620              	ld	h,0x20
  2365  04f4  22c903            	ld	(__vdp_color_table), hl
  2366  04f7  2638              	ld	h,0x38
  2367  04f9  22c703            	ld	(__vdp_name_table), hl
  2368  04fc  263b              	ld	h,0x3b
  2369  04fe  22c203            	ld	(__vdp_sprite_attribute_table), hl
  2370  0501  2618              	ld	h,0x18
  2371  0503  222001            	ld	(__vdp_color_table_size), hl
  2372  0506  3e00              	ld	a,0x00
  2373  0508  d3a1              	out	(_IO_VDPLATCH), a
  2374  050a  3e78              	ld	a,0x78
  2375  050c  d3a1              	out	(_IO_VDPLATCH), a
  2376  050e  010000            	ld	bc,0x0000
  2377                          l_vdp_init_00150:
  2378  0511  78                	ld	a, b
  2379  0512  d603              	sub	a,0x03
  2380  0514  d22f06            	jp	NC, l_vdp_init_00112
  2381  0517  210000            	ld	hl,_ASCII
  2382  051a  09                	add	hl, bc
  2383  051b  7e                	ld	a, (hl)
  2384  051c  d3a0              	out	(_IO_VDPDATA), a
  2385  051e  03                	inc	bc
  2386  051f  18f0              	jr	l_vdp_init_00150
  2387                          l_vdp_init_00106:
  2388  0521  3e00              	ld	a,0x00
  2389  0523  d3a1              	out	(_IO_VDPLATCH), a
  2390  0525  3e80              	ld	a,0x80
  2391  0527  d3a1              	out	(_IO_VDPLATCH), a
  2392  0529  211f01            	ld	hl,__vdpReg1Val + 0
  2393  052c  36d2              	ld	(hl),0xd2
  2394  052e  3a1f01            	ld	a, (__vdpReg1Val+0)
  2395  0531  d3a1              	out	(_IO_VDPLATCH), a
  2396  0533  3e81              	ld	a,0x81
  2397  0535  d3a1              	out	(_IO_VDPLATCH), a
  2398  0537  3e02              	ld	a,0x02
  2399  0539  d3a1              	out	(_IO_VDPLATCH), a
  2400  053b  3e82              	ld	a,0x82
  2401  053d  d3a1              	out	(_IO_VDPLATCH), a
  2402  053f  3e00              	ld	a,0x00
  2403  0541  d3a1              	out	(_IO_VDPLATCH), a
  2404  0543  3e84              	ld	a,0x84
  2405  0545  d3a1              	out	(_IO_VDPLATCH), a
  2406  0547  210000            	ld	hl,0x0000
  2407  054a  22cb03            	ld	(__vdp_pattern_table), hl
  2408  054d  2608              	ld	h,0x08
  2409  054f  22c703            	ld	(__vdp_name_table), hl
  2410  0552  212201            	ld	hl,__vdp_crsr_max_x + 0
  2411  0555  3627              	ld	(hl),0x27
  2412  0557  3e00              	ld	a,0x00
  2413  0559  d3a1              	out	(_IO_VDPLATCH), a
  2414  055b  3e41              	ld	a,0x41
  2415  055d  d3a1              	out	(_IO_VDPLATCH), a
  2416  055f  010000            	ld	bc,0x0000
  2417                          l_vdp_init_00153:
  2418  0562  79                	ld	a, c
  2419  0563  d6c0              	sub	a,0xc0
  2420  0565  78                	ld	a, b
  2421  0566  de03              	sbc	a,0x03
  2422  0568  3009              	jr	NC,l_vdp_init_00107
  2423  056a  210000            	ld	hl,__vdp_textBuffer
  2424  056d  09                	add	hl, bc
  2425  056e  3620              	ld	(hl),0x20
  2426  0570  03                	inc	bc
  2427  0571  18ef              	jr	l_vdp_init_00153
  2428                          l_vdp_init_00107:
  2429  0573  010000            	ld	bc,0x0000
  2430                          l_vdp_init_00156:
  2431  0576  78                	ld	a, b
  2432  0577  d603              	sub	a,0x03
  2433  0579  300a              	jr	NC,l_vdp_init_00108
  2434  057b  210000            	ld	hl,_ASCII
  2435  057e  09                	add	hl, bc
  2436  057f  7e                	ld	a, (hl)
  2437  0580  d3a0              	out	(_IO_VDPDATA), a
  2438  0582  03                	inc	bc
  2439  0583  18f1              	jr	l_vdp_init_00156
  2440                          l_vdp_init_00108:
  2441  0585  af                	xor	a, a
  2442  0586  f5                	push	af
  2443  0587  33                	inc	sp
  2444  0588  af                	xor	a, a
  2445  0589  f5                	push	af
  2446  058a  33                	inc	sp
  2447  058b  cd5b0b            	call	_vdp_setCursor2
  2448  058e  f1                	pop	af
  2449  058f  c32f06            	jp	l_vdp_init_00112
  2450                          l_vdp_init_00109:
  2451  0592  3e00              	ld	a,0x00
  2452  0594  d3a1              	out	(_IO_VDPLATCH), a
  2453  0596  3e80              	ld	a,0x80
  2454  0598  d3a1              	out	(_IO_VDPLATCH), a
  2455  059a  dd7e06            	ld	a,(ix+6)
  2456  059d  87                	add	a, a
  2457  059e  f6c8              	or	a,0xc8
  2458  05a0  ddb607            	or	a,(ix+7)
  2459  05a3  321f01            	ld	(__vdpReg1Val+0), a
  2460  05a6  3a1f01            	ld	a, (__vdpReg1Val+0)
  2461  05a9  d3a1              	out	(_IO_VDPLATCH), a
  2462  05ab  3e81              	ld	a,0x81
  2463  05ad  d3a1              	out	(_IO_VDPLATCH), a
  2464  05af  3e05              	ld	a,0x05
  2465  05b1  d3a1              	out	(_IO_VDPLATCH), a
  2466  05b3  3e82              	ld	a,0x82
  2467  05b5  d3a1              	out	(_IO_VDPLATCH), a
  2468  05b7  3e01              	ld	a,0x01
  2469  05b9  d3a1              	out	(_IO_VDPLATCH), a
  2470  05bb  3e84              	ld	a,0x84
  2471  05bd  d3a1              	out	(_IO_VDPLATCH), a
  2472  05bf  3e76              	ld	a,0x76
  2473  05c1  d3a1              	out	(_IO_VDPLATCH), a
  2474  05c3  3e85              	ld	a,0x85
  2475  05c5  d3a1              	out	(_IO_VDPLATCH), a
  2476  05c7  3e03              	ld	a,0x03
  2477  05c9  d3a1              	out	(_IO_VDPLATCH), a
  2478  05cb  3e86              	ld	a,0x86
  2479  05cd  d3a1              	out	(_IO_VDPLATCH), a
  2480  05cf  210008            	ld	hl,0x0800
  2481  05d2  22cb03            	ld	(__vdp_pattern_table), hl
  2482  05d5  2614              	ld	h,0x14
  2483  05d7  22c703            	ld	(__vdp_name_table), hl
  2484  05da  263b              	ld	h,0x3b
  2485  05dc  22c203            	ld	(__vdp_sprite_attribute_table), hl
  2486  05df  2618              	ld	h,0x18
  2487  05e1  22c403            	ld	(__vdp_sprite_pattern_table), hl
  2488  05e4  3e00              	ld	a,0x00
  2489  05e6  d3a1              	out	(_IO_VDPLATCH), a
  2490  05e8  3e54              	ld	a,0x54
  2491  05ea  d3a1              	out	(_IO_VDPLATCH), a
  2492  05ec  dd36ff00          	ld	(ix-1),0x00
  2493                          l_vdp_init_00162:
  2494  05f0  dd7eff            	ld	a,(ix-1)
  2495  05f3  d618              	sub	a,0x18
  2496  05f5  3038              	jr	NC,l_vdp_init_00112
  2497  05f7  010000            	ld	bc,0x0000
  2498                          l_vdp_init_00159:
  2499  05fa  79                	ld	a, c
  2500  05fb  d620              	sub	a,0x20
  2501  05fd  78                	ld	a, b
  2502  05fe  de00              	sbc	a,0x00
  2503  0600  3028              	jr	NC,l_vdp_init_00163
  2504  0602  dd6eff            	ld	l,(ix-1)
  2505  0605  2600              	ld	h,0x00
  2506  0607  5d                	ld	e, l
  2507  0608  54                	ld	d, h
  2508  0609  cb7c              	bit	7, h
  2509  060b  2804              	jr	Z,l_vdp_init_00166
  2510  060d  eb                	ex	de, hl
  2511  060e  13                	inc	de
  2512  060f  13                	inc	de
  2513  0610  13                	inc	de
  2514                          l_vdp_init_00166:
  2515  0611  cb2a              	sra	d
  2516  0613  cb1b              	rr	e
  2517  0615  cb2a              	sra	d
  2518  0617  cb1b              	rr	e
  2519  0619  eb                	ex	de,hl
  2520  061a  29                	add	hl, hl
  2521  061b  29                	add	hl, hl
  2522  061c  29                	add	hl, hl
  2523  061d  29                	add	hl, hl
  2524  061e  29                	add	hl, hl
  2525  061f  09                	add	hl, bc
  2526  0620  110000            	ld	de,_ASCII
  2527  0623  19                	add	hl, de
  2528  0624  7e                	ld	a, (hl)
  2529  0625  d3a0              	out	(_IO_VDPDATA), a
  2530  0627  03                	inc	bc
  2531  0628  18d0              	jr	l_vdp_init_00159
  2532                          l_vdp_init_00163:
  2533  062a  dd34ff            	inc	(ix-1)
  2534  062d  18c1              	jr	l_vdp_init_00162
  2535                          l_vdp_init_00112:
  2536  062f  dd7e05            	ld	a,(ix+5)
  2537  0632  d3a1              	out	(_IO_VDPLATCH), a
  2538  0634  3e87              	ld	a,0x87
  2539  0636  d3a1              	out	(_IO_VDPLATCH), a
  2540  0638  ddf9              	ld	sp, ix
  2541  063a  dde1              	pop	ix
  2542  063c  c9                	ret
  2543                          	SECTION code_compiler
  2544                          ;	---------------------------------
  2545                          ; Function vdp_initTextModeFont
  2546                          ; ---------------------------------
  2547                          _vdp_initTextModeFont:
  2548  063d  2acb03            	ld	hl, (__vdp_pattern_table)
  2549  0640  110001            	ld	de,0x0100
  2550  0643  19                	add	hl, de
  2551  0644  7d                	ld	a, l
  2552  0645  d3a1              	out	(_IO_VDPLATCH), a
  2553  0647  7c                	ld	a, h
  2554  0648  e63f              	and	a,0x3f
  2555  064a  f640              	or	a,0x40
  2556  064c  d3a1              	out	(_IO_VDPLATCH), a
  2557  064e  010000            	ld	bc,0x0000
  2558                          l_vdp_initTextModeFont_00104:
  2559  0651  78                	ld	a, b
  2560  0652  d603              	sub	a,0x03
  2561  0654  d0                	ret	NC
  2562  0655  210200            	ld	hl,2
  2563  0658  39                	add	hl, sp
  2564  0659  7e                	ld	a, (hl)
  2565  065a  23                	inc	hl
  2566  065b  66                	ld	h, (hl)
  2567  065c  6f                	ld	l, a
  2568  065d  09                	add	hl, bc
  2569  065e  7e                	ld	a, (hl)
  2570  065f  d3a0              	out	(_IO_VDPDATA), a
  2571  0661  03                	inc	bc
  2572  0662  18ed              	jr	l_vdp_initTextModeFont_00104
  2573                          	SECTION code_compiler
  2574                          ;	---------------------------------
  2575                          ; Function vdp_colorize
  2576                          ; ---------------------------------
  2577                          _vdp_colorize:
  2578  0664  dde5              	push	ix
  2579  0666  dd210000          	ld	ix,0
  2580  066a  dd39              	add	ix,sp
  2581  066c  3acd03            	ld	a, (__vdp_mode+0)
  2582  066f  3d                	dec	a
  2583  0670  2044              	jr	NZ,l_vdp_colorize_00108
  2584  0672  211e01            	ld	hl,_vdp_cursor + 1
  2585  0675  4e                	ld	c, (hl)
  2586  0676  3a2201            	ld	a, (__vdp_crsr_max_x+0)
  2587  0679  1600              	ld	d,0x00
  2588  067b  5f                	ld	e, a
  2589  067c  13                	inc	de
  2590  067d  0600              	ld	b,0x00
  2591  067f  d5                	push	de
  2592  0680  c5                	push	bc
  2593  0681  cd0000            	call	__mulint_callee
  2594  0684  eb                	ex	de, hl
  2595  0685  3a1d01            	ld	a, (_vdp_cursor + 0)
  2596  0688  6f                	ld	l, a
  2597  0689  2600              	ld	h,0x00
  2598  068b  19                	add	hl, de
  2599  068c  29                	add	hl, hl
  2600  068d  29                	add	hl, hl
  2601  068e  29                	add	hl, hl
  2602  068f  4d                	ld	c, l
  2603  0690  44                	ld	b, h
  2604  0691  2ac903            	ld	hl, (__vdp_color_table)
  2605  0694  09                	add	hl, bc
  2606  0695  7d                	ld	a, l
  2607  0696  d3a1              	out	(_IO_VDPLATCH), a
  2608  0698  7c                	ld	a, h
  2609  0699  e63f              	and	a,0x3f
  2610  069b  f640              	or	a,0x40
  2611  069d  d3a1              	out	(_IO_VDPLATCH), a
  2612  069f  0e00              	ld	c,0x00
  2613                          l_vdp_colorize_00106:
  2614  06a1  79                	ld	a, c
  2615  06a2  d608              	sub	a,0x08
  2616  06a4  3010              	jr	NC,l_vdp_colorize_00108
  2617  06a6  dd7e04            	ld	a,(ix+4)
  2618  06a9  87                	add	a, a
  2619  06aa  87                	add	a, a
  2620  06ab  87                	add	a, a
  2621  06ac  87                	add	a, a
  2622  06ad  dd4605            	ld	b,(ix+5)
  2623  06b0  80                	add	a, b
  2624  06b1  d3a0              	out	(_IO_VDPDATA), a
  2625  06b3  0c                	inc	c
  2626  06b4  18eb              	jr	l_vdp_colorize_00106
  2627                          l_vdp_colorize_00108:
  2628  06b6  dde1              	pop	ix
  2629  06b8  c9                	ret
  2630                          	SECTION code_compiler
  2631                          ;	---------------------------------
  2632                          ; Function vdp_plotHires
  2633                          ; ---------------------------------
  2634                          _vdp_plotHires:
  2635  06b9  dde5              	push	ix
  2636  06bb  dd210000          	ld	ix,0
  2637  06bf  dd39              	add	ix,sp
  2638  06c1  21fbff            	ld	hl, -5
  2639  06c4  39                	add	hl, sp
  2640  06c5  f9                	ld	sp, hl
  2641  06c6  dd7e04            	ld	a,(ix+4)
  2642  06c9  dd77fb            	ld	(ix-5),a
  2643  06cc  dd36fc00          	ld	(ix-4),0x00
  2644  06d0  e1                	pop	hl
  2645  06d1  e5                	push	hl
  2646  06d2  ddcbfc7e          	bit	7,(ix-4)
  2647  06d6  2806              	jr	Z,l_vdp_plotHires_00110
  2648  06d8  e1                	pop	hl
  2649  06d9  e5                	push	hl
  2650  06da  110700            	ld	de,0x0007
  2651  06dd  19                	add	hl, de
  2652                          l_vdp_plotHires_00110:
  2653  06de  cb2c              	sra	h
  2654  06e0  cb1d              	rr	l
  2655  06e2  cb2c              	sra	h
  2656  06e4  cb1d              	rr	l
  2657  06e6  cb2c              	sra	h
  2658  06e8  cb1d              	rr	l
  2659  06ea  29                	add	hl, hl
  2660  06eb  29                	add	hl, hl
  2661  06ec  29                	add	hl, hl
  2662  06ed  dd4e05            	ld	c,(ix+5)
  2663  06f0  0600              	ld	b,0x00
  2664  06f2  79                	ld	a, c
  2665  06f3  e607              	and	a,0x07
  2666  06f5  5f                	ld	e, a
  2667  06f6  1600              	ld	d,0x00
  2668  06f8  19                	add	hl, de
  2669  06f9  eb                	ex	de, hl
  2670  06fa  69                	ld	l, c
  2671  06fb  60                	ld	h, b
  2672  06fc  cb78              	bit	7, b
  2673  06fe  2804              	jr	Z,l_vdp_plotHires_00111
  2674  0700  210700            	ld	hl,0x0007
  2675  0703  09                	add	hl, bc
  2676                          l_vdp_plotHires_00111:
  2677  0704  cb2c              	sra	h
  2678  0706  cb1d              	rr	l
  2679  0708  cb2c              	sra	h
  2680  070a  cb1d              	rr	l
  2681  070c  cb2c              	sra	h
  2682  070e  cb1d              	rr	l
  2683  0710  65                	ld	h, l
  2684  0711  2e00              	ld	l,0x00
  2685  0713  19                	add	hl, de
  2686  0714  eb                	ex	de, hl
  2687  0715  3acb03            	ld	a, (__vdp_pattern_table+0)
  2688  0718  83                	add	a, e
  2689  0719  4f                	ld	c, a
  2690  071a  3acc03            	ld	a, (__vdp_pattern_table+1)
  2691  071d  8a                	adc	a, d
  2692  071e  47                	ld	b, a
  2693  071f  79                	ld	a, c
  2694  0720  68                	ld	l, b
  2695  0721  d3a1              	out	(_IO_VDPLATCH), a
  2696  0723  7d                	ld	a, l
  2697  0724  e63f              	and	a,0x3f
  2698  0726  d3a1              	out	(_IO_VDPLATCH), a
  2699  0728  dba0              	in	a, (_IO_VDPDATA)
  2700  072a  dd77fd            	ld	(ix-3),a
  2701  072d  3ac903            	ld	a, (__vdp_color_table+0)
  2702  0730  83                	add	a, e
  2703  0731  dd77fe            	ld	(ix-2),a
  2704  0734  3aca03            	ld	a, (__vdp_color_table+1)
  2705  0737  8a                	adc	a, d
  2706  0738  dd77ff            	ld	(ix-1),a
  2707  073b  dd7efe            	ld	a,(ix-2)
  2708  073e  dd5eff            	ld	e,(ix-1)
  2709  0741  d3a1              	out	(_IO_VDPLATCH), a
  2710  0743  7b                	ld	a, e
  2711  0744  e63f              	and	a,0x3f
  2712  0746  d3a1              	out	(_IO_VDPLATCH), a
  2713  0748  dba0              	in	a, (_IO_VDPDATA)
  2714  074a  6f                	ld	l, a
  2715  074b  dd7efb            	ld	a,(ix-5)
  2716  074e  e607              	and	a,0x07
  2717  0750  f5                	push	af
  2718  0751  118000            	ld	de,0x0080
  2719  0754  f1                	pop	af
  2720  0755  3c                	inc	a
  2721  0756  1804              	jr	l_vdp_plotHires_00128
  2722                          l_vdp_plotHires_00127:
  2723  0758  cb2a              	sra	d
  2724  075a  cb1b              	rr	e
  2725                          l_vdp_plotHires_00128:
  2726  075c  3d                	dec	a
  2727  075d  20f9              	jr	NZ, l_vdp_plotHires_00127
  2728  075f  dd7e06            	ld	a,(ix+6)
  2729  0762  b7                	or	a, a
  2730  0763  2814              	jr	Z,l_vdp_plotHires_00102
  2731  0765  7b                	ld	a, e
  2732  0766  ddb6fd            	or	a,(ix-3)
  2733  0769  5f                	ld	e, a
  2734  076a  7d                	ld	a, l
  2735  076b  e60f              	and	a,0x0f
  2736  076d  6f                	ld	l, a
  2737  076e  dd7e06            	ld	a,(ix+6)
  2738  0771  87                	add	a, a
  2739  0772  87                	add	a, a
  2740  0773  87                	add	a, a
  2741  0774  87                	add	a, a
  2742  0775  b5                	or	a, l
  2743  0776  6f                	ld	l, a
  2744  0777  1811              	jr	l_vdp_plotHires_00103
  2745                          l_vdp_plotHires_00102:
  2746  0779  7b                	ld	a, e
  2747  077a  2f                	cpl
  2748  077b  dda6fd            	and	a,(ix-3)
  2749  077e  5f                	ld	e, a
  2750  077f  7d                	ld	a, l
  2751  0780  e6f0              	and	a,0xf0
  2752  0782  57                	ld	d, a
  2753  0783  dd7e07            	ld	a,(ix+7)
  2754  0786  e60f              	and	a,0x0f
  2755  0788  b2                	or	a, d
  2756  0789  6f                	ld	l, a
  2757                          l_vdp_plotHires_00103:
  2758  078a  79                	ld	a, c
  2759  078b  d3a1              	out	(_IO_VDPLATCH), a
  2760  078d  78                	ld	a, b
  2761  078e  e63f              	and	a,0x3f
  2762  0790  f640              	or	a,0x40
  2763  0792  d3a1              	out	(_IO_VDPLATCH), a
  2764  0794  7b                	ld	a, e
  2765  0795  d3a0              	out	(_IO_VDPDATA), a
  2766  0797  dd7efe            	ld	a,(ix-2)
  2767  079a  d3a1              	out	(_IO_VDPLATCH), a
  2768  079c  dd7eff            	ld	a,(ix-1)
  2769  079f  e63f              	and	a,0x3f
  2770  07a1  f640              	or	a,0x40
  2771  07a3  d3a1              	out	(_IO_VDPLATCH), a
  2772  07a5  7d                	ld	a, l
  2773  07a6  d3a0              	out	(_IO_VDPDATA), a
  2774  07a8  ddf9              	ld	sp, ix
  2775  07aa  dde1              	pop	ix
  2776  07ac  c9                	ret
  2777                          	SECTION code_compiler
  2778                          ;	---------------------------------
  2779                          ; Function vdp_plotColor
  2780                          ; ---------------------------------
  2781                          _vdp_plotColor:
  2782  07ad  dde5              	push	ix
  2783  07af  dd210000          	ld	ix,0
  2784  07b3  dd39              	add	ix,sp
  2785  07b5  3b                	dec	sp
  2786  07b6  3acd03            	ld	a, (__vdp_mode+0)
  2787  07b9  d602              	sub	a,0x02
  2788  07bb  207b              	jr	NZ,l_vdp_plotColor_00110
  2789  07bd  dd5e04            	ld	e,(ix+4)
  2790  07c0  1600              	ld	d,0x00
  2791  07c2  6b                	ld	l, e
  2792  07c3  62                	ld	h, d
  2793  07c4  cb7a              	bit	7, d
  2794  07c6  2802              	jr	Z,l_vdp_plotColor_00119
  2795  07c8  eb                	ex	de, hl
  2796  07c9  23                	inc	hl
  2797                          l_vdp_plotColor_00119:
  2798  07ca  cb2c              	sra	h
  2799  07cc  cb1d              	rr	l
  2800  07ce  29                	add	hl, hl
  2801  07cf  29                	add	hl, hl
  2802  07d0  29                	add	hl, hl
  2803  07d1  eb                	ex	de, hl
  2804  07d2  2acb03            	ld	hl, (__vdp_pattern_table)
  2805  07d5  19                	add	hl, de
  2806  07d6  dd4e05            	ld	c,(ix+5)
  2807  07d9  0600              	ld	b,0x00
  2808  07db  79                	ld	a, c
  2809  07dc  e607              	and	a,0x07
  2810  07de  5f                	ld	e, a
  2811  07df  1600              	ld	d,0x00
  2812  07e1  19                	add	hl, de
  2813  07e2  eb                	ex	de, hl
  2814  07e3  69                	ld	l, c
  2815  07e4  60                	ld	h, b
  2816  07e5  cb78              	bit	7, b
  2817  07e7  2804              	jr	Z,l_vdp_plotColor_00120
  2818  07e9  210700            	ld	hl,0x0007
  2819  07ec  09                	add	hl, bc
  2820                          l_vdp_plotColor_00120:
  2821  07ed  cb2c              	sra	h
  2822  07ef  cb1d              	rr	l
  2823  07f1  cb2c              	sra	h
  2824  07f3  cb1d              	rr	l
  2825  07f5  cb2c              	sra	h
  2826  07f7  cb1d              	rr	l
  2827  07f9  65                	ld	h, l
  2828  07fa  2e00              	ld	l,0x00
  2829  07fc  19                	add	hl, de
  2830  07fd  5d                	ld	e, l
  2831  07fe  7b                	ld	a, e
  2832  07ff  d3a1              	out	(_IO_VDPLATCH), a
  2833  0801  7c                	ld	a, h
  2834  0802  e63f              	and	a,0x3f
  2835  0804  4f                	ld	c,a
  2836  0805  d3a1              	out	(_IO_VDPLATCH), a
  2837  0807  dba0              	in	a, (_IO_VDPDATA)
  2838  0809  47                	ld	b, a
  2839  080a  7b                	ld	a, e
  2840  080b  d3a1              	out	(_IO_VDPLATCH), a
  2841  080d  79                	ld	a, c
  2842  080e  f640              	or	a,0x40
  2843  0810  d3a1              	out	(_IO_VDPLATCH), a
  2844  0812  dd4e04            	ld	c,(ix+4)
  2845  0815  78                	ld	a, b
  2846  0816  cb41              	bit	0, c
  2847  0818  280e              	jr	Z,l_vdp_plotColor_00102
  2848  081a  e6f0              	and	a,0xf0
  2849  081c  4f                	ld	c, a
  2850  081d  dd7e06            	ld	a,(ix+6)
  2851  0820  e60f              	and	a,0x0f
  2852  0822  81                	add	a, c
  2853  0823  d3a0              	out	(_IO_VDPDATA), a
  2854  0825  c3d908            	jp	l_vdp_plotColor_00117
  2855                          l_vdp_plotColor_00102:
  2856  0828  e60f              	and	a,0x0f
  2857  082a  4f                	ld	c, a
  2858  082b  dd7e06            	ld	a,(ix+6)
  2859  082e  87                	add	a, a
  2860  082f  87                	add	a, a
  2861  0830  87                	add	a, a
  2862  0831  87                	add	a, a
  2863  0832  81                	add	a, c
  2864  0833  d3a0              	out	(_IO_VDPDATA), a
  2865  0835  c3d908            	jp	l_vdp_plotColor_00117
  2866                          l_vdp_plotColor_00110:
  2867  0838  3acd03            	ld	a, (__vdp_mode+0)
  2868  083b  3d                	dec	a
  2869  083c  c2d908            	jp	NZ,l_vdp_plotColor_00117
  2870  083f  dd5e04            	ld	e,(ix+4)
  2871  0842  1600              	ld	d,0x00
  2872  0844  6b                	ld	l, e
  2873  0845  62                	ld	h, d
  2874  0846  cb7a              	bit	7, d
  2875  0848  2802              	jr	Z,l_vdp_plotColor_00121
  2876  084a  eb                	ex	de, hl
  2877  084b  23                	inc	hl
  2878                          l_vdp_plotColor_00121:
  2879  084c  cb2c              	sra	h
  2880  084e  cb1d              	rr	l
  2881  0850  29                	add	hl, hl
  2882  0851  29                	add	hl, hl
  2883  0852  29                	add	hl, hl
  2884  0853  dd4e05            	ld	c,(ix+5)
  2885  0856  0600              	ld	b,0x00
  2886  0858  79                	ld	a, c
  2887  0859  e607              	and	a,0x07
  2888  085b  5f                	ld	e, a
  2889  085c  1600              	ld	d,0x00
  2890  085e  19                	add	hl, de
  2891  085f  eb                	ex	de, hl
  2892  0860  69                	ld	l, c
  2893  0861  60                	ld	h, b
  2894  0862  cb78              	bit	7, b
  2895  0864  2804              	jr	Z,l_vdp_plotColor_00122
  2896  0866  210700            	ld	hl,0x0007
  2897  0869  09                	add	hl, bc
  2898                          l_vdp_plotColor_00122:
  2899  086a  cb2c              	sra	h
  2900  086c  cb1d              	rr	l
  2901  086e  cb2c              	sra	h
  2902  0870  cb1d              	rr	l
  2903  0872  cb2c              	sra	h
  2904  0874  cb1d              	rr	l
  2905  0876  65                	ld	h, l
  2906  0877  2e00              	ld	l,0x00
  2907  0879  19                	add	hl, de
  2908  087a  eb                	ex	de, hl
  2909  087b  3ac903            	ld	a, (__vdp_color_table+0)
  2910  087e  83                	add	a, e
  2911  087f  4f                	ld	c, a
  2912  0880  3aca03            	ld	a, (__vdp_color_table+1)
  2913  0883  8a                	adc	a, d
  2914  0884  47                	ld	b, a
  2915  0885  79                	ld	a, c
  2916  0886  68                	ld	l, b
  2917  0887  d3a1              	out	(_IO_VDPLATCH), a
  2918  0889  7d                	ld	a, l
  2919  088a  e63f              	and	a,0x3f
  2920  088c  d3a1              	out	(_IO_VDPLATCH), a
  2921  088e  dba0              	in	a, (_IO_VDPDATA)
  2922  0890  dd6e04            	ld	l,(ix+4)
  2923  0893  cb45              	bit	0, l
  2924  0895  2010              	jr	NZ,l_vdp_plotColor_00105
  2925  0897  e60f              	and	a,0x0f
  2926  0899  6f                	ld	l, a
  2927  089a  dd7e06            	ld	a,(ix+6)
  2928  089d  87                	add	a, a
  2929  089e  87                	add	a, a
  2930  089f  87                	add	a, a
  2931  08a0  87                	add	a, a
  2932  08a1  b5                	or	a, l
  2933  08a2  dd77ff            	ld	(ix-1),a
  2934  08a5  180c              	jr	l_vdp_plotColor_00106
  2935                          l_vdp_plotColor_00105:
  2936  08a7  e6f0              	and	a,0xf0
  2937  08a9  6f                	ld	l, a
  2938  08aa  dd7e06            	ld	a,(ix+6)
  2939  08ad  e60f              	and	a,0x0f
  2940  08af  b5                	or	a, l
  2941  08b0  dd77ff            	ld	(ix-1),a
  2942                          l_vdp_plotColor_00106:
  2943  08b3  fd2acb03          	ld	iy, (__vdp_pattern_table)
  2944  08b7  fd19              	add	iy, de
  2945  08b9  fde5              	push	iy
  2946  08bb  d1                	pop	de
  2947  08bc  7b                	ld	a, e
  2948  08bd  d3a1              	out	(_IO_VDPLATCH), a
  2949  08bf  7a                	ld	a, d
  2950  08c0  e63f              	and	a,0x3f
  2951  08c2  f640              	or	a,0x40
  2952  08c4  d3a1              	out	(_IO_VDPLATCH), a
  2953  08c6  3ef0              	ld	a,0xf0
  2954  08c8  d3a0              	out	(_IO_VDPDATA), a
  2955  08ca  79                	ld	a, c
  2956  08cb  d3a1              	out	(_IO_VDPLATCH), a
  2957  08cd  78                	ld	a, b
  2958  08ce  e63f              	and	a,0x3f
  2959  08d0  f640              	or	a,0x40
  2960  08d2  d3a1              	out	(_IO_VDPLATCH), a
  2961  08d4  dd7eff            	ld	a,(ix-1)
  2962  08d7  d3a0              	out	(_IO_VDPDATA), a
  2963                          l_vdp_plotColor_00117:
  2964  08d9  33                	inc	sp
  2965  08da  dde1              	pop	ix
  2966  08dc  c9                	ret
  2967                          	SECTION code_compiler
  2968                          ;	---------------------------------
  2969                          ; Function vdp_setSpritePattern
  2970                          ; ---------------------------------
  2971                          _vdp_setSpritePattern:
  2972  08dd  fd210200          	ld	iy,2
  2973  08e1  fd39              	add	iy, sp
  2974  08e3  fd5e00            	ld	e,(iy+0)
  2975  08e6  1600              	ld	d,0x00
  2976  08e8  3ac603            	ld	a, (__vdp_sprite_size_sel+0)
  2977  08eb  b7                	or	a, a
  2978  08ec  282d              	jr	Z,l_vdp_setSpritePattern_00104
  2979  08ee  eb                	ex	de, hl
  2980  08ef  29                	add	hl, hl
  2981  08f0  29                	add	hl, hl
  2982  08f1  29                	add	hl, hl
  2983  08f2  29                	add	hl, hl
  2984  08f3  29                	add	hl, hl
  2985  08f4  eb                	ex	de, hl
  2986  08f5  2ac403            	ld	hl, (__vdp_sprite_pattern_table)
  2987  08f8  19                	add	hl, de
  2988  08f9  7d                	ld	a, l
  2989  08fa  d3a1              	out	(_IO_VDPLATCH), a
  2990  08fc  7c                	ld	a, h
  2991  08fd  e63f              	and	a,0x3f
  2992  08ff  f640              	or	a,0x40
  2993  0901  d3a1              	out	(_IO_VDPLATCH), a
  2994  0903  0e00              	ld	c,0x00
  2995                          l_vdp_setSpritePattern_00109:
  2996  0905  79                	ld	a, c
  2997  0906  d620              	sub	a,0x20
  2998  0908  303b              	jr	NC,l_vdp_setSpritePattern_00114
  2999  090a  210300            	ld	hl,3
  3000  090d  39                	add	hl, sp
  3001  090e  7e                	ld	a, (hl)
  3002  090f  23                	inc	hl
  3003  0910  66                	ld	h, (hl)
  3004  0911  6f                	ld	l, a
  3005  0912  0600              	ld	b,0x00
  3006  0914  09                	add	hl, bc
  3007  0915  7e                	ld	a, (hl)
  3008  0916  d3a0              	out	(_IO_VDPDATA), a
  3009  0918  0c                	inc	c
  3010  0919  18ea              	jr	l_vdp_setSpritePattern_00109
  3011                          l_vdp_setSpritePattern_00104:
  3012  091b  eb                	ex	de, hl
  3013  091c  29                	add	hl, hl
  3014  091d  29                	add	hl, hl
  3015  091e  29                	add	hl, hl
  3016  091f  eb                	ex	de, hl
  3017  0920  2ac403            	ld	hl, (__vdp_sprite_pattern_table)
  3018  0923  19                	add	hl, de
  3019  0924  7d                	ld	a, l
  3020  0925  d3a1              	out	(_IO_VDPLATCH), a
  3021  0927  7c                	ld	a, h
  3022  0928  e63f              	and	a,0x3f
  3023  092a  f640              	or	a,0x40
  3024  092c  d3a1              	out	(_IO_VDPLATCH), a
  3025  092e  0e00              	ld	c,0x00
  3026                          l_vdp_setSpritePattern_00112:
  3027  0930  79                	ld	a, c
  3028  0931  d608              	sub	a,0x08
  3029  0933  d0                	ret	NC
  3030  0934  210300            	ld	hl,3
  3031  0937  39                	add	hl, sp
  3032  0938  7e                	ld	a, (hl)
  3033  0939  23                	inc	hl
  3034  093a  66                	ld	h, (hl)
  3035  093b  6f                	ld	l, a
  3036  093c  0600              	ld	b,0x00
  3037  093e  09                	add	hl, bc
  3038  093f  7e                	ld	a, (hl)
  3039  0940  d3a0              	out	(_IO_VDPDATA), a
  3040  0942  0c                	inc	c
  3041  0943  18eb              	jr	l_vdp_setSpritePattern_00112
  3042                          l_vdp_setSpritePattern_00114:
  3043  0945  c9                	ret
  3044                          	SECTION code_compiler
  3045                          ;	---------------------------------
  3046                          ; Function vdp_setSpriteColor
  3047                          ; ---------------------------------
  3048                          _vdp_setSpriteColor:
  3049  0946  fd210200          	ld	iy,2
  3050  094a  fd39              	add	iy, sp
  3051  094c  fd4e00            	ld	c,(iy+0)
  3052  094f  fd4601            	ld	b,(iy+1)
  3053  0952  03                	inc	bc
  3054  0953  03                	inc	bc
  3055  0954  03                	inc	bc
  3056  0955  79                	ld	a, c
  3057  0956  58                	ld	e, b
  3058  0957  d3a1              	out	(_IO_VDPLATCH), a
  3059  0959  7b                	ld	a, e
  3060  095a  e63f              	and	a,0x3f
  3061  095c  d3a1              	out	(_IO_VDPLATCH), a
  3062  095e  dba0              	in	a, (_IO_VDPDATA)
  3063  0960  e680              	and	a,0x80
  3064  0962  5f                	ld	e, a
  3065  0963  fd7e02            	ld	a,(iy+0+1+1)
  3066  0966  e60f              	and	a,0x0f
  3067  0968  b3                	or	a, e
  3068  0969  5f                	ld	e, a
  3069  096a  79                	ld	a, c
  3070  096b  d3a1              	out	(_IO_VDPLATCH), a
  3071  096d  78                	ld	a, b
  3072  096e  e63f              	and	a,0x3f
  3073  0970  f640              	or	a,0x40
  3074  0972  d3a1              	out	(_IO_VDPLATCH), a
  3075  0974  7b                	ld	a, e
  3076  0975  d3a0              	out	(_IO_VDPDATA), a
  3077  0977  c9                	ret
  3078                          	SECTION code_compiler
  3079                          ;	---------------------------------
  3080                          ; Function vdp_getSpriteAttributes
  3081                          ; ---------------------------------
  3082                          _vdp_getSpriteAttributes:
  3083  0978  fd210200          	ld	iy,2
  3084  097c  fd39              	add	iy, sp
  3085  097e  fd7e00            	ld	a,(iy+0)
  3086  0981  fd4e01            	ld	c,(iy+1)
  3087  0984  d3a1              	out	(_IO_VDPLATCH), a
  3088  0986  79                	ld	a, c
  3089  0987  e63f              	and	a,0x3f
  3090  0989  d3a1              	out	(_IO_VDPLATCH), a
  3091  098b  fd23              	inc	iy
  3092  098d  fd23              	inc	iy
  3093  098f  fd4e00            	ld	c,(iy+0)
  3094  0992  fd4601            	ld	b,(iy+1)
  3095  0995  59                	ld	e, c
  3096  0996  50                	ld	d, b
  3097  0997  13                	inc	de
  3098  0998  dba0              	in	a, (_IO_VDPDATA)
  3099  099a  12                	ld	(de), a
  3100  099b  dba0              	in	a, (_IO_VDPDATA)
  3101  099d  02                	ld	(bc), a
  3102  099e  59                	ld	e, c
  3103  099f  50                	ld	d, b
  3104  09a0  13                	inc	de
  3105  09a1  13                	inc	de
  3106  09a2  dba0              	in	a, (_IO_VDPDATA)
  3107  09a4  12                	ld	(de), a
  3108  09a5  03                	inc	bc
  3109  09a6  03                	inc	bc
  3110  09a7  03                	inc	bc
  3111  09a8  dba0              	in	a, (_IO_VDPDATA)
  3112  09aa  02                	ld	(bc), a
  3113  09ab  c9                	ret
  3114                          	SECTION code_compiler
  3115                          ;	---------------------------------
  3116                          ; Function vdp_getSpritePosition
  3117                          ; ---------------------------------
  3118                          _vdp_getSpritePosition:
  3119  09ac  210200            	ld	hl,2
  3120  09af  39                	add	hl, sp
  3121  09b0  7e                	ld	a, (hl)
  3122  09b1  23                	inc	hl
  3123  09b2  4e                	ld	c, (hl)
  3124  09b3  d3a1              	out	(_IO_VDPLATCH), a
  3125  09b5  79                	ld	a, c
  3126  09b6  e63f              	and	a,0x3f
  3127  09b8  d3a1              	out	(_IO_VDPLATCH), a
  3128  09ba  dba0              	in	a, (_IO_VDPDATA)
  3129  09bc  dba0              	in	a, (_IO_VDPDATA)
  3130  09be  dba0              	in	a, (_IO_VDPDATA)
  3131  09c0  dba0              	in	a, (_IO_VDPDATA)
  3132  09c2  c9                	ret
  3133                          	SECTION code_compiler
  3134                          ;	---------------------------------
  3135                          ; Function vdp_spriteInit
  3136                          ; ---------------------------------
  3137                          _vdp_spriteInit:
  3138  09c3  fd210300          	ld	iy,3
  3139  09c7  fd39              	add	iy, sp
  3140  09c9  fd6e00            	ld	l,(iy+0)
  3141  09cc  2600              	ld	h,0x00
  3142  09ce  29                	add	hl, hl
  3143  09cf  29                	add	hl, hl
  3144  09d0  eb                	ex	de, hl
  3145  09d1  2ac203            	ld	hl, (__vdp_sprite_attribute_table)
  3146  09d4  19                	add	hl, de
  3147  09d5  eb                	ex	de, hl
  3148  09d6  7b                	ld	a, e
  3149  09d7  d3a1              	out	(_IO_VDPLATCH), a
  3150  09d9  7a                	ld	a, d
  3151  09da  e63f              	and	a,0x3f
  3152  09dc  f640              	or	a,0x40
  3153  09de  d3a1              	out	(_IO_VDPLATCH), a
  3154  09e0  3e00              	ld	a,0x00
  3155  09e2  d3a0              	out	(_IO_VDPDATA), a
  3156  09e4  3e00              	ld	a,0x00
  3157  09e6  d3a0              	out	(_IO_VDPDATA), a
  3158  09e8  fd2b              	dec	iy
  3159  09ea  fd7e00            	ld	a,(iy+0)
  3160  09ed  87                	add	a, a
  3161  09ee  87                	add	a, a
  3162  09ef  4f                	ld	c, a
  3163  09f0  3ac603            	ld	a, (__vdp_sprite_size_sel+0)
  3164  09f3  b7                	or	a, a
  3165  09f4  2805              	jr	Z,l_vdp_spriteInit_00102
  3166  09f6  79                	ld	a, c
  3167  09f7  d3a0              	out	(_IO_VDPDATA), a
  3168  09f9  1803              	jr	l_vdp_spriteInit_00103
  3169                          l_vdp_spriteInit_00102:
  3170  09fb  79                	ld	a, c
  3171  09fc  d3a0              	out	(_IO_VDPDATA), a
  3172                          l_vdp_spriteInit_00103:
  3173  09fe  fd210400          	ld	iy,4
  3174  0a02  fd39              	add	iy, sp
  3175  0a04  fd7e00            	ld	a,(iy+0)
  3176  0a07  e60f              	and	a,0x0f
  3177  0a09  f680              	or	a,0x80
  3178  0a0b  d3a0              	out	(_IO_VDPDATA), a
  3179  0a0d  eb                	ex	de, hl
  3180  0a0e  c9                	ret
  3181                          	SECTION code_compiler
  3182                          ;	---------------------------------
  3183                          ; Function vdp_setSpritePosition
  3184                          ; ---------------------------------
  3185                          _vdp_setSpritePosition:
  3186  0a0f  dde5              	push	ix
  3187  0a11  dd210000          	ld	ix,0
  3188  0a15  dd39              	add	ix,sp
  3189  0a17  3b                	dec	sp
  3190  0a18  dd7e06            	ld	a,(ix+6)
  3191  0a1b  d690              	sub	a,0x90
  3192  0a1d  3007              	jr	NC,l_vdp_setSpritePosition_00102
  3193  0a1f  0e01              	ld	c,0x01
  3194  0a21  dd6e06            	ld	l,(ix+6)
  3195  0a24  1808              	jr	l_vdp_setSpritePosition_00103
  3196                          l_vdp_setSpritePosition_00102:
  3197  0a26  0e00              	ld	c,0x00
  3198  0a28  dd7e06            	ld	a,(ix+6)
  3199  0a2b  c6e0              	add	a,0xe0
  3200  0a2d  6f                	ld	l, a
  3201                          l_vdp_setSpritePosition_00103:
  3202  0a2e  dd5e04            	ld	e,(ix+4)
  3203  0a31  dd5605            	ld	d,(ix+5)
  3204  0a34  13                	inc	de
  3205  0a35  13                	inc	de
  3206  0a36  13                	inc	de
  3207  0a37  7b                	ld	a, e
  3208  0a38  d3a1              	out	(_IO_VDPLATCH), a
  3209  0a3a  7a                	ld	a, d
  3210  0a3b  e63f              	and	a,0x3f
  3211  0a3d  d3a1              	out	(_IO_VDPLATCH), a
  3212  0a3f  dba0              	in	a, (_IO_VDPDATA)
  3213  0a41  e60f              	and	a,0x0f
  3214  0a43  dd77ff            	ld	(ix-1),a
  3215  0a46  dd5e04            	ld	e,(ix+4)
  3216  0a49  dd5605            	ld	d,(ix+5)
  3217  0a4c  7b                	ld	a, e
  3218  0a4d  d3a1              	out	(_IO_VDPLATCH), a
  3219  0a4f  7a                	ld	a, d
  3220  0a50  e63f              	and	a,0x3f
  3221  0a52  f640              	or	a,0x40
  3222  0a54  d3a1              	out	(_IO_VDPLATCH), a
  3223  0a56  dd7e07            	ld	a,(ix+7)
  3224  0a59  d3a0              	out	(_IO_VDPDATA), a
  3225  0a5b  7d                	ld	a, l
  3226  0a5c  d3a0              	out	(_IO_VDPDATA), a
  3227  0a5e  13                	inc	de
  3228  0a5f  13                	inc	de
  3229  0a60  13                	inc	de
  3230  0a61  7b                	ld	a, e
  3231  0a62  d3a1              	out	(_IO_VDPLATCH), a
  3232  0a64  7a                	ld	a, d
  3233  0a65  e63f              	and	a,0x3f
  3234  0a67  f640              	or	a,0x40
  3235  0a69  d3a1              	out	(_IO_VDPLATCH), a
  3236  0a6b  79                	ld	a, c
  3237  0a6c  0f                	rrca
  3238  0a6d  e680              	and	a,0x80
  3239  0a6f  ddb6ff            	or	a,(ix-1)
  3240  0a72  d3a0              	out	(_IO_VDPDATA), a
  3241  0a74  dba1              	in	a, (_IO_VDPLATCH)
  3242  0a76  6f                	ld	l, a
  3243  0a77  33                	inc	sp
  3244  0a78  dde1              	pop	ix
  3245  0a7a  c9                	ret
  3246                          	SECTION code_compiler
  3247                          ;	---------------------------------
  3248                          ; Function vdp_print
  3249                          ; ---------------------------------
  3250                          _vdp_print:
  3251  0a7b  010000            	ld	bc,0x0000
  3252                          l_vdp_print_00103:
  3253  0a7e  210200            	ld	hl,2
  3254  0a81  39                	add	hl, sp
  3255  0a82  7e                	ld	a, (hl)
  3256  0a83  23                	inc	hl
  3257  0a84  66                	ld	h, (hl)
  3258  0a85  6f                	ld	l, a
  3259  0a86  09                	add	hl, bc
  3260  0a87  7e                	ld	a, (hl)
  3261  0a88  b7                	or	a, a
  3262  0a89  c8                	ret	Z
  3263  0a8a  c5                	push	bc
  3264  0a8b  f5                	push	af
  3265  0a8c  33                	inc	sp
  3266  0a8d  cd0f0c            	call	_vdp_write
  3267  0a90  33                	inc	sp
  3268  0a91  c1                	pop	bc
  3269  0a92  03                	inc	bc
  3270  0a93  18e9              	jr	l_vdp_print_00103
  3271                          	SECTION code_compiler
  3272                          ;	---------------------------------
  3273                          ; Function vdp_printG2
  3274                          ; ---------------------------------
  3275                          _vdp_printG2:
  3276  0a95  010000            	ld	bc,0x0000
  3277                          l_vdp_printG2_00103:
  3278  0a98  210200            	ld	hl,2
  3279  0a9b  39                	add	hl, sp
  3280  0a9c  7e                	ld	a, (hl)
  3281  0a9d  23                	inc	hl
  3282  0a9e  66                	ld	h, (hl)
  3283  0a9f  6f                	ld	l, a
  3284  0aa0  09                	add	hl, bc
  3285  0aa1  7e                	ld	a, (hl)
  3286  0aa2  b7                	or	a, a
  3287  0aa3  c8                	ret	Z
  3288  0aa4  c5                	push	bc
  3289  0aa5  f5                	push	af
  3290  0aa6  33                	inc	sp
  3291  0aa7  cd780c            	call	_vdp_writeG2
  3292  0aaa  33                	inc	sp
  3293  0aab  c1                	pop	bc
  3294  0aac  03                	inc	bc
  3295  0aad  18e9              	jr	l_vdp_printG2_00103
  3296                          	SECTION code_compiler
  3297                          ;	---------------------------------
  3298                          ; Function vdp_printPart
  3299                          ; ---------------------------------
  3300                          _vdp_printPart:
  3301  0aaf  dde5              	push	ix
  3302  0ab1  dd210000          	ld	ix,0
  3303  0ab5  dd39              	add	ix,sp
  3304  0ab7  010000            	ld	bc,0x0000
  3305                          l_vdp_printPart_00103:
  3306  0aba  79                	ld	a, c
  3307  0abb  dd9606            	sub	a,(ix+6)
  3308  0abe  78                	ld	a, b
  3309  0abf  dd9e07            	sbc	a,(ix+7)
  3310  0ac2  301d              	jr	NC,l_vdp_printPart_00105
  3311  0ac4  dd7e04            	ld	a,(ix+4)
  3312  0ac7  81                	add	a, c
  3313  0ac8  5f                	ld	e, a
  3314  0ac9  dd7e05            	ld	a,(ix+5)
  3315  0acc  88                	adc	a, b
  3316  0acd  57                	ld	d, a
  3317  0ace  dd6e08            	ld	l,(ix+8)
  3318  0ad1  dd6609            	ld	h,(ix+9)
  3319  0ad4  19                	add	hl, de
  3320  0ad5  7e                	ld	a, (hl)
  3321  0ad6  c5                	push	bc
  3322  0ad7  f5                	push	af
  3323  0ad8  33                	inc	sp
  3324  0ad9  cd0f0c            	call	_vdp_write
  3325  0adc  33                	inc	sp
  3326  0add  c1                	pop	bc
  3327  0ade  03                	inc	bc
  3328  0adf  18d9              	jr	l_vdp_printPart_00103
  3329                          l_vdp_printPart_00105:
  3330  0ae1  dde1              	pop	ix
  3331  0ae3  c9                	ret
  3332                          	SECTION code_compiler
  3333                          ;	---------------------------------
  3334                          ; Function vdp_newLine
  3335                          ; ---------------------------------
  3336                          _vdp_newLine:
  3337  0ae4  011e01            	ld	bc,_vdp_cursor + 1
  3338  0ae7  0a                	ld	a, (bc)
  3339  0ae8  fe17              	cp	a,0x17
  3340  0aea  2012              	jr	NZ,l_vdp_newLine_00102
  3341  0aec  3e17              	ld	a,0x17
  3342  0aee  f5                	push	af
  3343  0aef  33                	inc	sp
  3344  0af0  af                	xor	a, a
  3345  0af1  f5                	push	af
  3346  0af2  33                	inc	sp
  3347  0af3  cda80d            	call	_vdp_scrollTextUp
  3348  0af6  f1                	pop	af
  3349  0af7  211d01            	ld	hl,_vdp_cursor
  3350  0afa  3600              	ld	(hl),0x00
  3351  0afc  180b              	jr	l_vdp_newLine_00104
  3352                          l_vdp_newLine_00102:
  3353  0afe  3c                	inc	a
  3354  0aff  02                	ld	(bc), a
  3355  0b00  f5                	push	af
  3356  0b01  33                	inc	sp
  3357  0b02  af                	xor	a, a
  3358  0b03  f5                	push	af
  3359  0b04  33                	inc	sp
  3360  0b05  cd5b0b            	call	_vdp_setCursor2
  3361  0b08  f1                	pop	af
  3362                          l_vdp_newLine_00104:
  3363  0b09  c9                	ret
  3364                          	SECTION code_compiler
  3365                          ;	---------------------------------
  3366                          ; Function vdp_setBackDropColor
  3367                          ; ---------------------------------
  3368                          _vdp_setBackDropColor:
  3369  0b0a  210200            	ld	hl,2+0
  3370  0b0d  39                	add	hl, sp
  3371  0b0e  7e                	ld	a, (hl)
  3372  0b0f  d3a1              	out	(_IO_VDPLATCH), a
  3373  0b11  3e87              	ld	a,0x87
  3374  0b13  d3a1              	out	(_IO_VDPLATCH), a
  3375  0b15  c9                	ret
  3376                          	SECTION code_compiler
  3377                          ;	---------------------------------
  3378                          ; Function vdp_setPatternColor
  3379                          ; ---------------------------------
  3380                          _vdp_setPatternColor:
  3381  0b16  3acd03            	ld	a, (__vdp_mode+0)
  3382  0b19  b7                	or	a, a
  3383  0b1a  2012              	jr	NZ,l_vdp_setPatternColor_00102
  3384  0b1c  fd210200          	ld	iy,2
  3385  0b20  fd39              	add	iy, sp
  3386  0b22  fd7e00            	ld	a,(iy+0)
  3387  0b25  e61f              	and	a,0x1f
  3388  0b27  fd7700            	ld	(iy+0),a
  3389  0b2a  fd360100          	ld	(iy+1),0x00
  3390                          l_vdp_setPatternColor_00102:
  3391  0b2e  210200            	ld	hl,2
  3392  0b31  39                	add	hl, sp
  3393  0b32  3ac903            	ld	a, (__vdp_color_table+0)
  3394  0b35  86                	add	a, (hl)
  3395  0b36  47                	ld	b, a
  3396  0b37  3aca03            	ld	a, (__vdp_color_table+1)
  3397  0b3a  23                	inc	hl
  3398  0b3b  8e                	adc	a, (hl)
  3399  0b3c  4f                	ld	c, a
  3400  0b3d  78                	ld	a, b
  3401  0b3e  d3a1              	out	(_IO_VDPLATCH), a
  3402  0b40  79                	ld	a, c
  3403  0b41  e63f              	and	a,0x3f
  3404  0b43  f640              	or	a,0x40
  3405  0b45  d3a1              	out	(_IO_VDPLATCH), a
  3406  0b47  fd210400          	ld	iy,4
  3407  0b4b  fd39              	add	iy, sp
  3408  0b4d  fd7e00            	ld	a,(iy+0)
  3409  0b50  87                	add	a, a
  3410  0b51  87                	add	a, a
  3411  0b52  87                	add	a, a
  3412  0b53  87                	add	a, a
  3413  0b54  fd4e01            	ld	c,(iy+0+1)
  3414  0b57  81                	add	a, c
  3415  0b58  d3a0              	out	(_IO_VDPDATA), a
  3416  0b5a  c9                	ret
  3417                          	SECTION code_compiler
  3418                          ;	---------------------------------
  3419                          ; Function vdp_setCursor2
  3420                          ; ---------------------------------
  3421                          _vdp_setCursor2:
  3422  0b5b  dde5              	push	ix
  3423  0b5d  dd210000          	ld	ix,0
  3424  0b61  dd39              	add	ix,sp
  3425  0b63  3a2201            	ld	a,(__vdp_crsr_max_x)
  3426  0b66  dd9604            	sub	a,(ix+4)
  3427  0b69  3007              	jr	NC,l_vdp_setCursor2_00102
  3428  0b6b  dd360400          	ld	(ix+4),0x00
  3429  0b6f  dd3405            	inc	(ix+5)
  3430                          l_vdp_setCursor2_00102:
  3431  0b72  3a0003            	ld	a, (__vdp_crsr_max_y+0)
  3432  0b75  dd9605            	sub	a,(ix+5)
  3433  0b78  3004              	jr	NC,l_vdp_setCursor2_00104
  3434  0b7a  dd360500          	ld	(ix+5),0x00
  3435                          l_vdp_setCursor2_00104:
  3436  0b7e  211d01            	ld	hl,_vdp_cursor
  3437  0b81  dd7e04            	ld	a,(ix+4)
  3438  0b84  77                	ld	(hl), a
  3439  0b85  211e01            	ld	hl, +(_vdp_cursor + 1)
  3440  0b88  dd7e05            	ld	a,(ix+5)
  3441  0b8b  77                	ld	(hl), a
  3442  0b8c  dde1              	pop	ix
  3443  0b8e  c9                	ret
  3444                          	SECTION code_compiler
  3445                          ;	---------------------------------
  3446                          ; Function vdp_setCursor
  3447                          ; ---------------------------------
  3448                          _vdp_setCursor:
  3449  0b8f  4d                	ld	c, l
  3450  0b90  79                	ld	a, c
  3451  0b91  b7                	or	a, a
  3452  0b92  280f              	jr	Z,l_vdp_setCursor_00101
  3453  0b94  79                	ld	a, c
  3454  0b95  3d                	dec	a
  3455  0b96  281d              	jr	Z,l_vdp_setCursor_00102
  3456  0b98  79                	ld	a,c
  3457  0b99  fe02              	cp	a,0x02
  3458  0b9b  282a              	jr	Z,l_vdp_setCursor_00103
  3459  0b9d  d603              	sub	a,0x03
  3460  0b9f  2838              	jr	Z,l_vdp_setCursor_00104
  3461  0ba1  1846              	jr	l_vdp_setCursor_00106
  3462                          l_vdp_setCursor_00101:
  3463  0ba3  3a1e01            	ld	a, (_vdp_cursor + 1)
  3464  0ba6  3d                	dec	a
  3465  0ba7  211d01            	ld	hl,_vdp_cursor + 0
  3466  0baa  46                	ld	b, (hl)
  3467  0bab  f5                	push	af
  3468  0bac  33                	inc	sp
  3469  0bad  c5                	push	bc
  3470  0bae  33                	inc	sp
  3471  0baf  cd5b0b            	call	_vdp_setCursor2
  3472  0bb2  f1                	pop	af
  3473  0bb3  1834              	jr	l_vdp_setCursor_00106
  3474                          l_vdp_setCursor_00102:
  3475  0bb5  3a1e01            	ld	a, (_vdp_cursor + 1)
  3476  0bb8  3c                	inc	a
  3477  0bb9  211d01            	ld	hl,_vdp_cursor + 0
  3478  0bbc  46                	ld	b, (hl)
  3479  0bbd  f5                	push	af
  3480  0bbe  33                	inc	sp
  3481  0bbf  c5                	push	bc
  3482  0bc0  33                	inc	sp
  3483  0bc1  cd5b0b            	call	_vdp_setCursor2
  3484  0bc4  f1                	pop	af
  3485  0bc5  1822              	jr	l_vdp_setCursor_00106
  3486                          l_vdp_setCursor_00103:
  3487  0bc7  211e01            	ld	hl,_vdp_cursor + 1
  3488  0bca  46                	ld	b, (hl)
  3489  0bcb  3a1d01            	ld	a, (_vdp_cursor + 0)
  3490  0bce  3d                	dec	a
  3491  0bcf  c5                	push	bc
  3492  0bd0  33                	inc	sp
  3493  0bd1  f5                	push	af
  3494  0bd2  33                	inc	sp
  3495  0bd3  cd5b0b            	call	_vdp_setCursor2
  3496  0bd6  f1                	pop	af
  3497  0bd7  1810              	jr	l_vdp_setCursor_00106
  3498                          l_vdp_setCursor_00104:
  3499  0bd9  211e01            	ld	hl,_vdp_cursor + 1
  3500  0bdc  46                	ld	b, (hl)
  3501  0bdd  3a1d01            	ld	a, (_vdp_cursor + 0)
  3502  0be0  3c                	inc	a
  3503  0be1  c5                	push	bc
  3504  0be2  33                	inc	sp
  3505  0be3  f5                	push	af
  3506  0be4  33                	inc	sp
  3507  0be5  cd5b0b            	call	_vdp_setCursor2
  3508  0be8  f1                	pop	af
  3509                          l_vdp_setCursor_00106:
  3510  0be9  c9                	ret
  3511                          	SECTION code_compiler
  3512                          ;	---------------------------------
  3513                          ; Function vdp_setTextColor
  3514                          ; ---------------------------------
  3515                          _vdp_setTextColor:
  3516  0bea  210200            	ld	hl,2+0
  3517  0bed  39                	add	hl, sp
  3518  0bee  4e                	ld	c, (hl)
  3519  0bef  21ce03            	ld	hl,__vdp_fgcolor + 0
  3520  0bf2  71                	ld	(hl), c
  3521  0bf3  210300            	ld	hl,3+0
  3522  0bf6  39                	add	hl, sp
  3523  0bf7  46                	ld	b, (hl)
  3524  0bf8  21cf03            	ld	hl,__vdp_bgcolor + 0
  3525  0bfb  70                	ld	(hl), b
  3526  0bfc  3acd03            	ld	a, (__vdp_mode+0)
  3527  0bff  d603              	sub	a,0x03
  3528  0c01  c0                	ret	NZ
  3529  0c02  79                	ld	a, c
  3530  0c03  87                	add	a, a
  3531  0c04  87                	add	a, a
  3532  0c05  87                	add	a, a
  3533  0c06  87                	add	a, a
  3534  0c07  80                	add	a, b
  3535  0c08  d3a1              	out	(_IO_VDPLATCH), a
  3536  0c0a  3e87              	ld	a,0x87
  3537  0c0c  d3a1              	out	(_IO_VDPLATCH), a
  3538  0c0e  c9                	ret
  3539                          	SECTION code_compiler
  3540                          ;	---------------------------------
  3541                          ; Function vdp_write
  3542                          ; ---------------------------------
  3543                          _vdp_write:
  3544  0c0f  dde5              	push	ix
  3545  0c11  dd210000          	ld	ix,0
  3546  0c15  dd39              	add	ix,sp
  3547  0c17  211e01            	ld	hl, +(_vdp_cursor + 1) + 0
  3548  0c1a  4e                	ld	c, (hl)
  3549  0c1b  3a2201            	ld	a, (__vdp_crsr_max_x+0)
  3550  0c1e  5f                	ld	e, a
  3551  0c1f  1600              	ld	d,0x00
  3552  0c21  13                	inc	de
  3553  0c22  0600              	ld	b,0x00
  3554  0c24  d5                	push	de
  3555  0c25  c5                	push	bc
  3556  0c26  cd0000            	call	__mulint_callee
  3557  0c29  eb                	ex	de, hl
  3558  0c2a  3a1d01            	ld	a, (_vdp_cursor + 0)
  3559  0c2d  6f                	ld	l, a
  3560  0c2e  2600              	ld	h,0x00
  3561  0c30  19                	add	hl, de
  3562  0c31  eb                	ex	de, hl
  3563  0c32  2ac703            	ld	hl, (__vdp_name_table)
  3564  0c35  19                	add	hl, de
  3565  0c36  7d                	ld	a, l
  3566  0c37  d3a1              	out	(_IO_VDPLATCH), a
  3567  0c39  7c                	ld	a, h
  3568  0c3a  e63f              	and	a,0x3f
  3569  0c3c  f640              	or	a,0x40
  3570  0c3e  d3a1              	out	(_IO_VDPLATCH), a
  3571  0c40  dd7e04            	ld	a,(ix+4)
  3572  0c43  d3a0              	out	(_IO_VDPDATA), a
  3573  0c45  210000            	ld	hl,__vdp_textBuffer+0
  3574  0c48  19                	add	hl, de
  3575  0c49  dd7e04            	ld	a,(ix+4)
  3576  0c4c  77                	ld	(hl), a
  3577  0c4d  3ad003            	ld	a, (__autoScroll+0)
  3578  0c50  b7                	or	a, a
  3579  0c51  281e              	jr	Z,l_vdp_write_00102
  3580  0c53  3a1d01            	ld	a, (_vdp_cursor + 0)
  3581  0c56  d627              	sub	a,0x27
  3582  0c58  2017              	jr	NZ,l_vdp_write_00102
  3583  0c5a  3a1e01            	ld	a, ((_vdp_cursor + 1) + 0)
  3584  0c5d  d617              	sub	a,0x17
  3585  0c5f  2010              	jr	NZ,l_vdp_write_00102
  3586  0c61  3e17              	ld	a,0x17
  3587  0c63  f5                	push	af
  3588  0c64  33                	inc	sp
  3589  0c65  af                	xor	a, a
  3590  0c66  f5                	push	af
  3591  0c67  33                	inc	sp
  3592  0c68  cda80d            	call	_vdp_scrollTextUp
  3593  0c6b  f1                	pop	af
  3594  0c6c  211d01            	ld	hl,_vdp_cursor
  3595  0c6f  3600              	ld	(hl),0x00
  3596                          l_vdp_write_00102:
  3597  0c71  2e03              	ld	l,0x03
  3598  0c73  dde1              	pop	ix
  3599  0c75  c38f0b            	jp	_vdp_setCursor
  3600                          	SECTION code_compiler
  3601                          ;	---------------------------------
  3602                          ; Function vdp_writeG2
  3603                          ; ---------------------------------
  3604                          _vdp_writeG2:
  3605  0c78  dde5              	push	ix
  3606  0c7a  dd210000          	ld	ix,0
  3607  0c7e  dd39              	add	ix,sp
  3608  0c80  dd7e04            	ld	a,(ix+4)
  3609  0c83  d620              	sub	a,0x20
  3610  0c85  385d              	jr	C,l_vdp_writeG2_00109
  3611  0c87  3e7d              	ld	a,0x7d
  3612  0c89  dd9604            	sub	a,(ix+4)
  3613  0c8c  3856              	jr	C,l_vdp_writeG2_00109
  3614  0c8e  211e01            	ld	hl,_vdp_cursor + 1
  3615  0c91  4e                	ld	c, (hl)
  3616  0c92  3a2201            	ld	a, (__vdp_crsr_max_x+0)
  3617  0c95  5f                	ld	e, a
  3618  0c96  1600              	ld	d,0x00
  3619  0c98  13                	inc	de
  3620  0c99  0600              	ld	b,0x00
  3621  0c9b  d5                	push	de
  3622  0c9c  c5                	push	bc
  3623  0c9d  cd0000            	call	__mulint_callee
  3624  0ca0  eb                	ex	de, hl
  3625  0ca1  3a1d01            	ld	a, (_vdp_cursor + 0)
  3626  0ca4  6f                	ld	l, a
  3627  0ca5  2600              	ld	h,0x00
  3628  0ca7  19                	add	hl, de
  3629  0ca8  29                	add	hl, hl
  3630  0ca9  29                	add	hl, hl
  3631  0caa  29                	add	hl, hl
  3632  0cab  4d                	ld	c, l
  3633  0cac  44                	ld	b, h
  3634  0cad  2acb03            	ld	hl, (__vdp_pattern_table)
  3635  0cb0  09                	add	hl, bc
  3636  0cb1  7d                	ld	a, l
  3637  0cb2  d3a1              	out	(_IO_VDPLATCH), a
  3638  0cb4  7c                	ld	a, h
  3639  0cb5  e63f              	and	a,0x3f
  3640  0cb7  f640              	or	a,0x40
  3641  0cb9  d3a1              	out	(_IO_VDPLATCH), a
  3642  0cbb  0e00              	ld	c,0x00
  3643                          l_vdp_writeG2_00107:
  3644  0cbd  79                	ld	a, c
  3645  0cbe  d608              	sub	a,0x08
  3646  0cc0  301d              	jr	NC,l_vdp_writeG2_00104
  3647  0cc2  dd7e04            	ld	a,(ix+4)
  3648  0cc5  0600              	ld	b,0x00
  3649  0cc7  c6e0              	add	a,0xe0
  3650  0cc9  6f                	ld	l, a
  3651  0cca  78                	ld	a, b
  3652  0ccb  ceff              	adc	a,0xff
  3653  0ccd  67                	ld	h, a
  3654  0cce  29                	add	hl, hl
  3655  0ccf  29                	add	hl, hl
  3656  0cd0  29                	add	hl, hl
  3657  0cd1  59                	ld	e, c
  3658  0cd2  1600              	ld	d,0x00
  3659  0cd4  19                	add	hl, de
  3660  0cd5  110000            	ld	de,_ASCII
  3661  0cd8  19                	add	hl, de
  3662  0cd9  7e                	ld	a, (hl)
  3663  0cda  d3a0              	out	(_IO_VDPDATA), a
  3664  0cdc  0c                	inc	c
  3665  0cdd  18de              	jr	l_vdp_writeG2_00107
  3666                          l_vdp_writeG2_00104:
  3667  0cdf  2e03              	ld	l,0x03
  3668  0ce1  cd8f0b            	call	_vdp_setCursor
  3669                          l_vdp_writeG2_00109:
  3670  0ce4  dde1              	pop	ix
  3671  0ce6  c9                	ret
  3672                          	SECTION code_compiler
  3673                          ;	---------------------------------
  3674                          ; Function vdp_writeCharAtLocation
  3675                          ; ---------------------------------
  3676                          _vdp_writeCharAtLocation:
  3677  0ce7  dde5              	push	ix
  3678  0ce9  dd210000          	ld	ix,0
  3679  0ced  dd39              	add	ix,sp
  3680  0cef  3a2201            	ld	a, (__vdp_crsr_max_x+0)
  3681  0cf2  0600              	ld	b,0x00
  3682  0cf4  4f                	ld	c, a
  3683  0cf5  03                	inc	bc
  3684  0cf6  dd5e05            	ld	e,(ix+5)
  3685  0cf9  1600              	ld	d,0x00
  3686  0cfb  c5                	push	bc
  3687  0cfc  d5                	push	de
  3688  0cfd  cd0000            	call	__mulint_callee
  3689  0d00  dd4e04            	ld	c,(ix+4)
  3690  0d03  0600              	ld	b,0x00
  3691  0d05  09                	add	hl, bc
  3692  0d06  eb                	ex	de, hl
  3693  0d07  210000            	ld	hl,__vdp_textBuffer
  3694  0d0a  19                	add	hl, de
  3695  0d0b  dd7e06            	ld	a,(ix+6)
  3696  0d0e  77                	ld	(hl), a
  3697  0d0f  2ac703            	ld	hl, (__vdp_name_table)
  3698  0d12  19                	add	hl, de
  3699  0d13  7d                	ld	a, l
  3700  0d14  d3a1              	out	(_IO_VDPLATCH), a
  3701  0d16  7c                	ld	a, h
  3702  0d17  e63f              	and	a,0x3f
  3703  0d19  f640              	or	a,0x40
  3704  0d1b  d3a1              	out	(_IO_VDPLATCH), a
  3705  0d1d  dd7e06            	ld	a,(ix+6)
  3706  0d20  d3a0              	out	(_IO_VDPDATA), a
  3707  0d22  dde1              	pop	ix
  3708  0d24  c9                	ret
  3709                          	SECTION code_compiler
  3710                          ;	---------------------------------
  3711                          ; Function vdp_getCharAtLocationVRAM
  3712                          ; ---------------------------------
  3713                          _vdp_getCharAtLocationVRAM:
  3714  0d25  dde5              	push	ix
  3715  0d27  dd210000          	ld	ix,0
  3716  0d2b  dd39              	add	ix,sp
  3717  0d2d  3a2201            	ld	a, (__vdp_crsr_max_x+0)
  3718  0d30  0600              	ld	b,0x00
  3719  0d32  4f                	ld	c, a
  3720  0d33  03                	inc	bc
  3721  0d34  dd5e05            	ld	e,(ix+5)
  3722  0d37  1600              	ld	d,0x00
  3723  0d39  c5                	push	bc
  3724  0d3a  d5                	push	de
  3725  0d3b  cd0000            	call	__mulint_callee
  3726  0d3e  dd4e04            	ld	c,(ix+4)
  3727  0d41  0600              	ld	b,0x00
  3728  0d43  09                	add	hl, bc
  3729  0d44  eb                	ex	de, hl
  3730  0d45  2ac703            	ld	hl, (__vdp_name_table)
  3731  0d48  19                	add	hl, de
  3732  0d49  7d                	ld	a, l
  3733  0d4a  d3a1              	out	(_IO_VDPLATCH), a
  3734  0d4c  7c                	ld	a, h
  3735  0d4d  e63f              	and	a,0x3f
  3736  0d4f  d3a1              	out	(_IO_VDPLATCH), a
  3737  0d51  dba0              	in	a, (_IO_VDPDATA)
  3738  0d53  6f                	ld	l, a
  3739  0d54  dde1              	pop	ix
  3740  0d56  c9                	ret
  3741                          	SECTION code_compiler
  3742                          ;	---------------------------------
  3743                          ; Function vdp_getCharAtLocationBuf
  3744                          ; ---------------------------------
  3745                          _vdp_getCharAtLocationBuf:
  3746  0d57  dde5              	push	ix
  3747  0d59  dd210000          	ld	ix,0
  3748  0d5d  dd39              	add	ix,sp
  3749  0d5f  3a2201            	ld	a, (__vdp_crsr_max_x+0)
  3750  0d62  0600              	ld	b,0x00
  3751  0d64  4f                	ld	c, a
  3752  0d65  03                	inc	bc
  3753  0d66  dd5e05            	ld	e,(ix+5)
  3754  0d69  1600              	ld	d,0x00
  3755  0d6b  c5                	push	bc
  3756  0d6c  d5                	push	de
  3757  0d6d  cd0000            	call	__mulint_callee
  3758  0d70  dd4e04            	ld	c,(ix+4)
  3759  0d73  0600              	ld	b,0x00
  3760  0d75  09                	add	hl, bc
  3761  0d76  110000            	ld	de,__vdp_textBuffer
  3762  0d79  19                	add	hl, de
  3763  0d7a  6e                	ld	l, (hl)
  3764  0d7b  dde1              	pop	ix
  3765  0d7d  c9                	ret
  3766                          	SECTION code_compiler
  3767                          ;	---------------------------------
  3768                          ; Function vdp_setCharAtLocationBuf
  3769                          ; ---------------------------------
  3770                          _vdp_setCharAtLocationBuf:
  3771  0d7e  dde5              	push	ix
  3772  0d80  dd210000          	ld	ix,0
  3773  0d84  dd39              	add	ix,sp
  3774  0d86  3a2201            	ld	a, (__vdp_crsr_max_x+0)
  3775  0d89  1600              	ld	d,0x00
  3776  0d8b  5f                	ld	e, a
  3777  0d8c  13                	inc	de
  3778  0d8d  dd4e05            	ld	c,(ix+5)
  3779  0d90  0600              	ld	b,0x00
  3780  0d92  d5                	push	de
  3781  0d93  c5                	push	bc
  3782  0d94  cd0000            	call	__mulint_callee
  3783  0d97  dd4e04            	ld	c,(ix+4)
  3784  0d9a  0600              	ld	b,0x00
  3785  0d9c  09                	add	hl, bc
  3786  0d9d  110000            	ld	de,__vdp_textBuffer
  3787  0da0  19                	add	hl, de
  3788  0da1  dd7e06            	ld	a,(ix+6)
  3789  0da4  77                	ld	(hl), a
  3790  0da5  dde1              	pop	ix
  3791  0da7  c9                	ret
  3792                          	SECTION code_compiler
  3793                          ;	---------------------------------
  3794                          ; Function vdp_scrollTextUp
  3795                          ; ---------------------------------
  3796                          _vdp_scrollTextUp:
  3797  0da8  dde5              	push	ix
  3798  0daa  dd210000          	ld	ix,0
  3799  0dae  dd39              	add	ix,sp
  3800  0db0  f5                	push	af
  3801  0db1  3a2201            	ld	a, (__vdp_crsr_max_x+0)
  3802  0db4  1600              	ld	d,0x00
  3803  0db6  5f                	ld	e, a
  3804  0db7  13                	inc	de
  3805  0db8  dd4e04            	ld	c,(ix+4)
  3806  0dbb  0600              	ld	b,0x00
  3807  0dbd  d5                	push	de
  3808  0dbe  c5                	push	bc
  3809  0dbf  cd0000            	call	__mulint_callee
  3810  0dc2  eb                	ex	de, hl
  3811  0dc3  2ac703            	ld	hl, (__vdp_name_table)
  3812  0dc6  19                	add	hl, de
  3813  0dc7  7d                	ld	a, l
  3814  0dc8  d3a1              	out	(_IO_VDPLATCH), a
  3815  0dca  7c                	ld	a, h
  3816  0dcb  e63f              	and	a,0x3f
  3817  0dcd  f640              	or	a,0x40
  3818  0dcf  d3a1              	out	(_IO_VDPLATCH), a
  3819  0dd1  dd4e04            	ld	c,(ix+4)
  3820                          l_vdp_scrollTextUp_00111:
  3821  0dd4  79                	ld	a, c
  3822  0dd5  dd9605            	sub	a,(ix+5)
  3823  0dd8  3027              	jr	NC,l_vdp_scrollTextUp_00102
  3824  0dda  0600              	ld	b,0x00
  3825                          l_vdp_scrollTextUp_00108:
  3826  0ddc  78                	ld	a, b
  3827  0ddd  d628              	sub	a,0x28
  3828  0ddf  301d              	jr	NC,l_vdp_scrollTextUp_00125
  3829  0de1  210000            	ld	hl,__vdp_textBuffer
  3830  0de4  19                	add	hl, de
  3831  0de5  e3                	ex	(sp), hl
  3832  0de6  3a2201            	ld	a, (__vdp_crsr_max_x+0)
  3833  0de9  2600              	ld	h,0x00
  3834  0deb  6f                	ld	l, a
  3835  0dec  19                	add	hl, de
  3836  0ded  23                	inc	hl
  3837  0dee  d5                	push	de
  3838  0def  110000            	ld	de,__vdp_textBuffer
  3839  0df2  19                	add	hl, de
  3840  0df3  d1                	pop	de
  3841  0df4  7e                	ld	a, (hl)
  3842  0df5  e1                	pop	hl
  3843  0df6  e5                	push	hl
  3844  0df7  77                	ld	(hl), a
  3845  0df8  d3a0              	out	(_IO_VDPDATA), a
  3846  0dfa  13                	inc	de
  3847  0dfb  04                	inc	b
  3848  0dfc  18de              	jr	l_vdp_scrollTextUp_00108
  3849                          l_vdp_scrollTextUp_00125:
  3850  0dfe  0c                	inc	c
  3851  0dff  18d3              	jr	l_vdp_scrollTextUp_00111
  3852                          l_vdp_scrollTextUp_00102:
  3853  0e01  3a0003            	ld	a, (__vdp_crsr_max_y+0)
  3854  0e04  dd9605            	sub	a,(ix+5)
  3855  0e07  3815              	jr	C,l_vdp_scrollTextUp_00116
  3856  0e09  0e00              	ld	c,0x00
  3857                          l_vdp_scrollTextUp_00114:
  3858  0e0b  79                	ld	a, c
  3859  0e0c  d628              	sub	a,0x28
  3860  0e0e  300e              	jr	NC,l_vdp_scrollTextUp_00116
  3861  0e10  210000            	ld	hl,__vdp_textBuffer
  3862  0e13  19                	add	hl, de
  3863  0e14  3620              	ld	(hl),0x20
  3864  0e16  3e20              	ld	a,0x20
  3865  0e18  d3a0              	out	(_IO_VDPDATA), a
  3866  0e1a  13                	inc	de
  3867  0e1b  0c                	inc	c
  3868  0e1c  18ed              	jr	l_vdp_scrollTextUp_00114
  3869                          l_vdp_scrollTextUp_00116:
  3870  0e1e  ddf9              	ld	sp, ix
  3871  0e20  dde1              	pop	ix
  3872  0e22  c9                	ret
  3873                          	SECTION code_compiler
  3874                          ;	---------------------------------
  3875                          ; Function vdp_clearRows
  3876                          ; ---------------------------------
  3877                          _vdp_clearRows:
  3878  0e23  dde5              	push	ix
  3879  0e25  dd210000          	ld	ix,0
  3880  0e29  dd39              	add	ix,sp
  3881  0e2b  3a2201            	ld	a, (__vdp_crsr_max_x+0)
  3882  0e2e  1600              	ld	d,0x00
  3883  0e30  5f                	ld	e, a
  3884  0e31  13                	inc	de
  3885  0e32  dd4e04            	ld	c,(ix+4)
  3886  0e35  0600              	ld	b,0x00
  3887  0e37  d5                	push	de
  3888  0e38  c5                	push	bc
  3889  0e39  cd0000            	call	__mulint_callee
  3890  0e3c  eb                	ex	de, hl
  3891  0e3d  2ac703            	ld	hl, (__vdp_name_table)
  3892  0e40  19                	add	hl, de
  3893  0e41  7d                	ld	a, l
  3894  0e42  d3a1              	out	(_IO_VDPLATCH), a
  3895  0e44  7c                	ld	a, h
  3896  0e45  e63f              	and	a,0x3f
  3897  0e47  f640              	or	a,0x40
  3898  0e49  d3a1              	out	(_IO_VDPLATCH), a
  3899  0e4b  dd4e04            	ld	c,(ix+4)
  3900                          l_vdp_clearRows_00108:
  3901  0e4e  79                	ld	a, c
  3902  0e4f  dd9605            	sub	a,(ix+5)
  3903  0e52  3018              	jr	NC,l_vdp_clearRows_00110
  3904  0e54  0600              	ld	b,0x00
  3905                          l_vdp_clearRows_00105:
  3906  0e56  78                	ld	a, b
  3907  0e57  d628              	sub	a,0x28
  3908  0e59  300e              	jr	NC,l_vdp_clearRows_00116
  3909  0e5b  210000            	ld	hl,__vdp_textBuffer
  3910  0e5e  19                	add	hl, de
  3911  0e5f  3620              	ld	(hl),0x20
  3912  0e61  3e20              	ld	a,0x20
  3913  0e63  d3a0              	out	(_IO_VDPDATA), a
  3914  0e65  13                	inc	de
  3915  0e66  04                	inc	b
  3916  0e67  18ed              	jr	l_vdp_clearRows_00105
  3917                          l_vdp_clearRows_00116:
  3918  0e69  0c                	inc	c
  3919  0e6a  18e2              	jr	l_vdp_clearRows_00108
  3920                          l_vdp_clearRows_00110:
  3921  0e6c  dde1              	pop	ix
  3922  0e6e  c9                	ret
  3923                          	SECTION code_compiler
  3924                          ;	---------------------------------
  3925                          ; Function vdp_writeUInt32
  3926                          ; ---------------------------------
  3927                          _vdp_writeUInt32:
  3928  0e6f  dde5              	push	ix
  3929  0e71  dd210000          	ld	ix,0
  3930  0e75  dd39              	add	ix,sp
  3931  0e77  21dfff            	ld	hl, -33
  3932  0e7a  39                	add	hl, sp
  3933  0e7b  f9                	ld	sp, hl
  3934  0e7c  dd4e04            	ld	c,(ix+4)
  3935  0e7f  dd4605            	ld	b,(ix+5)
  3936  0e82  c5                	push	bc
  3937  0e83  210200            	ld	hl,2
  3938  0e86  39                	add	hl, sp
  3939  0e87  e5                	push	hl
  3940  0e88  210a00            	ld	hl,0x000a
  3941  0e8b  e5                	push	hl
  3942  0e8c  cd0000            	call	_utoa_callee
  3943  0e8f  dd36e900          	ld	(ix-23),0x00
  3944  0e93  210000            	ld	hl,0
  3945  0e96  39                	add	hl, sp
  3946  0e97  e5                	push	hl
  3947  0e98  cd7b0a            	call	_vdp_print
  3948  0e9b  ddf9              	ld	sp,ix
  3949  0e9d  dde1              	pop	ix
  3950  0e9f  c9                	ret
  3951                          	SECTION code_compiler
  3952                          ;	---------------------------------
  3953                          ; Function vdp_writeInt32
  3954                          ; ---------------------------------
  3955                          _vdp_writeInt32:
  3956  0ea0  dde5              	push	ix
  3957  0ea2  dd210000          	ld	ix,0
  3958  0ea6  dd39              	add	ix,sp
  3959  0ea8  21dfff            	ld	hl, -33
  3960  0eab  39                	add	hl, sp
  3961  0eac  f9                	ld	sp, hl
  3962  0ead  dd4e04            	ld	c,(ix+4)
  3963  0eb0  dd4605            	ld	b,(ix+5)
  3964  0eb3  c5                	push	bc
  3965  0eb4  210200            	ld	hl,2
  3966  0eb7  39                	add	hl, sp
  3967  0eb8  e5                	push	hl
  3968  0eb9  210a00            	ld	hl,0x000a
  3969  0ebc  e5                	push	hl
  3970  0ebd  cd0000            	call	_itoa_callee
  3971  0ec0  dd36ea00          	ld	(ix-22),0x00
  3972  0ec4  210000            	ld	hl,0
  3973  0ec7  39                	add	hl, sp
  3974  0ec8  e5                	push	hl
  3975  0ec9  cd7b0a            	call	_vdp_print
  3976  0ecc  ddf9              	ld	sp,ix
  3977  0ece  dde1              	pop	ix
  3978  0ed0  c9                	ret
  3979                          	SECTION code_compiler
  3980                          ;	---------------------------------
  3981                          ; Function vdp_writeUInt16
  3982                          ; ---------------------------------
  3983                          _vdp_writeUInt16:
  3984  0ed1  21efff            	ld	hl, -17
  3985  0ed4  39                	add	hl, sp
  3986  0ed5  f9                	ld	sp, hl
  3987  0ed6  211300            	ld	hl,19
  3988  0ed9  39                	add	hl, sp
  3989  0eda  4e                	ld	c, (hl)
  3990  0edb  23                	inc	hl
  3991  0edc  46                	ld	b, (hl)
  3992  0edd  c5                	push	bc
  3993  0ede  210200            	ld	hl,2
  3994  0ee1  39                	add	hl, sp
  3995  0ee2  e5                	push	hl
  3996  0ee3  210a00            	ld	hl,0x000a
  3997  0ee6  e5                	push	hl
  3998  0ee7  cd0000            	call	_utoa_callee
  3999  0eea  210500            	ld	hl,5
  4000  0eed  39                	add	hl, sp
  4001  0eee  eb                	ex	de, hl
  4002  0eef  af                	xor	a, a
  4003  0ef0  12                	ld	(de), a
  4004  0ef1  210000            	ld	hl,0
  4005  0ef4  39                	add	hl, sp
  4006  0ef5  e5                	push	hl
  4007  0ef6  cd7b0a            	call	_vdp_print
  4008  0ef9  f1                	pop	af
  4009  0efa  211100            	ld	hl,17
  4010  0efd  39                	add	hl, sp
  4011  0efe  f9                	ld	sp, hl
  4012  0eff  c9                	ret
  4013                          	SECTION code_compiler
  4014                          ;	---------------------------------
  4015                          ; Function vdp_writeInt16
  4016                          ; ---------------------------------
  4017                          _vdp_writeInt16:
  4018  0f00  21efff            	ld	hl, -17
  4019  0f03  39                	add	hl, sp
  4020  0f04  f9                	ld	sp, hl
  4021  0f05  211300            	ld	hl,19
  4022  0f08  39                	add	hl, sp
  4023  0f09  4e                	ld	c, (hl)
  4024  0f0a  23                	inc	hl
  4025  0f0b  46                	ld	b, (hl)
  4026  0f0c  c5                	push	bc
  4027  0f0d  210200            	ld	hl,2
  4028  0f10  39                	add	hl, sp
  4029  0f11  e5                	push	hl
  4030  0f12  210a00            	ld	hl,0x000a
  4031  0f15  e5                	push	hl
  4032  0f16  cd0000            	call	_itoa_callee
  4033  0f19  210600            	ld	hl,6
  4034  0f1c  39                	add	hl, sp
  4035  0f1d  eb                	ex	de, hl
  4036  0f1e  af                	xor	a, a
  4037  0f1f  12                	ld	(de), a
  4038  0f20  210000            	ld	hl,0
  4039  0f23  39                	add	hl, sp
  4040  0f24  e5                	push	hl
  4041  0f25  cd7b0a            	call	_vdp_print
  4042  0f28  f1                	pop	af
  4043  0f29  211100            	ld	hl,17
  4044  0f2c  39                	add	hl, sp
  4045  0f2d  f9                	ld	sp, hl
  4046  0f2e  c9                	ret
  4047                          	SECTION code_compiler
  4048                          ;	---------------------------------
  4049                          ; Function vdp_writeUInt8
  4050                          ; ---------------------------------
  4051                          _vdp_writeUInt8:
  4052  0f2f  dde5              	push	ix
  4053  0f31  dd210000          	ld	ix,0
  4054  0f35  dd39              	add	ix,sp
  4055  0f37  21f7ff            	ld	hl, -9
  4056  0f3a  39                	add	hl, sp
  4057  0f3b  f9                	ld	sp, hl
  4058  0f3c  210000            	ld	hl,0
  4059  0f3f  39                	add	hl, sp
  4060  0f40  eb                	ex	de, hl
  4061  0f41  af                	xor	a, a
  4062  0f42  12                	ld	(de), a
  4063  0f43  dd36f800          	ld	(ix-8),0x00
  4064  0f47  dd36f900          	ld	(ix-7),0x00
  4065  0f4b  dd36fa00          	ld	(ix-6),0x00
  4066  0f4f  dd36fb00          	ld	(ix-5),0x00
  4067  0f53  dd36fc00          	ld	(ix-4),0x00
  4068  0f57  dd36fd00          	ld	(ix-3),0x00
  4069  0f5b  dd36fe00          	ld	(ix-2),0x00
  4070  0f5f  dd36ff00          	ld	(ix-1),0x00
  4071  0f63  4b                	ld	c, e
  4072  0f64  42                	ld	b, d
  4073  0f65  dd6e04            	ld	l,(ix+4)
  4074  0f68  2600              	ld	h,0x00
  4075  0f6a  d5                	push	de
  4076  0f6b  e5                	push	hl
  4077  0f6c  c5                	push	bc
  4078  0f6d  210a00            	ld	hl,0x000a
  4079  0f70  e5                	push	hl
  4080  0f71  cd0000            	call	_utoa_callee
  4081  0f74  cd7b0a            	call	_vdp_print
  4082  0f77  ddf9              	ld	sp,ix
  4083  0f79  dde1              	pop	ix
  4084  0f7b  c9                	ret
  4085                          	SECTION code_compiler
  4086                          ;	---------------------------------
  4087                          ; Function vdp_writeInt8
  4088                          ; ---------------------------------
  4089                          _vdp_writeInt8:
  4090  0f7c  dde5              	push	ix
  4091  0f7e  dd210000          	ld	ix,0
  4092  0f82  dd39              	add	ix,sp
  4093  0f84  21f7ff            	ld	hl, -9
  4094  0f87  39                	add	hl, sp
  4095  0f88  f9                	ld	sp, hl
  4096  0f89  dd7e04            	ld	a,(ix+4)
  4097  0f8c  4f                	ld	c, a
  4098  0f8d  07                	rlca
  4099  0f8e  9f                	sbc	a, a
  4100  0f8f  47                	ld	b, a
  4101  0f90  c5                	push	bc
  4102  0f91  210200            	ld	hl,2
  4103  0f94  39                	add	hl, sp
  4104  0f95  e5                	push	hl
  4105  0f96  210a00            	ld	hl,0x000a
  4106  0f99  e5                	push	hl
  4107  0f9a  cd0000            	call	_itoa_callee
  4108  0f9d  dd36fb00          	ld	(ix-5),0x00
  4109  0fa1  210000            	ld	hl,0
  4110  0fa4  39                	add	hl, sp
  4111  0fa5  e5                	push	hl
  4112  0fa6  cd7b0a            	call	_vdp_print
  4113  0fa9  ddf9              	ld	sp,ix
  4114  0fab  dde1              	pop	ix
  4115  0fad  c9                	ret
  4116                          	SECTION code_compiler
  4117                          ;	---------------------------------
  4118                          ; Function vdp_writeUInt8ToBinary
  4119                          ; ---------------------------------
  4120                          _vdp_writeUInt8ToBinary:
  4121  0fae  dde5              	push	ix
  4122  0fb0  dd210000          	ld	ix,0
  4123  0fb4  dd39              	add	ix,sp
  4124  0fb6  21f7ff            	ld	hl, -9
  4125  0fb9  39                	add	hl, sp
  4126  0fba  f9                	ld	sp, hl
  4127  0fbb  0e00              	ld	c,0x00
  4128                          l_vdp_writeUInt8ToBinary_00106:
  4129  0fbd  79                	ld	a, c
  4130  0fbe  d608              	sub	a,0x08
  4131  0fc0  302a              	jr	NC,l_vdp_writeUInt8ToBinary_00104
  4132  0fc2  41                	ld	b, c
  4133  0fc3  dd6e04            	ld	l,(ix+4)
  4134  0fc6  04                	inc	b
  4135  0fc7  1802              	jr	l_vdp_writeUInt8ToBinary_00127
  4136                          l_vdp_writeUInt8ToBinary_00126:
  4137  0fc9  cb3d              	srl	l
  4138                          l_vdp_writeUInt8ToBinary_00127:
  4139  0fcb  10fc              	djnz	l_vdp_writeUInt8ToBinary_00126
  4140  0fcd  59                	ld	e, c
  4141  0fce  3e07              	ld	a,0x07
  4142  0fd0  93                	sub	a, e
  4143  0fd1  5f                	ld	e, a
  4144  0fd2  07                	rlca
  4145  0fd3  9f                	sbc	a, a
  4146  0fd4  57                	ld	d, a
  4147  0fd5  cb45              	bit	0, l
  4148  0fd7  2809              	jr	Z,l_vdp_writeUInt8ToBinary_00102
  4149  0fd9  210000            	ld	hl,0
  4150  0fdc  39                	add	hl, sp
  4151  0fdd  19                	add	hl, de
  4152  0fde  3631              	ld	(hl),0x31
  4153  0fe0  1807              	jr	l_vdp_writeUInt8ToBinary_00107
  4154                          l_vdp_writeUInt8ToBinary_00102:
  4155  0fe2  210000            	ld	hl,0
  4156  0fe5  39                	add	hl, sp
  4157  0fe6  19                	add	hl, de
  4158  0fe7  3630              	ld	(hl),0x30
  4159                          l_vdp_writeUInt8ToBinary_00107:
  4160  0fe9  0c                	inc	c
  4161  0fea  18d1              	jr	l_vdp_writeUInt8ToBinary_00106
  4162                          l_vdp_writeUInt8ToBinary_00104:
  4163  0fec  dd36ff00          	ld	(ix-1),0x00
  4164  0ff0  210000            	ld	hl,0
  4165  0ff3  39                	add	hl, sp
  4166  0ff4  e5                	push	hl
  4167  0ff5  cd7b0a            	call	_vdp_print
  4168  0ff8  ddf9              	ld	sp,ix
  4169  0ffa  dde1              	pop	ix
  4170  0ffc  c9                	ret
  4171                          	SECTION code_compiler
  4172                          ;	---------------------------------
  4173                          ; Function vdp_writeUInt16ToBinary
  4174                          ; ---------------------------------
  4175                          _vdp_writeUInt16ToBinary:
  4176  0ffd  dde5              	push	ix
  4177  0fff  dd210000          	ld	ix,0
  4178  1003  dd39              	add	ix,sp
  4179  1005  21edff            	ld	hl, -19
  4180  1008  39                	add	hl, sp
  4181  1009  f9                	ld	sp, hl
  4182  100a  0e00              	ld	c,0x00
  4183                          l_vdp_writeUInt16ToBinary_00106:
  4184  100c  79                	ld	a, c
  4185  100d  d610              	sub	a,0x10
  4186  100f  303f              	jr	NC,l_vdp_writeUInt16ToBinary_00104
  4187  1011  41                	ld	b, c
  4188  1012  dd5e04            	ld	e,(ix+4)
  4189  1015  dd5605            	ld	d,(ix+5)
  4190  1018  04                	inc	b
  4191  1019  1804              	jr	l_vdp_writeUInt16ToBinary_00127
  4192                          l_vdp_writeUInt16ToBinary_00126:
  4193  101b  cb3a              	srl	d
  4194  101d  cb1b              	rr	e
  4195                          l_vdp_writeUInt16ToBinary_00127:
  4196  101f  10fa              	djnz	l_vdp_writeUInt16ToBinary_00126
  4197  1021  41                	ld	b, c
  4198  1022  3e0f              	ld	a,0x0f
  4199  1024  90                	sub	a, b
  4200  1025  dd77fe            	ld	(ix-2),a
  4201  1028  07                	rlca
  4202  1029  9f                	sbc	a, a
  4203  102a  dd77ff            	ld	(ix-1),a
  4204  102d  cb43              	bit	0, e
  4205  102f  280f              	jr	Z,l_vdp_writeUInt16ToBinary_00102
  4206  1031  dd5efe            	ld	e,(ix-2)
  4207  1034  dd56ff            	ld	d,(ix-1)
  4208  1037  210000            	ld	hl,0
  4209  103a  39                	add	hl, sp
  4210  103b  19                	add	hl, de
  4211  103c  3631              	ld	(hl),0x31
  4212  103e  180d              	jr	l_vdp_writeUInt16ToBinary_00107
  4213                          l_vdp_writeUInt16ToBinary_00102:
  4214  1040  dd5efe            	ld	e,(ix-2)
  4215  1043  dd56ff            	ld	d,(ix-1)
  4216  1046  210000            	ld	hl,0
  4217  1049  39                	add	hl, sp
  4218  104a  19                	add	hl, de
  4219  104b  3630              	ld	(hl),0x30
  4220                          l_vdp_writeUInt16ToBinary_00107:
  4221  104d  0c                	inc	c
  4222  104e  18bc              	jr	l_vdp_writeUInt16ToBinary_00106
  4223                          l_vdp_writeUInt16ToBinary_00104:
  4224  1050  dd36fd00          	ld	(ix-3),0x00
  4225  1054  210000            	ld	hl,0
  4226  1057  39                	add	hl, sp
  4227  1058  e5                	push	hl
  4228  1059  cd7b0a            	call	_vdp_print
  4229  105c  ddf9              	ld	sp,ix
  4230  105e  dde1              	pop	ix
  4231  1060  c9                	ret
  4232                          	SECTION code_compiler
  4233                          ;	---------------------------------
  4234                          ; Function vdp_initTextMode
  4235                          ; ---------------------------------
  4236                          _vdp_initTextMode:
  4237  1061  fd210200          	ld	iy,2
  4238  1065  fd39              	add	iy, sp
  4239  1067  fd7e00            	ld	a,(iy+0)
  4240  106a  87                	add	a, a
  4241  106b  87                	add	a, a
  4242  106c  87                	add	a, a
  4243  106d  87                	add	a, a
  4244  106e  4f                	ld	c, a
  4245  106f  fd23              	inc	iy
  4246  1071  fd7e00            	ld	a,(iy+0)
  4247  1074  e60f              	and	a,0x0f
  4248  1076  b1                	or	a, c
  4249  1077  fd6601            	ld	h,(iy+0+1)
  4250  107a  e5                	push	hl
  4251  107b  33                	inc	sp
  4252  107c  2600              	ld	h,0x00
  4253  107e  e5                	push	hl
  4254  107f  33                	inc	sp
  4255  1080  2600              	ld	h,0x00
  4256  1082  e5                	push	hl
  4257  1083  33                	inc	sp
  4258  1084  57                	ld	d,a
  4259  1085  1e03              	ld	e,0x03
  4260  1087  d5                	push	de
  4261  1088  cdae03            	call	_vdp_init
  4262  108b  f1                	pop	af
  4263  108c  f1                	pop	af
  4264  108d  33                	inc	sp
  4265  108e  c9                	ret
  4266                          	SECTION code_compiler
  4267                          ;	---------------------------------
  4268                          ; Function vdp_initG1Mode
  4269                          ; ---------------------------------
  4270                          _vdp_initG1Mode:
  4271  108f  fd210200          	ld	iy,2
  4272  1093  fd39              	add	iy, sp
  4273  1095  fd7e00            	ld	a,(iy+0)
  4274  1098  87                	add	a, a
  4275  1099  87                	add	a, a
  4276  109a  87                	add	a, a
  4277  109b  87                	add	a, a
  4278  109c  4f                	ld	c, a
  4279  109d  fd7e01            	ld	a,(iy+0+1)
  4280  10a0  e60f              	and	a,0x0f
  4281  10a2  b1                	or	a, c
  4282  10a3  2600              	ld	h,0x00
  4283  10a5  e5                	push	hl
  4284  10a6  33                	inc	sp
  4285  10a7  2600              	ld	h,0x00
  4286  10a9  e5                	push	hl
  4287  10aa  33                	inc	sp
  4288  10ab  2600              	ld	h,0x00
  4289  10ad  e5                	push	hl
  4290  10ae  33                	inc	sp
  4291  10af  f5                	push	af
  4292  10b0  33                	inc	sp
  4293  10b1  af                	xor	a, a
  4294  10b2  f5                	push	af
  4295  10b3  33                	inc	sp
  4296  10b4  cdae03            	call	_vdp_init
  4297  10b7  f1                	pop	af
  4298  10b8  f1                	pop	af
  4299  10b9  33                	inc	sp
  4300  10ba  c9                	ret
  4301                          	SECTION code_compiler
  4302                          ;	---------------------------------
  4303                          ; Function vdp_initG2Mode
  4304                          ; ---------------------------------
  4305                          _vdp_initG2Mode:
  4306  10bb  af                	xor	a, a
  4307  10bc  f5                	push	af
  4308  10bd  33                	inc	sp
  4309  10be  fd210400          	ld	iy,4
  4310  10c2  fd39              	add	iy, sp
  4311  10c4  fd7e00            	ld	a,(iy+0)
  4312  10c7  f5                	push	af
  4313  10c8  33                	inc	sp
  4314  10c9  fd2b              	dec	iy
  4315  10cb  fd7e00            	ld	a,(iy+0)
  4316  10ce  f5                	push	af
  4317  10cf  33                	inc	sp
  4318  10d0  af                	xor	a, a
  4319  10d1  57                	ld	d,a
  4320  10d2  1e01              	ld	e,0x01
  4321  10d4  d5                	push	de
  4322  10d5  cdae03            	call	_vdp_init
  4323  10d8  f1                	pop	af
  4324  10d9  f1                	pop	af
  4325  10da  33                	inc	sp
  4326  10db  c9                	ret
  4327                          	SECTION code_compiler
  4328                          ;	---------------------------------
  4329                          ; Function vdp_initMultiColorMode
  4330                          ; ---------------------------------
  4331                          _vdp_initMultiColorMode:
  4332  10dc  af                	xor	a, a
  4333  10dd  f5                	push	af
  4334  10de  33                	inc	sp
  4335  10df  af                	xor	a, a
  4336  10e0  f5                	push	af
  4337  10e1  33                	inc	sp
  4338  10e2  af                	xor	a, a
  4339  10e3  f5                	push	af
  4340  10e4  33                	inc	sp
  4341  10e5  af                	xor	a, a
  4342  10e6  57                	ld	d,a
  4343  10e7  1e02              	ld	e,0x02
  4344  10e9  d5                	push	de
  4345  10ea  cdae03            	call	_vdp_init
  4346  10ed  f1                	pop	af
  4347  10ee  f1                	pop	af
  4348  10ef  33                	inc	sp
  4349  10f0  c9                	ret
  4350                          	SECTION code_compiler
  4351                          ;	---------------------------------
  4352                          ; Function initGame
  4353                          ; ---------------------------------
  4354                          _initGame:
  4355  10f1  dde5              	push	ix
  4356  10f3  dd210000          	ld	ix,0
  4357  10f7  dd39              	add	ix,sp
  4358  10f9  f5                	push	af
  4359  10fa  3b                	dec	sp
  4360  10fb  01f101            	ld	bc,__player+0
  4361  10fe  dd36ff00          	ld	(ix-1),0x00
  4362                          l_initGame_00104:
  4363  1102  21e401            	ld	hl,_PLAYER_CNT
  4364  1105  dd7eff            	ld	a,(ix-1)
  4365  1108  96                	sub	a, (hl)
  4366  1109  305d              	jr	NC,l_initGame_00101
  4367  110b  dd5eff            	ld	e,(ix-1)
  4368  110e  1600              	ld	d,0x00
  4369  1110  6b                	ld	l, e
  4370  1111  62                	ld	h, d
  4371  1112  29                	add	hl, hl
  4372  1113  29                	add	hl, hl
  4373  1114  19                	add	hl, de
  4374  1115  29                	add	hl, hl
  4375  1116  19                	add	hl, de
  4376  1117  09                	add	hl, bc
  4377  1118  eb                	ex	de, hl
  4378  1119  3e32              	ld	a,0x32
  4379  111b  12                	ld	(de), a
  4380  111c  210100            	ld	hl,0x0001
  4381  111f  19                	add	hl, de
  4382  1120  e3                	ex	(sp), hl
  4383  1121  c5                	push	bc
  4384  1122  d5                	push	de
  4385  1123  cd0000            	call	_rand
  4386  1126  fd219600          	ld	iy,0x0096
  4387  112a  fde5              	push	iy
  4388  112c  e5                	push	hl
  4389  112d  cd0000            	call	__modsint_callee
  4390  1130  d1                	pop	de
  4391  1131  c1                	pop	bc
  4392  1132  7d                	ld	a, l
  4393  1133  e1                	pop	hl
  4394  1134  e5                	push	hl
  4395  1135  77                	ld	(hl), a
  4396  1136  210400            	ld	hl,0x0004
  4397  1139  19                	add	hl, de
  4398  113a  3600              	ld	(hl),0x00
  4399  113c  210500            	ld	hl,0x0005
  4400  113f  19                	add	hl, de
  4401  1140  3600              	ld	(hl),0x00
  4402  1142  6b                	ld	l, e
  4403  1143  62                	ld	h, d
  4404  1144  23                	inc	hl
  4405  1145  23                	inc	hl
  4406  1146  3601              	ld	(hl),0x01
  4407  1148  6b                	ld	l, e
  4408  1149  62                	ld	h, d
  4409  114a  23                	inc	hl
  4410  114b  23                	inc	hl
  4411  114c  23                	inc	hl
  4412  114d  3601              	ld	(hl),0x01
  4413  114f  210700            	ld	hl,0x0007
  4414  1152  19                	add	hl, de
  4415  1153  3ae301            	ld	a, (_PLAYER_LIVES+0)
  4416  1156  77                	ld	(hl), a
  4417  1157  210600            	ld	hl,0x0006
  4418  115a  19                	add	hl, de
  4419  115b  3600              	ld	(hl),0x00
  4420  115d  210a00            	ld	hl,0x000a
  4421  1160  19                	add	hl, de
  4422  1161  3601              	ld	(hl),0x01
  4423  1163  dd34ff            	inc	(ix-1)
  4424  1166  189a              	jr	l_initGame_00104
  4425                          l_initGame_00101:
  4426  1168  dd36ff00          	ld	(ix-1),0x00
  4427                          l_initGame_00107:
  4428  116c  dd7eff            	ld	a,(ix-1)
  4429  116f  d606              	sub	a,0x06
  4430  1171  d21712            	jp	NC, l_initGame_00109
  4431  1174  dd4eff            	ld	c,(ix-1)
  4432  1177  0600              	ld	b,0x00
  4433  1179  69                	ld	l, c
  4434  117a  60                	ld	h, b
  4435  117b  29                	add	hl, hl
  4436  117c  29                	add	hl, hl
  4437  117d  29                	add	hl, hl
  4438  117e  09                	add	hl, bc
  4439  117f  111d02            	ld	de,__rock
  4440  1182  19                	add	hl, de
  4441  1183  e5                	push	hl
  4442  1184  cd0000            	call	_rand
  4443  1187  11c800            	ld	de,0x00c8
  4444  118a  d5                	push	de
  4445  118b  e5                	push	hl
  4446  118c  cd0000            	call	__modsint_callee
  4447  118f  c1                	pop	bc
  4448  1190  7d                	ld	a, l
  4449  1191  c632              	add	a,0x32
  4450  1193  02                	ld	(bc), a
  4451  1194  59                	ld	e, c
  4452  1195  50                	ld	d, b
  4453  1196  13                	inc	de
  4454  1197  c5                	push	bc
  4455  1198  d5                	push	de
  4456  1199  cd0000            	call	_rand
  4457  119c  fd218c00          	ld	iy,0x008c
  4458  11a0  fde5              	push	iy
  4459  11a2  e5                	push	hl
  4460  11a3  cd0000            	call	__modsint_callee
  4461  11a6  d1                	pop	de
  4462  11a7  c1                	pop	bc
  4463  11a8  7d                	ld	a, l
  4464  11a9  c60a              	add	a,0x0a
  4465  11ab  12                	ld	(de), a
  4466  11ac  210400            	ld	hl,0x0004
  4467  11af  09                	add	hl, bc
  4468  11b0  c5                	push	bc
  4469  11b1  e5                	push	hl
  4470  11b2  cd0000            	call	_rand
  4471  11b5  fd211e00          	ld	iy,0x001e
  4472  11b9  fde5              	push	iy
  4473  11bb  e5                	push	hl
  4474  11bc  cd0000            	call	__modsint_callee
  4475  11bf  d1                	pop	de
  4476  11c0  c1                	pop	bc
  4477  11c1  7d                	ld	a, l
  4478  11c2  3c                	inc	a
  4479  11c3  12                	ld	(de), a
  4480  11c4  210500            	ld	hl,0x0005
  4481  11c7  09                	add	hl, bc
  4482  11c8  c5                	push	bc
  4483  11c9  e5                	push	hl
  4484  11ca  cd0000            	call	_rand
  4485  11cd  fd211e00          	ld	iy,0x001e
  4486  11d1  fde5              	push	iy
  4487  11d3  e5                	push	hl
  4488  11d4  cd0000            	call	__modsint_callee
  4489  11d7  d1                	pop	de
  4490  11d8  c1                	pop	bc
  4491  11d9  7d                	ld	a, l
  4492  11da  3c                	inc	a
  4493  11db  12                	ld	(de), a
  4494  11dc  59                	ld	e, c
  4495  11dd  50                	ld	d, b
  4496  11de  13                	inc	de
  4497  11df  13                	inc	de
  4498  11e0  c5                	push	bc
  4499  11e1  d5                	push	de
  4500  11e2  cd0000            	call	_rand
  4501  11e5  fd210200          	ld	iy,0x0002
  4502  11e9  fde5              	push	iy
  4503  11eb  e5                	push	hl
  4504  11ec  cd0000            	call	__modsint_callee
  4505  11ef  d1                	pop	de
  4506  11f0  c1                	pop	bc
  4507  11f1  7d                	ld	a, l
  4508  11f2  12                	ld	(de), a
  4509  11f3  59                	ld	e, c
  4510  11f4  50                	ld	d, b
  4511  11f5  13                	inc	de
  4512  11f6  13                	inc	de
  4513  11f7  13                	inc	de
  4514  11f8  c5                	push	bc
  4515  11f9  d5                	push	de
  4516  11fa  cd0000            	call	_rand
  4517  11fd  fd210200          	ld	iy,0x0002
  4518  1201  fde5              	push	iy
  4519  1203  e5                	push	hl
  4520  1204  cd0000            	call	__modsint_callee
  4521  1207  d1                	pop	de
  4522  1208  c1                	pop	bc
  4523  1209  7d                	ld	a, l
  4524  120a  12                	ld	(de), a
  4525  120b  210800            	ld	hl,0x0008
  4526  120e  09                	add	hl, bc
  4527  120f  3601              	ld	(hl),0x01
  4528  1211  dd34ff            	inc	(ix-1)
  4529  1214  c36c11            	jp	l_initGame_00107
  4530                          l_initGame_00109:
  4531  1217  ddf9              	ld	sp, ix
  4532  1219  dde1              	pop	ix
  4533  121b  c9                	ret
  4534                          	SECTION code_compiler
  4535                          ;	---------------------------------
  4536                          ; Function initSprites
  4537                          ; ---------------------------------
  4538                          _initSprites:
  4539  121c  212301            	ld	hl,_SPRITE_UFO
  4540  121f  e5                	push	hl
  4541  1220  af                	xor	a, a
  4542  1221  f5                	push	af
  4543  1222  33                	inc	sp
  4544  1223  cddd08            	call	_vdp_setSpritePattern
  4545  1226  f1                	pop	af
  4546  1227  33                	inc	sp
  4547  1228  3e03              	ld	a,0x03
  4548  122a  f5                	push	af
  4549  122b  33                	inc	sp
  4550  122c  af                	xor	a, a
  4551  122d  f5                	push	af
  4552  122e  33                	inc	sp
  4553  122f  af                	xor	a, a
  4554  1230  f5                	push	af
  4555  1231  33                	inc	sp
  4556  1232  cdc309            	call	_vdp_spriteInit
  4557  1235  f1                	pop	af
  4558  1236  33                	inc	sp
  4559  1237  eb                	ex	de, hl
  4560  1238  ed53f901          	ld	((__player + 8)), de
  4561  123c  212301            	ld	hl,_SPRITE_UFO
  4562  123f  e5                	push	hl
  4563  1240  3e01              	ld	a,0x01
  4564  1242  f5                	push	af
  4565  1243  33                	inc	sp
  4566  1244  cddd08            	call	_vdp_setSpritePattern
  4567  1247  f1                	pop	af
  4568  1248  33                	inc	sp
  4569  1249  110103            	ld	de,0x0301
  4570  124c  d5                	push	de
  4571  124d  3e01              	ld	a,0x01
  4572  124f  f5                	push	af
  4573  1250  33                	inc	sp
  4574  1251  cdc309            	call	_vdp_spriteInit
  4575  1254  f1                	pop	af
  4576  1255  33                	inc	sp
  4577  1256  eb                	ex	de, hl
  4578  1257  ed530402          	ld	((__player + 19)), de
  4579  125b  212301            	ld	hl,_SPRITE_UFO
  4580  125e  e5                	push	hl
  4581  125f  3e02              	ld	a,0x02
  4582  1261  f5                	push	af
  4583  1262  33                	inc	sp
  4584  1263  cddd08            	call	_vdp_setSpritePattern
  4585  1266  f1                	pop	af
  4586  1267  33                	inc	sp
  4587  1268  110203            	ld	de,0x0302
  4588  126b  d5                	push	de
  4589  126c  3e02              	ld	a,0x02
  4590  126e  f5                	push	af
  4591  126f  33                	inc	sp
  4592  1270  cdc309            	call	_vdp_spriteInit
  4593  1273  f1                	pop	af
  4594  1274  33                	inc	sp
  4595  1275  eb                	ex	de, hl
  4596  1276  ed530f02          	ld	((__player + 30)), de
  4597  127a  212301            	ld	hl,_SPRITE_UFO
  4598  127d  e5                	push	hl
  4599  127e  3e03              	ld	a,0x03
  4600  1280  f5                	push	af
  4601  1281  33                	inc	sp
  4602  1282  cddd08            	call	_vdp_setSpritePattern
  4603  1285  f1                	pop	af
  4604  1286  33                	inc	sp
  4605  1287  110303            	ld	de,0x0303
  4606  128a  d5                	push	de
  4607  128b  3e03              	ld	a,0x03
  4608  128d  f5                	push	af
  4609  128e  33                	inc	sp
  4610  128f  cdc309            	call	_vdp_spriteInit
  4611  1292  f1                	pop	af
  4612  1293  33                	inc	sp
  4613  1294  eb                	ex	de, hl
  4614  1295  ed531a02          	ld	((__player + 41)), de
  4615  1299  214301            	ld	hl,_SPRITE_ROCK1
  4616  129c  e5                	push	hl
  4617  129d  3e04              	ld	a,0x04
  4618  129f  f5                	push	af
  4619  12a0  33                	inc	sp
  4620  12a1  cddd08            	call	_vdp_setSpritePattern
  4621  12a4  f1                	pop	af
  4622  12a5  33                	inc	sp
  4623  12a6  110404            	ld	de,0x0404
  4624  12a9  d5                	push	de
  4625  12aa  3e04              	ld	a,0x04
  4626  12ac  f5                	push	af
  4627  12ad  33                	inc	sp
  4628  12ae  cdc309            	call	_vdp_spriteInit
  4629  12b1  f1                	pop	af
  4630  12b2  33                	inc	sp
  4631  12b3  eb                	ex	de, hl
  4632  12b4  ed532302          	ld	((__rock + 6)), de
  4633  12b8  216301            	ld	hl,_SPRITE_ROCK2
  4634  12bb  e5                	push	hl
  4635  12bc  3e05              	ld	a,0x05
  4636  12be  f5                	push	af
  4637  12bf  33                	inc	sp
  4638  12c0  cddd08            	call	_vdp_setSpritePattern
  4639  12c3  f1                	pop	af
  4640  12c4  33                	inc	sp
  4641  12c5  110505            	ld	de,0x0505
  4642  12c8  d5                	push	de
  4643  12c9  3e05              	ld	a,0x05
  4644  12cb  f5                	push	af
  4645  12cc  33                	inc	sp
  4646  12cd  cdc309            	call	_vdp_spriteInit
  4647  12d0  f1                	pop	af
  4648  12d1  33                	inc	sp
  4649  12d2  eb                	ex	de, hl
  4650  12d3  ed532c02          	ld	((__rock + 15)), de
  4651  12d7  218301            	ld	hl,_SPRITE_ROCK3
  4652  12da  e5                	push	hl
  4653  12db  3e06              	ld	a,0x06
  4654  12dd  f5                	push	af
  4655  12de  33                	inc	sp
  4656  12df  cddd08            	call	_vdp_setSpritePattern
  4657  12e2  f1                	pop	af
  4658  12e3  33                	inc	sp
  4659  12e4  110606            	ld	de,0x0606
  4660  12e7  d5                	push	de
  4661  12e8  3e06              	ld	a,0x06
  4662  12ea  f5                	push	af
  4663  12eb  33                	inc	sp
  4664  12ec  cdc309            	call	_vdp_spriteInit
  4665  12ef  f1                	pop	af
  4666  12f0  33                	inc	sp
  4667  12f1  eb                	ex	de, hl
  4668  12f2  ed533502          	ld	((__rock + 24)), de
  4669  12f6  214301            	ld	hl,_SPRITE_ROCK1
  4670  12f9  e5                	push	hl
  4671  12fa  3e07              	ld	a,0x07
  4672  12fc  f5                	push	af
  4673  12fd  33                	inc	sp
  4674  12fe  cddd08            	call	_vdp_setSpritePattern
  4675  1301  f1                	pop	af
  4676  1302  33                	inc	sp
  4677  1303  110707            	ld	de,0x0707
  4678  1306  d5                	push	de
  4679  1307  3e07              	ld	a,0x07
  4680  1309  f5                	push	af
  4681  130a  33                	inc	sp
  4682  130b  cdc309            	call	_vdp_spriteInit
  4683  130e  f1                	pop	af
  4684  130f  33                	inc	sp
  4685  1310  eb                	ex	de, hl
  4686  1311  ed533e02          	ld	((__rock + 33)), de
  4687  1315  216301            	ld	hl,_SPRITE_ROCK2
  4688  1318  e5                	push	hl
  4689  1319  3e08              	ld	a,0x08
  4690  131b  f5                	push	af
  4691  131c  33                	inc	sp
  4692  131d  cddd08            	call	_vdp_setSpritePattern
  4693  1320  f1                	pop	af
  4694  1321  33                	inc	sp
  4695  1322  11080e            	ld	de,0x0e08
  4696  1325  d5                	push	de
  4697  1326  3e08              	ld	a,0x08
  4698  1328  f5                	push	af
  4699  1329  33                	inc	sp
  4700  132a  cdc309            	call	_vdp_spriteInit
  4701  132d  f1                	pop	af
  4702  132e  33                	inc	sp
  4703  132f  eb                	ex	de, hl
  4704  1330  ed534702          	ld	((__rock + 42)), de
  4705  1334  218301            	ld	hl,_SPRITE_ROCK3
  4706  1337  e5                	push	hl
  4707  1338  3e09              	ld	a,0x09
  4708  133a  f5                	push	af
  4709  133b  33                	inc	sp
  4710  133c  cddd08            	call	_vdp_setSpritePattern
  4711  133f  f1                	pop	af
  4712  1340  33                	inc	sp
  4713  1341  11090b            	ld	de,0x0b09
  4714  1344  d5                	push	de
  4715  1345  3e09              	ld	a,0x09
  4716  1347  f5                	push	af
  4717  1348  33                	inc	sp
  4718  1349  cdc309            	call	_vdp_spriteInit
  4719  134c  f1                	pop	af
  4720  134d  33                	inc	sp
  4721  134e  eb                	ex	de, hl
  4722  134f  ed535002          	ld	((__rock + 51)), de
  4723  1353  c9                	ret
  4724                          	SECTION code_compiler
  4725                          ;	---------------------------------
  4726                          ; Function doPlayer
  4727                          ; ---------------------------------
  4728                          _doPlayer:
  4729  1354  dde5              	push	ix
  4730  1356  dd210000          	ld	ix,0
  4731  135a  dd39              	add	ix,sp
  4732  135c  f5                	push	af
  4733  135d  010301            	ld	bc,__joyStatus+0
  4734  1360  dd6e04            	ld	l,(ix+4)
  4735  1363  2600              	ld	h,0x00
  4736  1365  09                	add	hl, bc
  4737  1366  7e                	ld	a, (hl)
  4738  1367  e61f              	and	a,0x1f
  4739  1369  4f                	ld	c, a
  4740  136a  0600              	ld	b,0x00
  4741  136c  79                	ld	a, c
  4742  136d  3d                	dec	a
  4743  136e  b0                	or	a, b
  4744  136f  ca3514            	jp	Z,l_doPlayer_00128
  4745  1372  79                	ld	a, c
  4746  1373  d602              	sub	a,0x02
  4747  1375  b0                	or	a, b
  4748  1376  cafb13            	jp	Z,l_doPlayer_00119
  4749  1379  79                	ld	a, c
  4750  137a  d604              	sub	a,0x04
  4751  137c  b0                	or	a, b
  4752  137d  2844              	jr	Z,l_doPlayer_00110
  4753  137f  79                	ld	a, c
  4754  1380  d608              	sub	a,0x08
  4755  1382  b0                	or	a, b
  4756  1383  c26814            	jp	NZ,l_doPlayer_00137
  4757  1386  01f101            	ld	bc,__player+0
  4758  1389  dd5e04            	ld	e,(ix+4)
  4759  138c  1600              	ld	d,0x00
  4760  138e  6b                	ld	l, e
  4761  138f  62                	ld	h, d
  4762  1390  29                	add	hl, hl
  4763  1391  29                	add	hl, hl
  4764  1392  19                	add	hl, de
  4765  1393  29                	add	hl, hl
  4766  1394  19                	add	hl, de
  4767  1395  09                	add	hl, bc
  4768  1396  eb                	ex	de, hl
  4769  1397  210500            	ld	hl,0x0005
  4770  139a  19                	add	hl, de
  4771  139b  4d                	ld	c, l
  4772  139c  44                	ld	b, h
  4773  139d  0a                	ld	a, (bc)
  4774  139e  6f                	ld	l, a
  4775  139f  13                	inc	de
  4776  13a0  13                	inc	de
  4777  13a1  13                	inc	de
  4778  13a2  7d                	ld	a, l
  4779  13a3  b7                	or	a, a
  4780  13a4  2008              	jr	NZ,l_doPlayer_00108
  4781  13a6  af                	xor	a, a
  4782  13a7  12                	ld	(de), a
  4783  13a8  3e01              	ld	a,0x01
  4784  13aa  02                	ld	(bc), a
  4785  13ab  c36814            	jp	l_doPlayer_00137
  4786                          l_doPlayer_00108:
  4787  13ae  1a                	ld	a, (de)
  4788  13af  b7                	or	a, a
  4789  13b0  2806              	jr	Z,l_doPlayer_00105
  4790  13b2  7d                	ld	a, l
  4791  13b3  3d                	dec	a
  4792  13b4  02                	ld	(bc), a
  4793  13b5  c36814            	jp	l_doPlayer_00137
  4794                          l_doPlayer_00105:
  4795  13b8  7d                	ld	a,l
  4796  13b9  fe06              	cp	a,0x06
  4797  13bb  d26814            	jp	NC,l_doPlayer_00137
  4798  13be  3c                	inc	a
  4799  13bf  02                	ld	(bc), a
  4800  13c0  c36814            	jp	l_doPlayer_00137
  4801                          l_doPlayer_00110:
  4802  13c3  01f101            	ld	bc,__player+0
  4803  13c6  dd5e04            	ld	e,(ix+4)
  4804  13c9  1600              	ld	d,0x00
  4805  13cb  6b                	ld	l, e
  4806  13cc  62                	ld	h, d
  4807  13cd  29                	add	hl, hl
  4808  13ce  29                	add	hl, hl
  4809  13cf  19                	add	hl, de
  4810  13d0  29                	add	hl, hl
  4811  13d1  19                	add	hl, de
  4812  13d2  09                	add	hl, bc
  4813  13d3  eb                	ex	de, hl
  4814  13d4  210400            	ld	hl,0x0004
  4815  13d7  19                	add	hl, de
  4816  13d8  4d                	ld	c, l
  4817  13d9  44                	ld	b, h
  4818  13da  0a                	ld	a, (bc)
  4819  13db  eb                	ex	de, hl
  4820  13dc  23                	inc	hl
  4821  13dd  23                	inc	hl
  4822  13de  b7                	or	a, a
  4823  13df  2008              	jr	NZ,l_doPlayer_00117
  4824  13e1  3601              	ld	(hl),0x01
  4825  13e3  3e01              	ld	a,0x01
  4826  13e5  02                	ld	(bc), a
  4827  13e6  c36814            	jp	l_doPlayer_00137
  4828                          l_doPlayer_00117:
  4829  13e9  5e                	ld	e, (hl)
  4830  13ea  1c                	inc	e
  4831  13eb  1d                	dec	e
  4832  13ec  2005              	jr	NZ,l_doPlayer_00114
  4833  13ee  3d                	dec	a
  4834  13ef  02                	ld	(bc), a
  4835  13f0  c36814            	jp	l_doPlayer_00137
  4836                          l_doPlayer_00114:
  4837  13f3  fe06              	cp	a,0x06
  4838  13f5  3071              	jr	NC,l_doPlayer_00137
  4839  13f7  3c                	inc	a
  4840  13f8  02                	ld	(bc), a
  4841  13f9  186d              	jr	l_doPlayer_00137
  4842                          l_doPlayer_00119:
  4843  13fb  01f101            	ld	bc,__player+0
  4844  13fe  dd5e04            	ld	e,(ix+4)
  4845  1401  1600              	ld	d,0x00
  4846  1403  6b                	ld	l, e
  4847  1404  62                	ld	h, d
  4848  1405  29                	add	hl, hl
  4849  1406  29                	add	hl, hl
  4850  1407  19                	add	hl, de
  4851  1408  29                	add	hl, hl
  4852  1409  19                	add	hl, de
  4853  140a  09                	add	hl, bc
  4854  140b  7d                	ld	a, l
  4855  140c  c605              	add	a,0x05
  4856  140e  4f                	ld	c, a
  4857  140f  7c                	ld	a, h
  4858  1410  ce00              	adc	a,0x00
  4859  1412  47                	ld	b, a
  4860  1413  0a                	ld	a, (bc)
  4861  1414  5f                	ld	e, a
  4862  1415  23                	inc	hl
  4863  1416  23                	inc	hl
  4864  1417  23                	inc	hl
  4865  1418  7b                	ld	a, e
  4866  1419  b7                	or	a, a
  4867  141a  2007              	jr	NZ,l_doPlayer_00126
  4868  141c  3601              	ld	(hl),0x01
  4869  141e  3e01              	ld	a,0x01
  4870  1420  02                	ld	(bc), a
  4871  1421  1845              	jr	l_doPlayer_00137
  4872                          l_doPlayer_00126:
  4873  1423  7e                	ld	a, (hl)
  4874  1424  b7                	or	a, a
  4875  1425  2005              	jr	NZ,l_doPlayer_00123
  4876  1427  7b                	ld	a, e
  4877  1428  3d                	dec	a
  4878  1429  02                	ld	(bc), a
  4879  142a  183c              	jr	l_doPlayer_00137
  4880                          l_doPlayer_00123:
  4881  142c  7b                	ld	a,e
  4882  142d  fe06              	cp	a,0x06
  4883  142f  3037              	jr	NC,l_doPlayer_00137
  4884  1431  3c                	inc	a
  4885  1432  02                	ld	(bc), a
  4886  1433  1833              	jr	l_doPlayer_00137
  4887                          l_doPlayer_00128:
  4888  1435  01f101            	ld	bc,__player+0
  4889  1438  dd5e04            	ld	e,(ix+4)
  4890  143b  1600              	ld	d,0x00
  4891  143d  6b                	ld	l, e
  4892  143e  62                	ld	h, d
  4893  143f  29                	add	hl, hl
  4894  1440  29                	add	hl, hl
  4895  1441  19                	add	hl, de
  4896  1442  29                	add	hl, hl
  4897  1443  19                	add	hl, de
  4898  1444  09                	add	hl, bc
  4899  1445  eb                	ex	de, hl
  4900  1446  210400            	ld	hl,0x0004
  4901  1449  19                	add	hl, de
  4902  144a  4d                	ld	c, l
  4903  144b  44                	ld	b, h
  4904  144c  0a                	ld	a, (bc)
  4905  144d  eb                	ex	de, hl
  4906  144e  23                	inc	hl
  4907  144f  23                	inc	hl
  4908  1450  b7                	or	a,a
  4909  1451  2006              	jr	NZ,l_doPlayer_00135
  4910  1453  77                	ld	(hl),a
  4911  1454  3e01              	ld	a,0x01
  4912  1456  02                	ld	(bc), a
  4913  1457  180f              	jr	l_doPlayer_00137
  4914                          l_doPlayer_00135:
  4915  1459  5e                	ld	e, (hl)
  4916  145a  1c                	inc	e
  4917  145b  1d                	dec	e
  4918  145c  2804              	jr	Z,l_doPlayer_00132
  4919  145e  3d                	dec	a
  4920  145f  02                	ld	(bc), a
  4921  1460  1806              	jr	l_doPlayer_00137
  4922                          l_doPlayer_00132:
  4923  1462  fe06              	cp	a,0x06
  4924  1464  3002              	jr	NC,l_doPlayer_00137
  4925  1466  3c                	inc	a
  4926  1467  02                	ld	(bc), a
  4927                          l_doPlayer_00137:
  4928  1468  010301            	ld	bc,__joyStatus+0
  4929  146b  dd6e04            	ld	l,(ix+4)
  4930  146e  2600              	ld	h,0x00
  4931  1470  09                	add	hl, bc
  4932  1471  3600              	ld	(hl),0x00
  4933  1473  dd36ff00          	ld	(ix-1),0x00
  4934  1477  01f101            	ld	bc,__player+0
  4935  147a  dd5e04            	ld	e,(ix+4)
  4936  147d  1600              	ld	d,0x00
  4937  147f  6b                	ld	l, e
  4938  1480  62                	ld	h, d
  4939  1481  29                	add	hl, hl
  4940  1482  29                	add	hl, hl
  4941  1483  19                	add	hl, de
  4942  1484  29                	add	hl, hl
  4943  1485  19                	add	hl, de
  4944  1486  09                	add	hl, bc
  4945  1487  4d                	ld	c, l
  4946  1488  44                	ld	b, h
  4947  1489  c5                	push	bc
  4948  148a  fde1              	pop	iy
  4949  148c  fd5e04            	ld	e,(iy+4)
  4950  148f  7b                	ld	a, e
  4951  1490  b7                	or	a, a
  4952  1491  2866              	jr	Z,l_doPlayer_00146
  4953  1493  21eb01            	ld	hl,__speedCurve+0
  4954  1496  1600              	ld	d,0x00
  4955  1498  19                	add	hl, de
  4956  1499  5e                	ld	e, (hl)
  4957  149a  1600              	ld	d,0x00
  4958  149c  c5                	push	bc
  4959  149d  d5                	push	de
  4960  149e  2ae801            	ld	hl, (__loopCntr)
  4961  14a1  e5                	push	hl
  4962  14a2  cd0000            	call	__moduint_callee
  4963  14a5  c1                	pop	bc
  4964  14a6  7c                	ld	a, h
  4965  14a7  b5                	or	a, l
  4966  14a8  204f              	jr	NZ,l_doPlayer_00146
  4967  14aa  210200            	ld	hl,0x0002
  4968  14ad  09                	add	hl, bc
  4969  14ae  e3                	ex	(sp), hl
  4970  14af  e1                	pop	hl
  4971  14b0  e5                	push	hl
  4972  14b1  5e                	ld	e, (hl)
  4973  14b2  0a                	ld	a, (bc)
  4974  14b3  1c                	inc	e
  4975  14b4  1d                	dec	e
  4976  14b5  2821              	jr	Z,l_doPlayer_00143
  4977  14b7  3c                	inc	a
  4978  14b8  02                	ld	(bc), a
  4979  14b9  0a                	ld	a, (bc)
  4980  14ba  5f                	ld	e, a
  4981  14bb  3efa              	ld	a,0xfa
  4982  14bd  93                	sub	a, e
  4983  14be  3035              	jr	NC,l_doPlayer_00144
  4984  14c0  c5                	push	bc
  4985  14c1  210500            	ld	hl,0x0005
  4986  14c4  e5                	push	hl
  4987  14c5  3e32              	ld	a,0x32
  4988  14c7  f5                	push	af
  4989  14c8  33                	inc	sp
  4990  14c9  af                	xor	a, a
  4991  14ca  f5                	push	af
  4992  14cb  33                	inc	sp
  4993  14cc  cd0e01            	call	_playNoteDelay
  4994  14cf  f1                	pop	af
  4995  14d0  f1                	pop	af
  4996  14d1  c1                	pop	bc
  4997  14d2  e1                	pop	hl
  4998  14d3  e5                	push	hl
  4999  14d4  3600              	ld	(hl),0x00
  5000  14d6  181d              	jr	l_doPlayer_00144
  5001                          l_doPlayer_00143:
  5002  14d8  3d                	dec	a
  5003  14d9  02                	ld	(bc), a
  5004  14da  0a                	ld	a, (bc)
  5005  14db  d632              	sub	a,0x32
  5006  14dd  3016              	jr	NC,l_doPlayer_00144
  5007  14df  c5                	push	bc
  5008  14e0  210500            	ld	hl,0x0005
  5009  14e3  e5                	push	hl
  5010  14e4  3e32              	ld	a,0x32
  5011  14e6  f5                	push	af
  5012  14e7  33                	inc	sp
  5013  14e8  af                	xor	a, a
  5014  14e9  f5                	push	af
  5015  14ea  33                	inc	sp
  5016  14eb  cd0e01            	call	_playNoteDelay
  5017  14ee  f1                	pop	af
  5018  14ef  f1                	pop	af
  5019  14f0  c1                	pop	bc
  5020  14f1  e1                	pop	hl
  5021  14f2  e5                	push	hl
  5022  14f3  3601              	ld	(hl),0x01
  5023                          l_doPlayer_00144:
  5024  14f5  dd36ff01          	ld	(ix-1),0x01
  5025                          l_doPlayer_00146:
  5026  14f9  c5                	push	bc
  5027  14fa  fde1              	pop	iy
  5028  14fc  fd5e05            	ld	e,(iy+5)
  5029  14ff  7b                	ld	a, e
  5030  1500  b7                	or	a, a
  5031  1501  2869              	jr	Z,l_doPlayer_00156
  5032  1503  21eb01            	ld	hl,__speedCurve+0
  5033  1506  1600              	ld	d,0x00
  5034  1508  19                	add	hl, de
  5035  1509  5e                	ld	e, (hl)
  5036  150a  1600              	ld	d,0x00
  5037  150c  c5                	push	bc
  5038  150d  d5                	push	de
  5039  150e  2ae801            	ld	hl, (__loopCntr)
  5040  1511  e5                	push	hl
  5041  1512  cd0000            	call	__moduint_callee
  5042  1515  c1                	pop	bc
  5043  1516  7c                	ld	a, h
  5044  1517  b5                	or	a, l
  5045  1518  2052              	jr	NZ,l_doPlayer_00156
  5046  151a  210300            	ld	hl,0x0003
  5047  151d  09                	add	hl, bc
  5048  151e  e3                	ex	(sp), hl
  5049  151f  e1                	pop	hl
  5050  1520  e5                	push	hl
  5051  1521  6e                	ld	l, (hl)
  5052  1522  59                	ld	e, c
  5053  1523  50                	ld	d, b
  5054  1524  13                	inc	de
  5055  1525  1a                	ld	a, (de)
  5056  1526  2c                	inc	l
  5057  1527  2d                	dec	l
  5058  1528  2821              	jr	Z,l_doPlayer_00153
  5059  152a  3c                	inc	a
  5060  152b  12                	ld	(de), a
  5061  152c  1a                	ld	a, (de)
  5062  152d  5f                	ld	e, a
  5063  152e  3e96              	ld	a,0x96
  5064  1530  93                	sub	a, e
  5065  1531  3035              	jr	NC,l_doPlayer_00154
  5066  1533  c5                	push	bc
  5067  1534  210500            	ld	hl,0x0005
  5068  1537  e5                	push	hl
  5069  1538  3e32              	ld	a,0x32
  5070  153a  f5                	push	af
  5071  153b  33                	inc	sp
  5072  153c  af                	xor	a, a
  5073  153d  f5                	push	af
  5074  153e  33                	inc	sp
  5075  153f  cd0e01            	call	_playNoteDelay
  5076  1542  f1                	pop	af
  5077  1543  f1                	pop	af
  5078  1544  c1                	pop	bc
  5079  1545  e1                	pop	hl
  5080  1546  e5                	push	hl
  5081  1547  3600              	ld	(hl),0x00
  5082  1549  181d              	jr	l_doPlayer_00154
  5083                          l_doPlayer_00153:
  5084  154b  3d                	dec	a
  5085  154c  12                	ld	(de), a
  5086  154d  1a                	ld	a, (de)
  5087  154e  d60a              	sub	a,0x0a
  5088  1550  3016              	jr	NC,l_doPlayer_00154
  5089  1552  c5                	push	bc
  5090  1553  210500            	ld	hl,0x0005
  5091  1556  e5                	push	hl
  5092  1557  3e32              	ld	a,0x32
  5093  1559  f5                	push	af
  5094  155a  33                	inc	sp
  5095  155b  af                	xor	a, a
  5096  155c  f5                	push	af
  5097  155d  33                	inc	sp
  5098  155e  cd0e01            	call	_playNoteDelay
  5099  1561  f1                	pop	af
  5100  1562  f1                	pop	af
  5101  1563  c1                	pop	bc
  5102  1564  e1                	pop	hl
  5103  1565  e5                	push	hl
  5104  1566  3601              	ld	(hl),0x01
  5105                          l_doPlayer_00154:
  5106  1568  dd36ff01          	ld	(ix-1),0x01
  5107                          l_doPlayer_00156:
  5108  156c  dd7eff            	ld	a,(ix-1)
  5109  156f  b7                	or	a, a
  5110  1570  2806              	jr	Z,l_doPlayer_00160
  5111  1572  210a00            	ld	hl,0x000a
  5112  1575  09                	add	hl, bc
  5113  1576  3601              	ld	(hl),0x01
  5114                          l_doPlayer_00160:
  5115  1578  ddf9              	ld	sp, ix
  5116  157a  dde1              	pop	ix
  5117  157c  c9                	ret
  5118                          	SECTION code_compiler
  5119                          ;	---------------------------------
  5120                          ; Function doRock
  5121                          ; ---------------------------------
  5122                          _doRock:
  5123  157d  dde5              	push	ix
  5124  157f  dd210000          	ld	ix,0
  5125  1583  dd39              	add	ix,sp
  5126  1585  f5                	push	af
  5127  1586  dd36ff00          	ld	(ix-1),0x00
  5128  158a  011d02            	ld	bc,__rock+0
  5129  158d  dd5e04            	ld	e,(ix+4)
  5130  1590  1600              	ld	d,0x00
  5131  1592  6b                	ld	l, e
  5132  1593  62                	ld	h, d
  5133  1594  29                	add	hl, hl
  5134  1595  29                	add	hl, hl
  5135  1596  29                	add	hl, hl
  5136  1597  19                	add	hl, de
  5137  1598  09                	add	hl, bc
  5138  1599  4d                	ld	c, l
  5139  159a  44                	ld	b, h
  5140  159b  c5                	push	bc
  5141  159c  fde1              	pop	iy
  5142  159e  fd5e04            	ld	e,(iy+4)
  5143  15a1  1600              	ld	d,0x00
  5144  15a3  c5                	push	bc
  5145  15a4  d5                	push	de
  5146  15a5  2ae801            	ld	hl, (__loopCntr)
  5147  15a8  e5                	push	hl
  5148  15a9  cd0000            	call	__moduint_callee
  5149  15ac  c1                	pop	bc
  5150  15ad  7c                	ld	a, h
  5151  15ae  b5                	or	a, l
  5152  15af  204d              	jr	NZ,l_doRock_00109
  5153  15b1  210200            	ld	hl,0x0002
  5154  15b4  09                	add	hl, bc
  5155  15b5  e3                	ex	(sp), hl
  5156  15b6  e1                	pop	hl
  5157  15b7  e5                	push	hl
  5158  15b8  5e                	ld	e, (hl)
  5159  15b9  0a                	ld	a, (bc)
  5160  15ba  1c                	inc	e
  5161  15bb  1d                	dec	e
  5162  15bc  2820              	jr	Z,l_doRock_00106
  5163  15be  3c                	inc	a
  5164  15bf  02                	ld	(bc), a
  5165  15c0  0a                	ld	a, (bc)
  5166  15c1  5f                	ld	e, a
  5167  15c2  3efa              	ld	a,0xfa
  5168  15c4  93                	sub	a, e
  5169  15c5  3033              	jr	NC,l_doRock_00107
  5170  15c7  c5                	push	bc
  5171  15c8  210a00            	ld	hl,0x000a
  5172  15cb  e5                	push	hl
  5173  15cc  af                	xor	a, a
  5174  15cd  f5                	push	af
  5175  15ce  33                	inc	sp
  5176  15cf  af                	xor	a, a
  5177  15d0  f5                	push	af
  5178  15d1  33                	inc	sp
  5179  15d2  cd0e01            	call	_playNoteDelay
  5180  15d5  f1                	pop	af
  5181  15d6  f1                	pop	af
  5182  15d7  c1                	pop	bc
  5183  15d8  e1                	pop	hl
  5184  15d9  e5                	push	hl
  5185  15da  3600              	ld	(hl),0x00
  5186  15dc  181c              	jr	l_doRock_00107
  5187                          l_doRock_00106:
  5188  15de  3d                	dec	a
  5189  15df  02                	ld	(bc), a
  5190  15e0  0a                	ld	a, (bc)
  5191  15e1  d632              	sub	a,0x32
  5192  15e3  3015              	jr	NC,l_doRock_00107
  5193  15e5  c5                	push	bc
  5194  15e6  210a00            	ld	hl,0x000a
  5195  15e9  e5                	push	hl
  5196  15ea  af                	xor	a, a
  5197  15eb  f5                	push	af
  5198  15ec  33                	inc	sp
  5199  15ed  af                	xor	a, a
  5200  15ee  f5                	push	af
  5201  15ef  33                	inc	sp
  5202  15f0  cd0e01            	call	_playNoteDelay
  5203  15f3  f1                	pop	af
  5204  15f4  f1                	pop	af
  5205  15f5  c1                	pop	bc
  5206  15f6  e1                	pop	hl
  5207  15f7  e5                	push	hl
  5208  15f8  3601              	ld	(hl),0x01
  5209                          l_doRock_00107:
  5210  15fa  dd36ff01          	ld	(ix-1),0x01
  5211                          l_doRock_00109:
  5212  15fe  c5                	push	bc
  5213  15ff  fde1              	pop	iy
  5214  1601  fd5e05            	ld	e,(iy+5)
  5215  1604  1600              	ld	d,0x00
  5216  1606  c5                	push	bc
  5217  1607  d5                	push	de
  5218  1608  2ae801            	ld	hl, (__loopCntr)
  5219  160b  e5                	push	hl
  5220  160c  cd0000            	call	__moduint_callee
  5221  160f  eb                	ex	de, hl
  5222  1610  c1                	pop	bc
  5223  1611  7a                	ld	a, d
  5224  1612  b3                	or	a, e
  5225  1613  2050              	jr	NZ,l_doRock_00118
  5226  1615  210300            	ld	hl,0x0003
  5227  1618  09                	add	hl, bc
  5228  1619  e3                	ex	(sp), hl
  5229  161a  e1                	pop	hl
  5230  161b  e5                	push	hl
  5231  161c  6e                	ld	l, (hl)
  5232  161d  59                	ld	e, c
  5233  161e  50                	ld	d, b
  5234  161f  13                	inc	de
  5235  1620  1a                	ld	a, (de)
  5236  1621  2c                	inc	l
  5237  1622  2d                	dec	l
  5238  1623  2820              	jr	Z,l_doRock_00115
  5239  1625  3c                	inc	a
  5240  1626  12                	ld	(de), a
  5241  1627  1a                	ld	a, (de)
  5242  1628  5f                	ld	e, a
  5243  1629  3e96              	ld	a,0x96
  5244  162b  93                	sub	a, e
  5245  162c  3033              	jr	NC,l_doRock_00116
  5246  162e  c5                	push	bc
  5247  162f  210a00            	ld	hl,0x000a
  5248  1632  e5                	push	hl
  5249  1633  af                	xor	a, a
  5250  1634  f5                	push	af
  5251  1635  33                	inc	sp
  5252  1636  af                	xor	a, a
  5253  1637  f5                	push	af
  5254  1638  33                	inc	sp
  5255  1639  cd0e01            	call	_playNoteDelay
  5256  163c  f1                	pop	af
  5257  163d  f1                	pop	af
  5258  163e  c1                	pop	bc
  5259  163f  e1                	pop	hl
  5260  1640  e5                	push	hl
  5261  1641  3600              	ld	(hl),0x00
  5262  1643  181c              	jr	l_doRock_00116
  5263                          l_doRock_00115:
  5264  1645  3d                	dec	a
  5265  1646  12                	ld	(de), a
  5266  1647  1a                	ld	a, (de)
  5267  1648  d60a              	sub	a,0x0a
  5268  164a  3015              	jr	NC,l_doRock_00116
  5269  164c  c5                	push	bc
  5270  164d  210a00            	ld	hl,0x000a
  5271  1650  e5                	push	hl
  5272  1651  af                	xor	a, a
  5273  1652  f5                	push	af
  5274  1653  33                	inc	sp
  5275  1654  af                	xor	a, a
  5276  1655  f5                	push	af
  5277  1656  33                	inc	sp
  5278  1657  cd0e01            	call	_playNoteDelay
  5279  165a  f1                	pop	af
  5280  165b  f1                	pop	af
  5281  165c  c1                	pop	bc
  5282  165d  e1                	pop	hl
  5283  165e  e5                	push	hl
  5284  165f  3601              	ld	(hl),0x01
  5285                          l_doRock_00116:
  5286  1661  dd36ff01          	ld	(ix-1),0x01
  5287                          l_doRock_00118:
  5288  1665  dd7eff            	ld	a,(ix-1)
  5289  1668  b7                	or	a, a
  5290  1669  2806              	jr	Z,l_doRock_00121
  5291  166b  210800            	ld	hl,0x0008
  5292  166e  09                	add	hl, bc
  5293  166f  3601              	ld	(hl),0x01
  5294                          l_doRock_00121:
  5295  1671  ddf9              	ld	sp, ix
  5296  1673  dde1              	pop	ix
  5297  1675  c9                	ret
  5298                          	SECTION code_compiler
  5299                          ;	---------------------------------
  5300                          ; Function doCollision
  5301                          ; ---------------------------------
  5302                          _doCollision:
  5303  1676  dde5              	push	ix
  5304  1678  dd210000          	ld	ix,0
  5305  167c  dd39              	add	ix,sp
  5306  167e  21f4ff            	ld	hl, -12
  5307  1681  39                	add	hl, sp
  5308  1682  f9                	ld	sp, hl
  5309  1683  dd36fe00          	ld	(ix-2),0x00
  5310                          l_doCollision_00134:
  5311  1687  21e401            	ld	hl,_PLAYER_CNT
  5312  168a  dd7efe            	ld	a,(ix-2)
  5313  168d  96                	sub	a, (hl)
  5314  168e  d20319            	jp	NC, l_doCollision_00113
  5315  1691  dd4efe            	ld	c,(ix-2)
  5316  1694  0600              	ld	b,0x00
  5317  1696  69                	ld	l, c
  5318  1697  60                	ld	h, b
  5319  1698  29                	add	hl, hl
  5320  1699  29                	add	hl, hl
  5321  169a  09                	add	hl, bc
  5322  169b  29                	add	hl, hl
  5323  169c  09                	add	hl, bc
  5324  169d  dd75fc            	ld	(ix-4),l
  5325  16a0  dd74fd            	ld	(ix-3),h
  5326  16a3  dd7efc            	ld	a,(ix-4)
  5327  16a6  c6f1              	add	a, +((__player) & 0xFF)
  5328  16a8  dd77f7            	ld	(ix-9),a
  5329  16ab  dd7efd            	ld	a,(ix-3)
  5330  16ae  ce01              	adc	a, +((__player) / 256)
  5331  16b0  dd77f8            	ld	(ix-8),a
  5332  16b3  dd6ef7            	ld	l,(ix-9)
  5333  16b6  dd66f8            	ld	h,(ix-8)
  5334  16b9  7e                	ld	a, (hl)
  5335  16ba  dd77ff            	ld	(ix-1),a
  5336  16bd  c610              	add	a,0x10
  5337  16bf  dd77f9            	ld	(ix-7),a
  5338  16c2  dd7ef7            	ld	a,(ix-9)
  5339  16c5  c601              	add	a,0x01
  5340  16c7  dd77fc            	ld	(ix-4),a
  5341  16ca  dd7ef8            	ld	a,(ix-8)
  5342  16cd  ce00              	adc	a,0x00
  5343  16cf  dd77fd            	ld	(ix-3),a
  5344  16d2  dd6efc            	ld	l,(ix-4)
  5345  16d5  dd66fd            	ld	h,(ix-3)
  5346  16d8  7e                	ld	a, (hl)
  5347  16d9  dd77ff            	ld	(ix-1),a
  5348  16dc  c610              	add	a,0x10
  5349  16de  dd77fa            	ld	(ix-6),a
  5350  16e1  dd6ef7            	ld	l,(ix-9)
  5351  16e4  dd66f8            	ld	h,(ix-8)
  5352  16e7  7e                	ld	a, (hl)
  5353  16e8  dd77ff            	ld	(ix-1),a
  5354  16eb  c608              	add	a,0x08
  5355  16ed  dd77fb            	ld	(ix-5),a
  5356  16f0  dd6efc            	ld	l,(ix-4)
  5357  16f3  dd66fd            	ld	h,(ix-3)
  5358  16f6  7e                	ld	a, (hl)
  5359  16f7  dd77ff            	ld	(ix-1),a
  5360  16fa  c608              	add	a,0x08
  5361  16fc  dd77fc            	ld	(ix-4),a
  5362  16ff  dd36fd00          	ld	(ix-3),0x00
  5363  1703  dd36ff00          	ld	(ix-1),0x00
  5364                          l_doCollision_00131:
  5365  1707  dd7eff            	ld	a,(ix-1)
  5366  170a  d606              	sub	a,0x06
  5367  170c  d2fd18            	jp	NC, l_doCollision_00135
  5368  170f  dd6ef7            	ld	l,(ix-9)
  5369  1712  dd66f8            	ld	h,(ix-8)
  5370  1715  4e                	ld	c, (hl)
  5371  1716  dd5eff            	ld	e,(ix-1)
  5372  1719  1600              	ld	d,0x00
  5373  171b  6b                	ld	l, e
  5374  171c  62                	ld	h, d
  5375  171d  29                	add	hl, hl
  5376  171e  29                	add	hl, hl
  5377  171f  29                	add	hl, hl
  5378  1720  19                	add	hl, de
  5379  1721  eb                	ex	de, hl
  5380  1722  fd211d02          	ld	iy,__rock
  5381  1726  fd19              	add	iy, de
  5382  1728  fd5e00            	ld	e,(iy+0)
  5383  172b  1600              	ld	d,0x00
  5384  172d  211000            	ld	hl,0x0010
  5385  1730  19                	add	hl, de
  5386  1731  0600              	ld	b,0x00
  5387  1733  79                	ld	a, c
  5388  1734  95                	sub	a, l
  5389  1735  78                	ld	a, b
  5390  1736  9c                	sbc	a, h
  5391  1737  e23c17            	jp	PO, l_doCollision_00250
  5392  173a  ee80              	xor	a,0x80
  5393                          l_doCollision_00250:
  5394  173c  f2f118            	jp	P, l_doCollision_00132
  5395  173f  fd7e00            	ld	a,(iy+0)
  5396  1742  dd96f9            	sub	a,(ix-7)
  5397  1745  d2f118            	jp	NC, l_doCollision_00132
  5398  1748  dd6ef7            	ld	l,(ix-9)
  5399  174b  dd66f8            	ld	h,(ix-8)
  5400  174e  23                	inc	hl
  5401  174f  4e                	ld	c, (hl)
  5402  1750  fde5              	push	iy
  5403  1752  e1                	pop	hl
  5404  1753  23                	inc	hl
  5405  1754  7e                	ld	a, (hl)
  5406  1755  1600              	ld	d,0x00
  5407  1757  c610              	add	a,0x10
  5408  1759  5f                	ld	e, a
  5409  175a  3001              	jr	NC,l_doCollision_00251
  5410  175c  14                	inc	d
  5411                          l_doCollision_00251:
  5412  175d  0600              	ld	b,0x00
  5413  175f  79                	ld	a, c
  5414  1760  93                	sub	a, e
  5415  1761  78                	ld	a, b
  5416  1762  9a                	sbc	a, d
  5417  1763  e26817            	jp	PO, l_doCollision_00252
  5418  1766  ee80              	xor	a,0x80
  5419                          l_doCollision_00252:
  5420  1768  f2f118            	jp	P, l_doCollision_00132
  5421  176b  7e                	ld	a, (hl)
  5422  176c  dd96fa            	sub	a,(ix-6)
  5423  176f  d2f118            	jp	NC, l_doCollision_00132
  5424  1772  fde5              	push	iy
  5425  1774  210500            	ld	hl,0x0005
  5426  1777  e5                	push	hl
  5427  1778  110126            	ld	de,0x2601
  5428  177b  d5                	push	de
  5429  177c  cd0e01            	call	_playNoteDelay
  5430  177f  f1                	pop	af
  5431  1780  f1                	pop	af
  5432  1781  fde1              	pop	iy
  5433  1783  fd4e00            	ld	c,(iy+0)
  5434  1786  0600              	ld	b,0x00
  5435  1788  210800            	ld	hl,0x0008
  5436  178b  09                	add	hl, bc
  5437  178c  dd4efb            	ld	c,(ix-5)
  5438  178f  0600              	ld	b,0x00
  5439  1791  dd7ef7            	ld	a,(ix-9)
  5440  1794  c602              	add	a,0x02
  5441  1796  dd77fa            	ld	(ix-6),a
  5442  1799  dd7ef8            	ld	a,(ix-8)
  5443  179c  ce00              	adc	a,0x00
  5444  179e  dd77fb            	ld	(ix-5),a
  5445  17a1  fde5              	push	iy
  5446  17a3  d1                	pop	de
  5447  17a4  13                	inc	de
  5448  17a5  13                	inc	de
  5449  17a6  79                	ld	a, c
  5450  17a7  95                	sub	a, l
  5451  17a8  78                	ld	a, b
  5452  17a9  9c                	sbc	a, h
  5453  17aa  e2af17            	jp	PO, l_doCollision_00253
  5454  17ad  ee80              	xor	a,0x80
  5455                          l_doCollision_00253:
  5456  17af  f2bf17            	jp	P, l_doCollision_00102
  5457  17b2  dd6efa            	ld	l,(ix-6)
  5458  17b5  dd66fb            	ld	h,(ix-5)
  5459  17b8  3600              	ld	(hl),0x00
  5460  17ba  3e01              	ld	a,0x01
  5461  17bc  12                	ld	(de), a
  5462  17bd  180a              	jr	l_doCollision_00103
  5463                          l_doCollision_00102:
  5464  17bf  dd6efa            	ld	l,(ix-6)
  5465  17c2  dd66fb            	ld	h,(ix-5)
  5466  17c5  3601              	ld	(hl),0x01
  5467  17c7  af                	xor	a, a
  5468  17c8  12                	ld	(de), a
  5469                          l_doCollision_00103:
  5470  17c9  dd4efd            	ld	c,(ix-3)
  5471  17cc  0600              	ld	b,0x00
  5472  17ce  69                	ld	l, c
  5473  17cf  60                	ld	h, b
  5474  17d0  29                	add	hl, hl
  5475  17d1  29                	add	hl, hl
  5476  17d2  29                	add	hl, hl
  5477  17d3  09                	add	hl, bc
  5478  17d4  111d02            	ld	de,__rock
  5479  17d7  19                	add	hl, de
  5480  17d8  dd75fa            	ld	(ix-6),l
  5481  17db  dd74fb            	ld	(ix-5),h
  5482  17de  dd6efa            	ld	l,(ix-6)
  5483  17e1  dd66fb            	ld	h,(ix-5)
  5484  17e4  23                	inc	hl
  5485  17e5  4e                	ld	c, (hl)
  5486  17e6  0600              	ld	b,0x00
  5487  17e8  210800            	ld	hl,0x0008
  5488  17eb  09                	add	hl, bc
  5489  17ec  dd4efc            	ld	c,(ix-4)
  5490  17ef  0600              	ld	b,0x00
  5491  17f1  dd7ef7            	ld	a,(ix-9)
  5492  17f4  c603              	add	a,0x03
  5493  17f6  dd77f5            	ld	(ix-11),a
  5494  17f9  dd7ef8            	ld	a,(ix-8)
  5495  17fc  ce00              	adc	a,0x00
  5496  17fe  dd77f6            	ld	(ix-10),a
  5497  1801  dd7efa            	ld	a,(ix-6)
  5498  1804  c603              	add	a,0x03
  5499  1806  dd77fc            	ld	(ix-4),a
  5500  1809  dd7efb            	ld	a,(ix-5)
  5501  180c  ce00              	adc	a,0x00
  5502  180e  dd77fd            	ld	(ix-3),a
  5503  1811  79                	ld	a, c
  5504  1812  95                	sub	a, l
  5505  1813  78                	ld	a, b
  5506  1814  9c                	sbc	a, h
  5507  1815  e21a18            	jp	PO, l_doCollision_00254
  5508  1818  ee80              	xor	a,0x80
  5509                          l_doCollision_00254:
  5510  181a  f22f18            	jp	P, l_doCollision_00105
  5511  181d  dd6ef5            	ld	l,(ix-11)
  5512  1820  dd66f6            	ld	h,(ix-10)
  5513  1823  3600              	ld	(hl),0x00
  5514  1825  dd6efc            	ld	l,(ix-4)
  5515  1828  dd66fd            	ld	h,(ix-3)
  5516  182b  3601              	ld	(hl),0x01
  5517  182d  1810              	jr	l_doCollision_00106
  5518                          l_doCollision_00105:
  5519  182f  dd6ef5            	ld	l,(ix-11)
  5520  1832  dd66f6            	ld	h,(ix-10)
  5521  1835  3601              	ld	(hl),0x01
  5522  1837  dd6efc            	ld	l,(ix-4)
  5523  183a  dd66fd            	ld	h,(ix-3)
  5524  183d  3600              	ld	(hl),0x00
  5525                          l_doCollision_00106:
  5526  183f  dd7ef7            	ld	a,(ix-9)
  5527  1842  c604              	add	a,0x04
  5528  1844  dd77fc            	ld	(ix-4),a
  5529  1847  dd7ef8            	ld	a,(ix-8)
  5530  184a  ce00              	adc	a,0x00
  5531  184c  dd77fd            	ld	(ix-3),a
  5532  184f  dd6efc            	ld	l,(ix-4)
  5533  1852  dd66fd            	ld	h,(ix-3)
  5534  1855  3605              	ld	(hl),0x05
  5535  1857  dd7ef7            	ld	a,(ix-9)
  5536  185a  c605              	add	a,0x05
  5537  185c  dd77fc            	ld	(ix-4),a
  5538  185f  dd7ef8            	ld	a,(ix-8)
  5539  1862  ce00              	adc	a,0x00
  5540  1864  dd77fd            	ld	(ix-3),a
  5541  1867  dd6efc            	ld	l,(ix-4)
  5542  186a  dd66fd            	ld	h,(ix-3)
  5543  186d  3605              	ld	(hl),0x05
  5544  186f  dd7efa            	ld	a,(ix-6)
  5545  1872  c604              	add	a,0x04
  5546  1874  dd77fc            	ld	(ix-4),a
  5547  1877  dd7efb            	ld	a,(ix-5)
  5548  187a  ce00              	adc	a,0x00
  5549  187c  dd77fd            	ld	(ix-3),a
  5550  187f  cd0000            	call	_rand
  5551  1882  dd75f8            	ld	(ix-8),l
  5552  1885  dd74f9            	ld	(ix-7),h
  5553  1888  210a00            	ld	hl,0x000a
  5554  188b  e5                	push	hl
  5555  188c  dd6ef8            	ld	l,(ix-8)
  5556  188f  dd66f9            	ld	h,(ix-7)
  5557  1892  e5                	push	hl
  5558  1893  cd0000            	call	__modsint_callee
  5559  1896  dd75f8            	ld	(ix-8),l
  5560  1899  dd74f9            	ld	(ix-7),h
  5561  189c  dd7ef8            	ld	a,(ix-8)
  5562  189f  dd77ff            	ld	(ix-1),a
  5563  18a2  dd34ff            	inc	(ix-1)
  5564  18a5  dd6efc            	ld	l,(ix-4)
  5565  18a8  dd66fd            	ld	h,(ix-3)
  5566  18ab  dd7eff            	ld	a,(ix-1)
  5567  18ae  77                	ld	(hl), a
  5568  18af  dd7efa            	ld	a,(ix-6)
  5569  18b2  c605              	add	a,0x05
  5570  18b4  dd77fc            	ld	(ix-4),a
  5571  18b7  dd7efb            	ld	a,(ix-5)
  5572  18ba  ce00              	adc	a,0x00
  5573  18bc  dd77fd            	ld	(ix-3),a
  5574  18bf  cd0000            	call	_rand
  5575  18c2  dd75fa            	ld	(ix-6),l
  5576  18c5  dd74fb            	ld	(ix-5),h
  5577  18c8  210a00            	ld	hl,0x000a
  5578  18cb  e5                	push	hl
  5579  18cc  dd6efa            	ld	l,(ix-6)
  5580  18cf  dd66fb            	ld	h,(ix-5)
  5581  18d2  e5                	push	hl
  5582  18d3  cd0000            	call	__modsint_callee
  5583  18d6  dd75fa            	ld	(ix-6),l
  5584  18d9  dd74fb            	ld	(ix-5),h
  5585  18dc  dd7efa            	ld	a,(ix-6)
  5586  18df  dd77ff            	ld	(ix-1),a
  5587  18e2  dd34ff            	inc	(ix-1)
  5588  18e5  dd6efc            	ld	l,(ix-4)
  5589  18e8  dd66fd            	ld	h,(ix-3)
  5590  18eb  dd7eff            	ld	a,(ix-1)
  5591  18ee  77                	ld	(hl), a
  5592  18ef  180c              	jr	l_doCollision_00135
  5593                          l_doCollision_00132:
  5594  18f1  dd34ff            	inc	(ix-1)
  5595  18f4  dd7eff            	ld	a,(ix-1)
  5596  18f7  dd77fd            	ld	(ix-3),a
  5597  18fa  c30717            	jp	l_doCollision_00131
  5598                          l_doCollision_00135:
  5599  18fd  dd34fe            	inc	(ix-2)
  5600  1900  c38716            	jp	l_doCollision_00134
  5601                          l_doCollision_00113:
  5602  1903  dd36fe00          	ld	(ix-2),0x00
  5603                          l_doCollision_00139:
  5604  1907  dd7efe            	ld	a,(ix-2)
  5605  190a  d606              	sub	a,0x06
  5606  190c  d2da1a            	jp	NC, l_doCollision_00141
  5607  190f  dd4efe            	ld	c,(ix-2)
  5608  1912  0600              	ld	b,0x00
  5609  1914  69                	ld	l, c
  5610  1915  60                	ld	h, b
  5611  1916  29                	add	hl, hl
  5612  1917  29                	add	hl, hl
  5613  1918  29                	add	hl, hl
  5614  1919  09                	add	hl, bc
  5615  191a  111d02            	ld	de,__rock
  5616  191d  19                	add	hl, de
  5617  191e  7e                	ld	a, (hl)
  5618  191f  c610              	add	a,0x10
  5619  1921  dd77f4            	ld	(ix-12),a
  5620  1924  4d                	ld	c, l
  5621  1925  44                	ld	b, h
  5622  1926  03                	inc	bc
  5623  1927  0a                	ld	a, (bc)
  5624  1928  c610              	add	a,0x10
  5625  192a  dd77f5            	ld	(ix-11),a
  5626  192d  7e                	ld	a, (hl)
  5627  192e  c608              	add	a,0x08
  5628  1930  dd77f6            	ld	(ix-10),a
  5629  1933  0a                	ld	a, (bc)
  5630  1934  c608              	add	a,0x08
  5631  1936  dd77f7            	ld	(ix-9),a
  5632  1939  dd36ff00          	ld	(ix-1),0x00
  5633                          l_doCollision_00137:
  5634  193d  dd7eff            	ld	a,(ix-1)
  5635  1940  d606              	sub	a,0x06
  5636  1942  d2d41a            	jp	NC, l_doCollision_00140
  5637  1945  dd7efe            	ld	a,(ix-2)
  5638  1948  dd96ff            	sub	a,(ix-1)
  5639  194b  cace1a            	jp	Z,l_doCollision_00127
  5640  194e  dd4efe            	ld	c,(ix-2)
  5641  1951  0600              	ld	b,0x00
  5642  1953  69                	ld	l, c
  5643  1954  60                	ld	h, b
  5644  1955  29                	add	hl, hl
  5645  1956  29                	add	hl, hl
  5646  1957  29                	add	hl, hl
  5647  1958  09                	add	hl, bc
  5648  1959  111d02            	ld	de,__rock
  5649  195c  19                	add	hl, de
  5650  195d  dd75f8            	ld	(ix-8),l
  5651  1960  dd74f9            	ld	(ix-7),h
  5652  1963  dd6ef8            	ld	l,(ix-8)
  5653  1966  dd66f9            	ld	h,(ix-7)
  5654  1969  4e                	ld	c, (hl)
  5655  196a  dd5eff            	ld	e,(ix-1)
  5656  196d  1600              	ld	d,0x00
  5657  196f  6b                	ld	l, e
  5658  1970  62                	ld	h, d
  5659  1971  29                	add	hl, hl
  5660  1972  29                	add	hl, hl
  5661  1973  29                	add	hl, hl
  5662  1974  19                	add	hl, de
  5663  1975  111d02            	ld	de,__rock
  5664  1978  19                	add	hl, de
  5665  1979  dd75fa            	ld	(ix-6),l
  5666  197c  dd74fb            	ld	(ix-5),h
  5667  197f  dd6efa            	ld	l,(ix-6)
  5668  1982  dd66fb            	ld	h,(ix-5)
  5669  1985  5e                	ld	e, (hl)
  5670  1986  1600              	ld	d,0x00
  5671  1988  211000            	ld	hl,0x0010
  5672  198b  19                	add	hl, de
  5673  198c  0600              	ld	b,0x00
  5674  198e  79                	ld	a, c
  5675  198f  95                	sub	a, l
  5676  1990  78                	ld	a, b
  5677  1991  9c                	sbc	a, h
  5678  1992  e29719            	jp	PO, l_doCollision_00256
  5679  1995  ee80              	xor	a,0x80
  5680                          l_doCollision_00256:
  5681  1997  f2ce1a            	jp	P, l_doCollision_00127
  5682  199a  dd6efa            	ld	l,(ix-6)
  5683  199d  dd66fb            	ld	h,(ix-5)
  5684  19a0  7e                	ld	a, (hl)
  5685  19a1  dd96f4            	sub	a,(ix-12)
  5686  19a4  d2ce1a            	jp	NC, l_doCollision_00127
  5687  19a7  dd6ef8            	ld	l,(ix-8)
  5688  19aa  dd66f9            	ld	h,(ix-7)
  5689  19ad  23                	inc	hl
  5690  19ae  4e                	ld	c, (hl)
  5691  19af  dd7efa            	ld	a,(ix-6)
  5692  19b2  c601              	add	a,0x01
  5693  19b4  dd77fc            	ld	(ix-4),a
  5694  19b7  dd7efb            	ld	a,(ix-5)
  5695  19ba  ce00              	adc	a,0x00
  5696  19bc  dd77fd            	ld	(ix-3),a
  5697  19bf  dd6efc            	ld	l,(ix-4)
  5698  19c2  dd66fd            	ld	h,(ix-3)
  5699  19c5  5e                	ld	e, (hl)
  5700  19c6  1600              	ld	d,0x00
  5701  19c8  211000            	ld	hl,0x0010
  5702  19cb  19                	add	hl, de
  5703  19cc  0600              	ld	b,0x00
  5704  19ce  79                	ld	a, c
  5705  19cf  95                	sub	a, l
  5706  19d0  78                	ld	a, b
  5707  19d1  9c                	sbc	a, h
  5708  19d2  e2d719            	jp	PO, l_doCollision_00257
  5709  19d5  ee80              	xor	a,0x80
  5710                          l_doCollision_00257:
  5711  19d7  f2ce1a            	jp	P, l_doCollision_00127
  5712  19da  dd6efc            	ld	l,(ix-4)
  5713  19dd  dd66fd            	ld	h,(ix-3)
  5714  19e0  7e                	ld	a, (hl)
  5715  19e1  dd96f5            	sub	a,(ix-11)
  5716  19e4  d2ce1a            	jp	NC, l_doCollision_00127
  5717  19e7  210a00            	ld	hl,0x000a
  5718  19ea  e5                	push	hl
  5719  19eb  3e0c              	ld	a,0x0c
  5720  19ed  f5                	push	af
  5721  19ee  33                	inc	sp
  5722  19ef  af                	xor	a, a
  5723  19f0  f5                	push	af
  5724  19f1  33                	inc	sp
  5725  19f2  cd0e01            	call	_playNoteDelay
  5726  19f5  f1                	pop	af
  5727  19f6  f1                	pop	af
  5728  19f7  dd6efa            	ld	l,(ix-6)
  5729  19fa  dd66fb            	ld	h,(ix-5)
  5730  19fd  4e                	ld	c, (hl)
  5731  19fe  0600              	ld	b,0x00
  5732  1a00  210800            	ld	hl,0x0008
  5733  1a03  09                	add	hl, bc
  5734  1a04  dd7ef6            	ld	a,(ix-10)
  5735  1a07  dd77f5            	ld	(ix-11),a
  5736  1a0a  dd36f600          	ld	(ix-10),0x00
  5737  1a0e  dd4ef8            	ld	c,(ix-8)
  5738  1a11  dd46f9            	ld	b,(ix-7)
  5739  1a14  03                	inc	bc
  5740  1a15  03                	inc	bc
  5741  1a16  dd5efa            	ld	e,(ix-6)
  5742  1a19  dd56fb            	ld	d,(ix-5)
  5743  1a1c  13                	inc	de
  5744  1a1d  13                	inc	de
  5745  1a1e  dd7ef5            	ld	a,(ix-11)
  5746  1a21  95                	sub	a, l
  5747  1a22  dd7ef6            	ld	a,(ix-10)
  5748  1a25  9c                	sbc	a, h
  5749  1a26  e22b1a            	jp	PO, l_doCollision_00258
  5750  1a29  ee80              	xor	a,0x80
  5751                          l_doCollision_00258:
  5752  1a2b  f2351a            	jp	P, l_doCollision_00117
  5753  1a2e  af                	xor	a, a
  5754  1a2f  02                	ld	(bc), a
  5755  1a30  3e01              	ld	a,0x01
  5756  1a32  12                	ld	(de), a
  5757  1a33  1805              	jr	l_doCollision_00118
  5758                          l_doCollision_00117:
  5759  1a35  3e01              	ld	a,0x01
  5760  1a37  02                	ld	(bc), a
  5761  1a38  af                	xor	a, a
  5762  1a39  12                	ld	(de), a
  5763                          l_doCollision_00118:
  5764  1a3a  dd6efc            	ld	l,(ix-4)
  5765  1a3d  dd66fd            	ld	h,(ix-3)
  5766  1a40  4e                	ld	c, (hl)
  5767  1a41  0600              	ld	b,0x00
  5768  1a43  210800            	ld	hl,0x0008
  5769  1a46  09                	add	hl, bc
  5770  1a47  dd4ef7            	ld	c,(ix-9)
  5771  1a4a  0600              	ld	b,0x00
  5772  1a4c  dd7ef8            	ld	a,(ix-8)
  5773  1a4f  c603              	add	a,0x03
  5774  1a51  dd77f6            	ld	(ix-10),a
  5775  1a54  dd7ef9            	ld	a,(ix-7)
  5776  1a57  ce00              	adc	a,0x00
  5777  1a59  dd77f7            	ld	(ix-9),a
  5778  1a5c  dd7efa            	ld	a,(ix-6)
  5779  1a5f  c603              	add	a,0x03
  5780  1a61  dd77fc            	ld	(ix-4),a
  5781  1a64  dd7efb            	ld	a,(ix-5)
  5782  1a67  ce00              	adc	a,0x00
  5783  1a69  dd77fd            	ld	(ix-3),a
  5784  1a6c  79                	ld	a, c
  5785  1a6d  95                	sub	a, l
  5786  1a6e  78                	ld	a, b
  5787  1a6f  9c                	sbc	a, h
  5788  1a70  e2751a            	jp	PO, l_doCollision_00259
  5789  1a73  ee80              	xor	a,0x80
  5790                          l_doCollision_00259:
  5791  1a75  f2881a            	jp	P, l_doCollision_00120
  5792  1a78  c1                	pop	bc
  5793  1a79  e1                	pop	hl
  5794  1a7a  e5                	push	hl
  5795  1a7b  c5                	push	bc
  5796  1a7c  3600              	ld	(hl),0x00
  5797  1a7e  dd6efc            	ld	l,(ix-4)
  5798  1a81  dd66fd            	ld	h,(ix-3)
  5799  1a84  3601              	ld	(hl),0x01
  5800  1a86  180e              	jr	l_doCollision_00121
  5801                          l_doCollision_00120:
  5802  1a88  c1                	pop	bc
  5803  1a89  e1                	pop	hl
  5804  1a8a  e5                	push	hl
  5805  1a8b  c5                	push	bc
  5806  1a8c  3601              	ld	(hl),0x01
  5807  1a8e  dd6efc            	ld	l,(ix-4)
  5808  1a91  dd66fd            	ld	h,(ix-3)
  5809  1a94  3600              	ld	(hl),0x00
  5810                          l_doCollision_00121:
  5811  1a96  dd6ef8            	ld	l,(ix-8)
  5812  1a99  dd66f9            	ld	h,(ix-7)
  5813  1a9c  110400            	ld	de,0x0004
  5814  1a9f  19                	add	hl, de
  5815  1aa0  e5                	push	hl
  5816  1aa1  cd0000            	call	_rand
  5817  1aa4  eb                	ex	de, hl
  5818  1aa5  011400            	ld	bc,0x0014
  5819  1aa8  c5                	push	bc
  5820  1aa9  d5                	push	de
  5821  1aaa  cd0000            	call	__modsint_callee
  5822  1aad  eb                	ex	de, hl
  5823  1aae  e1                	pop	hl
  5824  1aaf  1c                	inc	e
  5825  1ab0  73                	ld	(hl), e
  5826  1ab1  dd6ef8            	ld	l,(ix-8)
  5827  1ab4  dd66f9            	ld	h,(ix-7)
  5828  1ab7  110500            	ld	de,0x0005
  5829  1aba  19                	add	hl, de
  5830  1abb  e5                	push	hl
  5831  1abc  cd0000            	call	_rand
  5832  1abf  eb                	ex	de, hl
  5833  1ac0  011400            	ld	bc,0x0014
  5834  1ac3  c5                	push	bc
  5835  1ac4  d5                	push	de
  5836  1ac5  cd0000            	call	__modsint_callee
  5837  1ac8  eb                	ex	de, hl
  5838  1ac9  e1                	pop	hl
  5839  1aca  1c                	inc	e
  5840  1acb  73                	ld	(hl), e
  5841  1acc  1806              	jr	l_doCollision_00140
  5842                          l_doCollision_00127:
  5843  1ace  dd34ff            	inc	(ix-1)
  5844  1ad1  c33d19            	jp	l_doCollision_00137
  5845                          l_doCollision_00140:
  5846  1ad4  dd34fe            	inc	(ix-2)
  5847  1ad7  c30719            	jp	l_doCollision_00139
  5848                          l_doCollision_00141:
  5849  1ada  ddf9              	ld	sp, ix
  5850  1adc  dde1              	pop	ix
  5851  1ade  c9                	ret
  5852                          	SECTION code_compiler
  5853                          ;	---------------------------------
  5854                          ; Function myVdpISR
  5855                          ; ---------------------------------
  5856                          _myVdpISR:
  5857  1adf  e5                	push	hl
  5858  1ae0  c5                	push	bc
  5859  1ae1  d5                	push	de
  5860  1ae2  f5                	push	af
  5861  1ae3  fde5              	push	iy
  5862  1ae5  dde5              	push	ix
  5863  1ae7  dba1              	in	a, (_IO_VDPLATCH)
  5864  1ae9  e620              	and	a,0x20
  5865  1aeb  32ea01            	ld	(__isCollision+0), a
  5866  1aee  3ae401            	ld	a, (_PLAYER_CNT+0)
  5867  1af1  b7                	or	a, a
  5868  1af2  2822              	jr	Z,l_myVdpISR_00102
  5869  1af4  3afb01            	ld	a, ((__player + 10) + 0)
  5870  1af7  b7                	or	a, a
  5871  1af8  281c              	jr	Z,l_myVdpISR_00102
  5872  1afa  21f201            	ld	hl,__player + 1
  5873  1afd  5e                	ld	e, (hl)
  5874  1afe  21f101            	ld	hl,__player + 0
  5875  1b01  4e                	ld	c, (hl)
  5876  1b02  2af901            	ld	hl, (__player + 8)
  5877  1b05  7b                	ld	a, e
  5878  1b06  f5                	push	af
  5879  1b07  33                	inc	sp
  5880  1b08  79                	ld	a, c
  5881  1b09  f5                	push	af
  5882  1b0a  33                	inc	sp
  5883  1b0b  e5                	push	hl
  5884  1b0c  cd0f0a            	call	_vdp_setSpritePosition
  5885  1b0f  f1                	pop	af
  5886  1b10  f1                	pop	af
  5887  1b11  21fb01            	ld	hl, +(__player + 10)
  5888  1b14  3600              	ld	(hl),0x00
  5889                          l_myVdpISR_00102:
  5890  1b16  3e01              	ld	a,0x01
  5891  1b18  fd21e401          	ld	iy,_PLAYER_CNT
  5892  1b1c  fd9600            	sub	a,(iy+0)
  5893  1b1f  3022              	jr	NC,l_myVdpISR_00105
  5894  1b21  3a0602            	ld	a, ((__player + 21) + 0)
  5895  1b24  b7                	or	a, a
  5896  1b25  281c              	jr	Z,l_myVdpISR_00105
  5897  1b27  21fd01            	ld	hl,__player + 12
  5898  1b2a  5e                	ld	e, (hl)
  5899  1b2b  21fc01            	ld	hl,__player + 11
  5900  1b2e  4e                	ld	c, (hl)
  5901  1b2f  2a0402            	ld	hl, (__player + 19)
  5902  1b32  7b                	ld	a, e
  5903  1b33  f5                	push	af
  5904  1b34  33                	inc	sp
  5905  1b35  79                	ld	a, c
  5906  1b36  f5                	push	af
  5907  1b37  33                	inc	sp
  5908  1b38  e5                	push	hl
  5909  1b39  cd0f0a            	call	_vdp_setSpritePosition
  5910  1b3c  f1                	pop	af
  5911  1b3d  f1                	pop	af
  5912  1b3e  210602            	ld	hl, +(__player + 21)
  5913  1b41  3600              	ld	(hl),0x00
  5914                          l_myVdpISR_00105:
  5915  1b43  3e02              	ld	a,0x02
  5916  1b45  fd21e401          	ld	iy,_PLAYER_CNT
  5917  1b49  fd9600            	sub	a,(iy+0)
  5918  1b4c  3022              	jr	NC,l_myVdpISR_00108
  5919  1b4e  3a1102            	ld	a, ((__player + 32) + 0)
  5920  1b51  b7                	or	a, a
  5921  1b52  281c              	jr	Z,l_myVdpISR_00108
  5922  1b54  210802            	ld	hl,__player + 23
  5923  1b57  5e                	ld	e, (hl)
  5924  1b58  210702            	ld	hl,__player + 22
  5925  1b5b  4e                	ld	c, (hl)
  5926  1b5c  2a0f02            	ld	hl, (__player + 30)
  5927  1b5f  7b                	ld	a, e
  5928  1b60  f5                	push	af
  5929  1b61  33                	inc	sp
  5930  1b62  79                	ld	a, c
  5931  1b63  f5                	push	af
  5932  1b64  33                	inc	sp
  5933  1b65  e5                	push	hl
  5934  1b66  cd0f0a            	call	_vdp_setSpritePosition
  5935  1b69  f1                	pop	af
  5936  1b6a  f1                	pop	af
  5937  1b6b  211102            	ld	hl, +(__player + 32)
  5938  1b6e  3600              	ld	(hl),0x00
  5939                          l_myVdpISR_00108:
  5940  1b70  3e03              	ld	a,0x03
  5941  1b72  fd21e401          	ld	iy,_PLAYER_CNT
  5942  1b76  fd9600            	sub	a,(iy+0)
  5943  1b79  3022              	jr	NC,l_myVdpISR_00111
  5944  1b7b  3a1c02            	ld	a, ((__player + 43) + 0)
  5945  1b7e  b7                	or	a, a
  5946  1b7f  281c              	jr	Z,l_myVdpISR_00111
  5947  1b81  211302            	ld	hl,__player + 34
  5948  1b84  5e                	ld	e, (hl)
  5949  1b85  211202            	ld	hl,__player + 33
  5950  1b88  4e                	ld	c, (hl)
  5951  1b89  2a1a02            	ld	hl, (__player + 41)
  5952  1b8c  7b                	ld	a, e
  5953  1b8d  f5                	push	af
  5954  1b8e  33                	inc	sp
  5955  1b8f  79                	ld	a, c
  5956  1b90  f5                	push	af
  5957  1b91  33                	inc	sp
  5958  1b92  e5                	push	hl
  5959  1b93  cd0f0a            	call	_vdp_setSpritePosition
  5960  1b96  f1                	pop	af
  5961  1b97  f1                	pop	af
  5962  1b98  211c02            	ld	hl, +(__player + 43)
  5963  1b9b  3600              	ld	(hl),0x00
  5964                          l_myVdpISR_00111:
  5965  1b9d  3a2502            	ld	a, ((__rock + 8) + 0)
  5966  1ba0  b7                	or	a, a
  5967  1ba1  281c              	jr	Z,l_myVdpISR_00114
  5968  1ba3  211e02            	ld	hl,__rock + 1
  5969  1ba6  5e                	ld	e, (hl)
  5970  1ba7  211d02            	ld	hl,__rock + 0
  5971  1baa  4e                	ld	c, (hl)
  5972  1bab  2a2302            	ld	hl, (__rock + 6)
  5973  1bae  7b                	ld	a, e
  5974  1baf  f5                	push	af
  5975  1bb0  33                	inc	sp
  5976  1bb1  79                	ld	a, c
  5977  1bb2  f5                	push	af
  5978  1bb3  33                	inc	sp
  5979  1bb4  e5                	push	hl
  5980  1bb5  cd0f0a            	call	_vdp_setSpritePosition
  5981  1bb8  f1                	pop	af
  5982  1bb9  f1                	pop	af
  5983  1bba  212502            	ld	hl, +(__rock + 8)
  5984  1bbd  3600              	ld	(hl),0x00
  5985                          l_myVdpISR_00114:
  5986  1bbf  3a2e02            	ld	a, ((__rock + 17) + 0)
  5987  1bc2  b7                	or	a, a
  5988  1bc3  281c              	jr	Z,l_myVdpISR_00116
  5989  1bc5  212702            	ld	hl,__rock + 10
  5990  1bc8  5e                	ld	e, (hl)
  5991  1bc9  212602            	ld	hl,__rock + 9
  5992  1bcc  4e                	ld	c, (hl)
  5993  1bcd  2a2c02            	ld	hl, (__rock + 15)
  5994  1bd0  7b                	ld	a, e
  5995  1bd1  f5                	push	af
  5996  1bd2  33                	inc	sp
  5997  1bd3  79                	ld	a, c
  5998  1bd4  f5                	push	af
  5999  1bd5  33                	inc	sp
  6000  1bd6  e5                	push	hl
  6001  1bd7  cd0f0a            	call	_vdp_setSpritePosition
  6002  1bda  f1                	pop	af
  6003  1bdb  f1                	pop	af
  6004  1bdc  212e02            	ld	hl, +(__rock + 17)
  6005  1bdf  3600              	ld	(hl),0x00
  6006                          l_myVdpISR_00116:
  6007  1be1  3a3702            	ld	a, ((__rock + 26) + 0)
  6008  1be4  b7                	or	a, a
  6009  1be5  281c              	jr	Z,l_myVdpISR_00118
  6010  1be7  213002            	ld	hl,__rock + 19
  6011  1bea  5e                	ld	e, (hl)
  6012  1beb  212f02            	ld	hl,__rock + 18
  6013  1bee  4e                	ld	c, (hl)
  6014  1bef  2a3502            	ld	hl, (__rock + 24)
  6015  1bf2  7b                	ld	a, e
  6016  1bf3  f5                	push	af
  6017  1bf4  33                	inc	sp
  6018  1bf5  79                	ld	a, c
  6019  1bf6  f5                	push	af
  6020  1bf7  33                	inc	sp
  6021  1bf8  e5                	push	hl
  6022  1bf9  cd0f0a            	call	_vdp_setSpritePosition
  6023  1bfc  f1                	pop	af
  6024  1bfd  f1                	pop	af
  6025  1bfe  213702            	ld	hl, +(__rock + 26)
  6026  1c01  3600              	ld	(hl),0x00
  6027                          l_myVdpISR_00118:
  6028  1c03  3a4002            	ld	a, ((__rock + 35) + 0)
  6029  1c06  b7                	or	a, a
  6030  1c07  281c              	jr	Z,l_myVdpISR_00120
  6031  1c09  213902            	ld	hl,__rock + 28
  6032  1c0c  5e                	ld	e, (hl)
  6033  1c0d  213802            	ld	hl,__rock + 27
  6034  1c10  4e                	ld	c, (hl)
  6035  1c11  2a3e02            	ld	hl, (__rock + 33)
  6036  1c14  7b                	ld	a, e
  6037  1c15  f5                	push	af
  6038  1c16  33                	inc	sp
  6039  1c17  79                	ld	a, c
  6040  1c18  f5                	push	af
  6041  1c19  33                	inc	sp
  6042  1c1a  e5                	push	hl
  6043  1c1b  cd0f0a            	call	_vdp_setSpritePosition
  6044  1c1e  f1                	pop	af
  6045  1c1f  f1                	pop	af
  6046  1c20  214002            	ld	hl, +(__rock + 35)
  6047  1c23  3600              	ld	(hl),0x00
  6048                          l_myVdpISR_00120:
  6049  1c25  3a4902            	ld	a, ((__rock + 44) + 0)
  6050  1c28  b7                	or	a, a
  6051  1c29  281c              	jr	Z,l_myVdpISR_00122
  6052  1c2b  214202            	ld	hl,__rock + 37
  6053  1c2e  5e                	ld	e, (hl)
  6054  1c2f  214102            	ld	hl,__rock + 36
  6055  1c32  4e                	ld	c, (hl)
  6056  1c33  2a4702            	ld	hl, (__rock + 42)
  6057  1c36  7b                	ld	a, e
  6058  1c37  f5                	push	af
  6059  1c38  33                	inc	sp
  6060  1c39  79                	ld	a, c
  6061  1c3a  f5                	push	af
  6062  1c3b  33                	inc	sp
  6063  1c3c  e5                	push	hl
  6064  1c3d  cd0f0a            	call	_vdp_setSpritePosition
  6065  1c40  f1                	pop	af
  6066  1c41  f1                	pop	af
  6067  1c42  214902            	ld	hl, +(__rock + 44)
  6068  1c45  3600              	ld	(hl),0x00
  6069                          l_myVdpISR_00122:
  6070  1c47  3a5202            	ld	a, ((__rock + 53) + 0)
  6071  1c4a  b7                	or	a, a
  6072  1c4b  281c              	jr	Z,l_myVdpISR_00124
  6073  1c4d  214b02            	ld	hl,__rock + 46
  6074  1c50  5e                	ld	e, (hl)
  6075  1c51  214a02            	ld	hl,__rock + 45
  6076  1c54  4e                	ld	c, (hl)
  6077  1c55  2a5002            	ld	hl, (__rock + 51)
  6078  1c58  7b                	ld	a, e
  6079  1c59  f5                	push	af
  6080  1c5a  33                	inc	sp
  6081  1c5b  79                	ld	a, c
  6082  1c5c  f5                	push	af
  6083  1c5d  33                	inc	sp
  6084  1c5e  e5                	push	hl
  6085  1c5f  cd0f0a            	call	_vdp_setSpritePosition
  6086  1c62  f1                	pop	af
  6087  1c63  f1                	pop	af
  6088  1c64  215202            	ld	hl, +(__rock + 53)
  6089  1c67  3600              	ld	(hl),0x00
  6090                          l_myVdpISR_00124:
  6091  1c69  dde1              	pop	ix
  6092  1c6b  fde1              	pop	iy
  6093  1c6d  f1                	pop	af
  6094  1c6e  d1                	pop	de
  6095  1c6f  c1                	pop	bc
  6096  1c70  e1                	pop	hl
  6097  1c71  fb                	ei
  6098  1c72  ed4d              	reti
  6099                          ;	---------------------------------
  6100                          ; Function doGameLoop
  6101                          ; ---------------------------------
  6102                          _doGameLoop:
  6103  1c74  af                	xor	a, a
  6104  1c75  57                	ld	d,a
  6105  1c76  1e01              	ld	e,0x01
  6106  1c78  d5                	push	de
  6107  1c79  cdbb10            	call	_vdp_initG2Mode
  6108  1c7c  f1                	pop	af
  6109  1c7d  3e00              	ld	a,0x00
  6110  1c7f  d3a1              	out	(_IO_VDPLATCH), a
  6111  1c81  3e87              	ld	a,0x87
  6112  1c83  d3a1              	out	(_IO_VDPLATCH), a
  6113  1c85  cdf110            	call	_initGame
  6114  1c88  cd1c12            	call	_initSprites
  6115  1c8b  21df1a            	ld	hl,_myVdpISR
  6116  1c8e  e5                	push	hl
  6117  1c8f  cd5603            	call	_vdp_addISR
  6118  1c92  f1                	pop	af
  6119                          l_doGameLoop_00109:
  6120  1c93  cd0f02            	call	_isKeyPressed
  6121  1c96  7d                	ld	a, l
  6122  1c97  b7                	or	a, a
  6123  1c98  2808              	jr	Z,l_doGameLoop_00123
  6124  1c9a  cd2402            	call	_getChar
  6125  1c9d  7d                	ld	a, l
  6126  1c9e  d671              	sub	a,0x71
  6127  1ca0  2838              	jr	Z,l_doGameLoop_00110
  6128                          l_doGameLoop_00123:
  6129  1ca2  0600              	ld	b,0x00
  6130                          l_doGameLoop_00114:
  6131  1ca4  21e401            	ld	hl,_PLAYER_CNT
  6132  1ca7  78                	ld	a, b
  6133  1ca8  96                	sub	a, (hl)
  6134  1ca9  300b              	jr	NC,l_doGameLoop_00104
  6135  1cab  c5                	push	bc
  6136  1cac  c5                	push	bc
  6137  1cad  33                	inc	sp
  6138  1cae  cd5413            	call	_doPlayer
  6139  1cb1  33                	inc	sp
  6140  1cb2  c1                	pop	bc
  6141  1cb3  04                	inc	b
  6142  1cb4  18ee              	jr	l_doGameLoop_00114
  6143                          l_doGameLoop_00104:
  6144  1cb6  0600              	ld	b,0x00
  6145                          l_doGameLoop_00117:
  6146  1cb8  78                	ld	a, b
  6147  1cb9  d606              	sub	a,0x06
  6148  1cbb  300b              	jr	NC,l_doGameLoop_00105
  6149  1cbd  c5                	push	bc
  6150  1cbe  c5                	push	bc
  6151  1cbf  33                	inc	sp
  6152  1cc0  cd7d15            	call	_doRock
  6153  1cc3  33                	inc	sp
  6154  1cc4  c1                	pop	bc
  6155  1cc5  04                	inc	b
  6156  1cc6  18f0              	jr	l_doGameLoop_00117
  6157                          l_doGameLoop_00105:
  6158  1cc8  3aea01            	ld	a, (__isCollision+0)
  6159  1ccb  b7                	or	a, a
  6160  1ccc  2803              	jr	Z,l_doGameLoop_00107
  6161  1cce  cd7616            	call	_doCollision
  6162                          l_doGameLoop_00107:
  6163  1cd1  2ae801            	ld	hl, (__loopCntr)
  6164  1cd4  23                	inc	hl
  6165  1cd5  22e801            	ld	(__loopCntr), hl
  6166  1cd8  18b9              	jr	l_doGameLoop_00109
  6167                          l_doGameLoop_00110:
  6168  1cda  c38f03            	jp	_vdp_removeISR
  6169                          	SECTION code_compiler
  6170                          ;	---------------------------------
  6171                          ; Function printTitle
  6172                          ; ---------------------------------
  6173                          _printTitle:
  6174  1cdd  af                	xor	a, a
  6175  1cde  57                	ld	d,a
  6176  1cdf  1e01              	ld	e,0x01
  6177  1ce1  d5                	push	de
  6178  1ce2  3e0f              	ld	a,0x0f
  6179  1ce4  f5                	push	af
  6180  1ce5  33                	inc	sp
  6181  1ce6  cd6110            	call	_vdp_initTextMode
  6182  1ce9  f1                	pop	af
  6183  1cea  33                	inc	sp
  6184  1ceb  3e18              	ld	a,0x18
  6185  1ced  f5                	push	af
  6186  1cee  33                	inc	sp
  6187  1cef  af                	xor	a, a
  6188  1cf0  f5                	push	af
  6189  1cf1  33                	inc	sp
  6190  1cf2  cd230e            	call	_vdp_clearRows
  6191  1cf5  f1                	pop	af
  6192  1cf6  af                	xor	a, a
  6193  1cf7  f5                	push	af
  6194  1cf8  33                	inc	sp
  6195  1cf9  af                	xor	a, a
  6196  1cfa  f5                	push	af
  6197  1cfb  33                	inc	sp
  6198  1cfc  cd5b0b            	call	_vdp_setCursor2
  6199  1cff  219103            	ld	hl,___str_0
  6200  1d02  e3                	ex	(sp),hl
  6201  1d03  cd7b0a            	call	_vdp_print
  6202  1d06  21ba03            	ld	hl,___str_1
  6203  1d09  e3                	ex	(sp),hl
  6204  1d0a  cd7b0a            	call	_vdp_print
  6205  1d0d  219103            	ld	hl,___str_0
  6206  1d10  e3                	ex	(sp),hl
  6207  1d11  cd7b0a            	call	_vdp_print
  6208  1d14  f1                	pop	af
  6209  1d15  112317            	ld	de,0x1723
  6210  1d18  d5                	push	de
  6211  1d19  cd5b0b            	call	_vdp_setCursor2
  6212  1d1c  21e303            	ld	hl,___str_2
  6213  1d1f  e3                	ex	(sp),hl
  6214  1d20  cd7b0a            	call	_vdp_print
  6215  1d23  f1                	pop	af
  6216  1d24  110814            	ld	de,0x1408
  6217  1d27  d5                	push	de
  6218  1d28  cd5b0b            	call	_vdp_setCursor2
  6219  1d2b  21e803            	ld	hl,___str_3
  6220  1d2e  e3                	ex	(sp),hl
  6221  1d2f  cd7b0a            	call	_vdp_print
  6222  1d32  f1                	pop	af
  6223  1d33  c9                	ret
  6224                          	SECTION rodata_compiler
  6225                          ___str_0:
  6226  0391  016ba16d816ba16d  	DEFM "jklmjklmjklmjklmjklmjklmjklmjklmjklmjklm"
              6a07016d106b0701  
              6a07016d6a0e6c41  
              6a6b406d6a6b6c6d  
              6a00006d6a6b6c6d  
  6227  03b9  00                	DEFB 0x00
  6228                          	SECTION rodata_compiler
  6229                          ___str_1:
  6230  03ba  0441cd03204d064e  	DEFM "GAME MAN YEAH!          DJ Sures (C)2023"
              c60345410821d003  
              200020a1204020a1  
              4400005375ff6573  
              202843bf32073200  
  6231  03e2  00                	DEFB 0x00
  6232                          	SECTION rodata_compiler
  6233                          ___str_2:
  6234  03e3  a0302eee          	DEFM "v0.2"
  6235  03e7  00                	DEFB 0x00
  6236                          	SECTION rodata_compiler
  6237                          ___str_3:
  6238  03e8  280452451a532004  	DEFM "(PRESS Q IN GAME TO EXIT)"
              2049a20447410445  
              0254920545580454  
              03                
  6239  0401  00                	DEFB 0x00
  6240                          	SECTION code_compiler
  6241                          ;	---------------------------------
  6242                          ; Function main
  6243                          ; ---------------------------------
  6244                          _main:
  6245  1d34  dde5              	push	ix
  6246  1d36  dd210000          	ld	ix,0
  6247  1d3a  dd39              	add	ix,sp
  6248  1d3c  21bfff            	ld	hl, -65
  6249  1d3f  39                	add	hl, sp
  6250  1d40  f9                	ld	sp, hl
  6251  1d41  cd0000            	call	_initNABULib
  6252  1d44  ed5f              	ld	a, r
  6253  1d46  32e701            	ld	(_r), a
  6254  1d49  3ae701            	ld	a, (_r+0)
  6255  1d4c  6f                	ld	l, a
  6256  1d4d  2600              	ld	h,0x00
  6257  1d4f  cd0000            	call	_srand
  6258  1d52  cddd1c            	call	_printTitle
  6259  1d55  dd36ff00          	ld	(ix-1),0x00
  6260                          l_main_00164:
  6261  1d59  3ae301            	ld	a, (_PLAYER_LIVES+0)
  6262  1d5c  0600              	ld	b,0x00
  6263  1d5e  4f                	ld	c, a
  6264  1d5f  c5                	push	bc
  6265  1d60  210204            	ld	hl,___str_4
  6266  1d63  e5                	push	hl
  6267  1d64  210400            	ld	hl,4
  6268  1d67  39                	add	hl, sp
  6269  1d68  e5                	push	hl
  6270  1d69  cd0000            	call	_sprintf
  6271  1d6c  210600            	ld	hl,6
  6272  1d6f  39                	add	hl, sp
  6273  1d70  f9                	ld	sp, hl
  6274  1d71  110d06            	ld	de,0x060d
  6275  1d74  d5                	push	de
  6276  1d75  cd5b0b            	call	_vdp_setCursor2
  6277  1d78  f1                	pop	af
  6278  1d79  210000            	ld	hl,0
  6279  1d7c  39                	add	hl, sp
  6280  1d7d  e5                	push	hl
  6281  1d7e  cd7b0a            	call	_vdp_print
  6282  1d81  f1                	pop	af
  6283  1d82  dd7eff            	ld	a,(ix-1)
  6284  1d85  b7                	or	a, a
  6285  1d86  200f              	jr	NZ,l_main_00102
  6286  1d88  110662            	ld	de,0x6206
  6287  1d8b  d5                	push	de
  6288  1d8c  3e0b              	ld	a,0x0b
  6289  1d8e  f5                	push	af
  6290  1d8f  33                	inc	sp
  6291  1d90  cde70c            	call	_vdp_writeCharAtLocation
  6292  1d93  f1                	pop	af
  6293  1d94  33                	inc	sp
  6294  1d95  180d              	jr	l_main_00103
  6295                          l_main_00102:
  6296  1d97  110620            	ld	de,0x2006
  6297  1d9a  d5                	push	de
  6298  1d9b  3e0b              	ld	a,0x0b
  6299  1d9d  f5                	push	af
  6300  1d9e  33                	inc	sp
  6301  1d9f  cde70c            	call	_vdp_writeCharAtLocation
  6302  1da2  f1                	pop	af
  6303  1da3  33                	inc	sp
  6304                          l_main_00103:
  6305  1da4  3ae401            	ld	a, (_PLAYER_CNT+0)
  6306  1da7  0600              	ld	b,0x00
  6307  1da9  4f                	ld	c, a
  6308  1daa  c5                	push	bc
  6309  1dab  210c04            	ld	hl,___str_5
  6310  1dae  e5                	push	hl
  6311  1daf  210400            	ld	hl,4
  6312  1db2  39                	add	hl, sp
  6313  1db3  e5                	push	hl
  6314  1db4  cd0000            	call	_sprintf
  6315  1db7  210600            	ld	hl,6
  6316  1dba  39                	add	hl, sp
  6317  1dbb  f9                	ld	sp, hl
  6318  1dbc  110d07            	ld	de,0x070d
  6319  1dbf  d5                	push	de
  6320  1dc0  cd5b0b            	call	_vdp_setCursor2
  6321  1dc3  f1                	pop	af
  6322  1dc4  210000            	ld	hl,0
  6323  1dc7  39                	add	hl, sp
  6324  1dc8  e5                	push	hl
  6325  1dc9  cd7b0a            	call	_vdp_print
  6326  1dcc  f1                	pop	af
  6327  1dcd  dd7eff            	ld	a,(ix-1)
  6328  1dd0  3d                	dec	a
  6329  1dd1  200f              	jr	NZ,l_main_00105
  6330  1dd3  110762            	ld	de,0x6207
  6331  1dd6  d5                	push	de
  6332  1dd7  3e0b              	ld	a,0x0b
  6333  1dd9  f5                	push	af
  6334  1dda  33                	inc	sp
  6335  1ddb  cde70c            	call	_vdp_writeCharAtLocation
  6336  1dde  f1                	pop	af
  6337  1ddf  33                	inc	sp
  6338  1de0  180d              	jr	l_main_00106
  6339                          l_main_00105:
  6340  1de2  110720            	ld	de,0x2007
  6341  1de5  d5                	push	de
  6342  1de6  3e0b              	ld	a,0x0b
  6343  1de8  f5                	push	af
  6344  1de9  33                	inc	sp
  6345  1dea  cde70c            	call	_vdp_writeCharAtLocation
  6346  1ded  f1                	pop	af
  6347  1dee  33                	inc	sp
  6348                          l_main_00106:
  6349  1def  3ae501            	ld	a, (_PELLET_CNT+0)
  6350  1df2  0600              	ld	b,0x00
  6351  1df4  4f                	ld	c, a
  6352  1df5  c5                	push	bc
  6353  1df6  211804            	ld	hl,___str_6
  6354  1df9  e5                	push	hl
  6355  1dfa  210400            	ld	hl,4
  6356  1dfd  39                	add	hl, sp
  6357  1dfe  e5                	push	hl
  6358  1dff  cd0000            	call	_sprintf
  6359  1e02  210600            	ld	hl,6
  6360  1e05  39                	add	hl, sp
  6361  1e06  f9                	ld	sp, hl
  6362  1e07  110d08            	ld	de,0x080d
  6363  1e0a  d5                	push	de
  6364  1e0b  cd5b0b            	call	_vdp_setCursor2
  6365  1e0e  f1                	pop	af
  6366  1e0f  210000            	ld	hl,0
  6367  1e12  39                	add	hl, sp
  6368  1e13  e5                	push	hl
  6369  1e14  cd7b0a            	call	_vdp_print
  6370  1e17  f1                	pop	af
  6371  1e18  dd7eff            	ld	a,(ix-1)
  6372  1e1b  d602              	sub	a,0x02
  6373  1e1d  200f              	jr	NZ,l_main_00108
  6374  1e1f  110862            	ld	de,0x6208
  6375  1e22  d5                	push	de
  6376  1e23  3e0b              	ld	a,0x0b
  6377  1e25  f5                	push	af
  6378  1e26  33                	inc	sp
  6379  1e27  cde70c            	call	_vdp_writeCharAtLocation
  6380  1e2a  f1                	pop	af
  6381  1e2b  33                	inc	sp
  6382  1e2c  180d              	jr	l_main_00109
  6383                          l_main_00108:
  6384  1e2e  110820            	ld	de,0x2008
  6385  1e31  d5                	push	de
  6386  1e32  3e0b              	ld	a,0x0b
  6387  1e34  f5                	push	af
  6388  1e35  33                	inc	sp
  6389  1e36  cde70c            	call	_vdp_writeCharAtLocation
  6390  1e39  f1                	pop	af
  6391  1e3a  33                	inc	sp
  6392                          l_main_00109:
  6393  1e3b  3ae601            	ld	a, (_TIME+0)
  6394  1e3e  0600              	ld	b,0x00
  6395  1e40  4f                	ld	c, a
  6396  1e41  c5                	push	bc
  6397  1e42  212604            	ld	hl,___str_7
  6398  1e45  e5                	push	hl
  6399  1e46  210400            	ld	hl,4
  6400  1e49  39                	add	hl, sp
  6401  1e4a  e5                	push	hl
  6402  1e4b  cd0000            	call	_sprintf
  6403  1e4e  210600            	ld	hl,6
  6404  1e51  39                	add	hl, sp
  6405  1e52  f9                	ld	sp, hl
  6406  1e53  110d09            	ld	de,0x090d
  6407  1e56  d5                	push	de
  6408  1e57  cd5b0b            	call	_vdp_setCursor2
  6409  1e5a  f1                	pop	af
  6410  1e5b  210000            	ld	hl,0
  6411  1e5e  39                	add	hl, sp
  6412  1e5f  e5                	push	hl
  6413  1e60  cd7b0a            	call	_vdp_print
  6414  1e63  f1                	pop	af
  6415  1e64  dd7eff            	ld	a,(ix-1)
  6416  1e67  d603              	sub	a,0x03
  6417  1e69  200f              	jr	NZ,l_main_00111
  6418  1e6b  110962            	ld	de,0x6209
  6419  1e6e  d5                	push	de
  6420  1e6f  3e0b              	ld	a,0x0b
  6421  1e71  f5                	push	af
  6422  1e72  33                	inc	sp
  6423  1e73  cde70c            	call	_vdp_writeCharAtLocation
  6424  1e76  f1                	pop	af
  6425  1e77  33                	inc	sp
  6426  1e78  180d              	jr	l_main_00112
  6427                          l_main_00111:
  6428  1e7a  110920            	ld	de,0x2009
  6429  1e7d  d5                	push	de
  6430  1e7e  3e0b              	ld	a,0x0b
  6431  1e80  f5                	push	af
  6432  1e81  33                	inc	sp
  6433  1e82  cde70c            	call	_vdp_writeCharAtLocation
  6434  1e85  f1                	pop	af
  6435  1e86  33                	inc	sp
  6436                          l_main_00112:
  6437  1e87  110d0b            	ld	de,0x0b0d
  6438  1e8a  d5                	push	de
  6439  1e8b  cd5b0b            	call	_vdp_setCursor2
  6440  1e8e  213104            	ld	hl,___str_8
  6441  1e91  e3                	ex	(sp),hl
  6442  1e92  cd7b0a            	call	_vdp_print
  6443  1e95  f1                	pop	af
  6444  1e96  dd7eff            	ld	a,(ix-1)
  6445  1e99  d604              	sub	a,0x04
  6446  1e9b  200f              	jr	NZ,l_main_00114
  6447  1e9d  110b62            	ld	de,0x620b
  6448  1ea0  d5                	push	de
  6449  1ea1  3e0b              	ld	a,0x0b
  6450  1ea3  f5                	push	af
  6451  1ea4  33                	inc	sp
  6452  1ea5  cde70c            	call	_vdp_writeCharAtLocation
  6453  1ea8  f1                	pop	af
  6454  1ea9  33                	inc	sp
  6455  1eaa  180d              	jr	l_main_00115
  6456                          l_main_00114:
  6457  1eac  110b20            	ld	de,0x200b
  6458  1eaf  d5                	push	de
  6459  1eb0  3e0b              	ld	a,0x0b
  6460  1eb2  f5                	push	af
  6461  1eb3  33                	inc	sp
  6462  1eb4  cde70c            	call	_vdp_writeCharAtLocation
  6463  1eb7  f1                	pop	af
  6464  1eb8  33                	inc	sp
  6465                          l_main_00115:
  6466  1eb9  11160b            	ld	de,0x0b16
  6467  1ebc  d5                	push	de
  6468  1ebd  cd5b0b            	call	_vdp_setCursor2
  6469  1ec0  213704            	ld	hl,___str_9
  6470  1ec3  e3                	ex	(sp),hl
  6471  1ec4  cd7b0a            	call	_vdp_print
  6472  1ec7  f1                	pop	af
  6473  1ec8  dd7eff            	ld	a,(ix-1)
  6474  1ecb  d605              	sub	a,0x05
  6475  1ecd  200f              	jr	NZ,l_main_00117
  6476  1ecf  110b62            	ld	de,0x620b
  6477  1ed2  d5                	push	de
  6478  1ed3  3e14              	ld	a,0x14
  6479  1ed5  f5                	push	af
  6480  1ed6  33                	inc	sp
  6481  1ed7  cde70c            	call	_vdp_writeCharAtLocation
  6482  1eda  f1                	pop	af
  6483  1edb  33                	inc	sp
  6484  1edc  180d              	jr	l_main_00119
  6485                          l_main_00117:
  6486  1ede  110b20            	ld	de,0x200b
  6487  1ee1  d5                	push	de
  6488  1ee2  3e14              	ld	a,0x14
  6489  1ee4  f5                	push	af
  6490  1ee5  33                	inc	sp
  6491  1ee6  cde70c            	call	_vdp_writeCharAtLocation
  6492  1ee9  f1                	pop	af
  6493  1eea  33                	inc	sp
  6494                          l_main_00119:
  6495  1eeb  3a0301            	ld	a, (__joyStatus + 0)
  6496  1eee  e61f              	and	a,0x1f
  6497  1ef0  28f9              	jr	Z,l_main_00119
  6498  1ef2  3a0301            	ld	a, (__joyStatus + 0)
  6499  1ef5  e61f              	and	a,0x1f
  6500  1ef7  5f                	ld	e, a
  6501  1ef8  0e00              	ld	c,0x00
  6502  1efa  7b                	ld	a, e
  6503  1efb  3d                	dec	a
  6504  1efc  b1                	or	a, c
  6505  1efd  cacd1f            	jp	Z,l_main_00144
  6506  1f00  7b                	ld	a, e
  6507  1f01  d602              	sub	a,0x02
  6508  1f03  b1                	or	a, c
  6509  1f04  caa91f            	jp	Z,l_main_00140
  6510  1f07  7b                	ld	a, e
  6511  1f08  d604              	sub	a,0x04
  6512  1f0a  b1                	or	a, c
  6513  1f0b  2833              	jr	Z,l_main_00126
  6514  1f0d  7b                	ld	a, e
  6515  1f0e  d608              	sub	a,0x08
  6516  1f10  b1                	or	a, c
  6517  1f11  280a              	jr	Z,l_main_00122
  6518  1f13  7b                	ld	a, e
  6519  1f14  d610              	sub	a,0x10
  6520  1f16  b1                	or	a, c
  6521  1f17  ca3520            	jp	Z,l_main_00158
  6522  1f1a  c35e20            	jp	l_main_00162
  6523                          l_main_00122:
  6524  1f1d  210a00            	ld	hl,0x000a
  6525  1f20  e5                	push	hl
  6526  1f21  3e0a              	ld	a,0x0a
  6527  1f23  f5                	push	af
  6528  1f24  33                	inc	sp
  6529  1f25  af                	xor	a, a
  6530  1f26  f5                	push	af
  6531  1f27  33                	inc	sp
  6532  1f28  cd0e01            	call	_playNoteDelay
  6533  1f2b  f1                	pop	af
  6534  1f2c  f1                	pop	af
  6535  1f2d  dd7eff            	ld	a,(ix-1)
  6536  1f30  b7                	or	a, a
  6537  1f31  2007              	jr	NZ,l_main_00124
  6538  1f33  dd36ff05          	ld	(ix-1),0x05
  6539  1f37  c35e20            	jp	l_main_00162
  6540                          l_main_00124:
  6541  1f3a  dd35ff            	dec	(ix-1)
  6542  1f3d  c35e20            	jp	l_main_00162
  6543                          l_main_00126:
  6544  1f40  210a00            	ld	hl,0x000a
  6545  1f43  e5                	push	hl
  6546  1f44  3e14              	ld	a,0x14
  6547  1f46  f5                	push	af
  6548  1f47  33                	inc	sp
  6549  1f48  af                	xor	a, a
  6550  1f49  f5                	push	af
  6551  1f4a  33                	inc	sp
  6552  1f4b  cd0e01            	call	_playNoteDelay
  6553  1f4e  f1                	pop	af
  6554  1f4f  f1                	pop	af
  6555  1f50  dd7eff            	ld	a,(ix-1)
  6556  1f53  b7                	or	a, a
  6557  1f54  2817              	jr	Z,l_main_00127
  6558  1f56  dd7eff            	ld	a,(ix-1)
  6559  1f59  3d                	dec	a
  6560  1f5a  2820              	jr	Z,l_main_00130
  6561  1f5c  dd7eff            	ld	a,(ix-1)
  6562  1f5f  d602              	sub	a,0x02
  6563  1f61  2828              	jr	Z,l_main_00133
  6564  1f63  dd7eff            	ld	a,(ix-1)
  6565  1f66  d603              	sub	a,0x03
  6566  1f68  2830              	jr	Z,l_main_00136
  6567  1f6a  c35e20            	jp	l_main_00162
  6568                          l_main_00127:
  6569  1f6d  3ae301            	ld	a, (_PLAYER_LIVES+0)
  6570  1f70  d608              	sub	a,0x08
  6571  1f72  d25e20            	jp	NC, l_main_00162
  6572  1f75  21e301            	ld	hl,_PLAYER_LIVES+0
  6573  1f78  34                	inc	(hl)
  6574  1f79  c35e20            	jp	l_main_00162
  6575                          l_main_00130:
  6576  1f7c  3ae401            	ld	a, (_PLAYER_CNT+0)
  6577  1f7f  d604              	sub	a,0x04
  6578  1f81  d25e20            	jp	NC, l_main_00162
  6579  1f84  21e401            	ld	hl,_PLAYER_CNT+0
  6580  1f87  34                	inc	(hl)
  6581  1f88  c35e20            	jp	l_main_00162
  6582                          l_main_00133:
  6583  1f8b  3ae501            	ld	a, (_PELLET_CNT+0)
  6584  1f8e  d60a              	sub	a,0x0a
  6585  1f90  d25e20            	jp	NC, l_main_00162
  6586  1f93  21e501            	ld	hl,_PELLET_CNT+0
  6587  1f96  34                	inc	(hl)
  6588  1f97  c35e20            	jp	l_main_00162
  6589                          l_main_00136:
  6590  1f9a  3ae601            	ld	a, (_TIME+0)
  6591  1f9d  d6ff              	sub	a,0xff
  6592  1f9f  d25e20            	jp	NC, l_main_00162
  6593  1fa2  21e601            	ld	hl,_TIME+0
  6594  1fa5  34                	inc	(hl)
  6595  1fa6  c35e20            	jp	l_main_00162
  6596                          l_main_00140:
  6597  1fa9  210a00            	ld	hl,0x000a
  6598  1fac  e5                	push	hl
  6599  1fad  3e05              	ld	a,0x05
  6600  1faf  f5                	push	af
  6601  1fb0  33                	inc	sp
  6602  1fb1  af                	xor	a, a
  6603  1fb2  f5                	push	af
  6604  1fb3  33                	inc	sp
  6605  1fb4  cd0e01            	call	_playNoteDelay
  6606  1fb7  f1                	pop	af
  6607  1fb8  f1                	pop	af
  6608  1fb9  dd7eff            	ld	a,(ix-1)
  6609  1fbc  d605              	sub	a,0x05
  6610  1fbe  2007              	jr	NZ,l_main_00142
  6611  1fc0  dd36ff00          	ld	(ix-1),0x00
  6612  1fc4  c35e20            	jp	l_main_00162
  6613                          l_main_00142:
  6614  1fc7  dd34ff            	inc	(ix-1)
  6615  1fca  c35e20            	jp	l_main_00162
  6616                          l_main_00144:
  6617  1fcd  210a00            	ld	hl,0x000a
  6618  1fd0  e5                	push	hl
  6619  1fd1  3e0f              	ld	a,0x0f
  6620  1fd3  f5                	push	af
  6621  1fd4  33                	inc	sp
  6622  1fd5  af                	xor	a, a
  6623  1fd6  f5                	push	af
  6624  1fd7  33                	inc	sp
  6625  1fd8  cd0e01            	call	_playNoteDelay
  6626  1fdb  f1                	pop	af
  6627  1fdc  f1                	pop	af
  6628  1fdd  dd7eff            	ld	a,(ix-1)
  6629  1fe0  b7                	or	a, a
  6630  1fe1  2816              	jr	Z,l_main_00145
  6631  1fe3  dd7eff            	ld	a,(ix-1)
  6632  1fe6  3d                	dec	a
  6633  1fe7  2820              	jr	Z,l_main_00148
  6634  1fe9  dd7eff            	ld	a,(ix-1)
  6635  1fec  d602              	sub	a,0x02
  6636  1fee  2825              	jr	Z,l_main_00151
  6637  1ff0  dd7eff            	ld	a,(ix-1)
  6638  1ff3  d603              	sub	a,0x03
  6639  1ff5  282e              	jr	Z,l_main_00154
  6640  1ff7  1865              	jr	l_main_00162
  6641                          l_main_00145:
  6642  1ff9  3e01              	ld	a,0x01
  6643  1ffb  fd21e301          	ld	iy,_PLAYER_LIVES
  6644  1fff  fd9600            	sub	a,(iy+0)
  6645  2002  305a              	jr	NC,l_main_00162
  6646  2004  fd3500            	dec	(iy+0)
  6647  2007  1855              	jr	l_main_00162
  6648                          l_main_00148:
  6649  2009  3ae401            	ld	a, (_PLAYER_CNT+0)
  6650  200c  b7                	or	a, a
  6651  200d  284f              	jr	Z,l_main_00162
  6652  200f  21e401            	ld	hl,_PLAYER_CNT+0
  6653  2012  35                	dec	(hl)
  6654  2013  1849              	jr	l_main_00162
  6655                          l_main_00151:
  6656  2015  3e01              	ld	a,0x01
  6657  2017  fd21e501          	ld	iy,_PELLET_CNT
  6658  201b  fd9600            	sub	a,(iy+0)
  6659  201e  303e              	jr	NC,l_main_00162
  6660  2020  fd3500            	dec	(iy+0)
  6661  2023  1839              	jr	l_main_00162
  6662                          l_main_00154:
  6663  2025  3e0a              	ld	a,0x0a
  6664  2027  fd21e601          	ld	iy,_TIME
  6665  202b  fd9600            	sub	a,(iy+0)
  6666  202e  302e              	jr	NC,l_main_00162
  6667  2030  fd3500            	dec	(iy+0)
  6668  2033  1829              	jr	l_main_00162
  6669                          l_main_00158:
  6670  2035  dd7eff            	ld	a,(ix-1)
  6671  2038  d604              	sub	a,0x04
  6672  203a  2809              	jr	Z,l_main_00159
  6673  203c  dd7eff            	ld	a,(ix-1)
  6674  203f  d605              	sub	a,0x05
  6675  2041  280a              	jr	Z,l_main_00160
  6676  2043  1819              	jr	l_main_00162
  6677                          l_main_00159:
  6678  2045  cd741c            	call	_doGameLoop
  6679  2048  cddd1c            	call	_printTitle
  6680  204b  1811              	jr	l_main_00162
  6681                          l_main_00160:
  6682  204d  211e00            	ld	hl,0x001e
  6683  2050  e5                	push	hl
  6684  2051  af                	xor	a, a
  6685  2052  f5                	push	af
  6686  2053  33                	inc	sp
  6687  2054  af                	xor	a, a
  6688  2055  f5                	push	af
  6689  2056  33                	inc	sp
  6690  2057  cd0e01            	call	_playNoteDelay
  6691  205a  f1                	pop	af
  6692  205b  f1                	pop	af
  6693  205c  1808              	jr	l_main_00166
  6694                          l_main_00162:
  6695  205e  210301            	ld	hl,__joyStatus
  6696  2061  3600              	ld	(hl),0x00
  6697  2063  c3591d            	jp	l_main_00164
  6698                          l_main_00166:
  6699  2066  ddf9              	ld	sp, ix
  6700  2068  dde1              	pop	ix
  6701  206a  c9                	ret
  6702                          	SECTION rodata_compiler
  6703                          ___str_4:
  6704  0402  2105562f063a0025  	DEFM "LIVES: %u"
              a1                
  6705  040b  00                	DEFB 0x00
  6706                          	SECTION rodata_compiler
  6707                          ___str_5:
  6708  040c  804ca1594506533a  	DEFM "PLAYERS: %u"
              c02575            
  6709  0417  00                	DEFB 0x00
  6710                          	SECTION rodata_compiler
  6711                          ___str_6:
  6712  0418  501f014c1f0153a1  	DEFM "PELLETS: %03u"
              208130a175        
  6713  0425  00                	DEFB 0x00
  6714                          	SECTION rodata_compiler
  6715                          ___str_7:
  6716  0426  54a14d823aa12580  	DEFM "TIME: %03u"
              33a1              
  6717  0430  00                	DEFB 0x00
  6718                          	SECTION rodata_compiler
  6719                          ___str_8:
  6720  0431  834ca15901        	DEFM "PLAY!"
  6721  0436  00                	DEFB 0x00
  6722                          	SECTION rodata_compiler
  6723                          ___str_9:
  6724  0437  a1558454a1        	DEFM "QUIT!"
  6725  043c  00                	DEFB 0x00
  6726                          	SECTION data_compiler
  6727                          __kbdBuffer:
  6728  0000  00                	DEFB +0x00
  6729  0001  00                	DEFB 0x00
  6730  0002  00                	DEFB 0x00
  6731  0003  00                	DEFB 0x00
  6732  0004  00                	DEFB 0x00
  6733  0005  00                	DEFB 0x00
  6734  0006  00                	DEFB 0x00
  6735  0007  00                	DEFB 0x00
  6736  0008  00                	DEFB 0x00
  6737  0009  00                	DEFB 0x00
  6738  000a  00                	DEFB 0x00
  6739  000b  00                	DEFB 0x00
  6740  000c  00                	DEFB 0x00
  6741  000d  00                	DEFB 0x00
  6742  000e  00                	DEFB 0x00
  6743  000f  00                	DEFB 0x00
  6744  0010  00                	DEFB 0x00
  6745  0011  00                	DEFB 0x00
  6746  0012  00                	DEFB 0x00
  6747  0013  00                	DEFB 0x00
  6748  0014  00                	DEFB 0x00
  6749  0015  00                	DEFB 0x00
  6750  0016  00                	DEFB 0x00
  6751  0017  00                	DEFB 0x00
  6752  0018  00                	DEFB 0x00
  6753  0019  00                	DEFB 0x00
  6754  001a  00                	DEFB 0x00
  6755  001b  00                	DEFB 0x00
  6756  001c  00                	DEFB 0x00
  6757  001d  00                	DEFB 0x00
  6758  001e  00                	DEFB 0x00
  6759  001f  00                	DEFB 0x00
  6760  0020  00                	DEFB 0x00
  6761  0021  00                	DEFB 0x00
  6762  0022  00                	DEFB 0x00
  6763  0023  00                	DEFB 0x00
  6764  0024  00                	DEFB 0x00
  6765  0025  00                	DEFB 0x00
  6766  0026  00                	DEFB 0x00
  6767  0027  00                	DEFB 0x00
  6768  0028  00                	DEFB 0x00
  6769  0029  00                	DEFB 0x00
  6770  002a  00                	DEFB 0x00
  6771  002b  00                	DEFB 0x00
  6772  002c  00                	DEFB 0x00
  6773  002d  00                	DEFB 0x00
  6774  002e  00                	DEFB 0x00
  6775  002f  00                	DEFB 0x00
  6776  0030  00                	DEFB 0x00
  6777  0031  00                	DEFB 0x00
  6778  0032  00                	DEFB 0x00
  6779  0033  00                	DEFB 0x00
  6780  0034  00                	DEFB 0x00
  6781  0035  00                	DEFB 0x00
  6782  0036  00                	DEFB 0x00
  6783  0037  00                	DEFB 0x00
  6784  0038  00                	DEFB 0x00
  6785  0039  00                	DEFB 0x00
  6786  003a  00                	DEFB 0x00
  6787  003b  00                	DEFB 0x00
  6788  003c  00                	DEFB 0x00
  6789  003d  00                	DEFB 0x00
  6790  003e  00                	DEFB 0x00
  6791  003f  00                	DEFB 0x00
  6792  0040  00                	DEFB 0x00
  6793  0041  00                	DEFB 0x00
  6794  0042  00                	DEFB 0x00
  6795  0043  00                	DEFB 0x00
  6796  0044  00                	DEFB 0x00
  6797  0045  00                	DEFB 0x00
  6798  0046  00                	DEFB 0x00
  6799  0047  00                	DEFB 0x00
  6800  0048  00                	DEFB 0x00
  6801  0049  00                	DEFB 0x00
  6802  004a  00                	DEFB 0x00
  6803  004b  00                	DEFB 0x00
  6804  004c  00                	DEFB 0x00
  6805  004d  00                	DEFB 0x00
  6806  004e  00                	DEFB 0x00
  6807  004f  00                	DEFB 0x00
  6808  0050  00                	DEFB 0x00
  6809  0051  00                	DEFB 0x00
  6810  0052  00                	DEFB 0x00
  6811  0053  00                	DEFB 0x00
  6812  0054  00                	DEFB 0x00
  6813  0055  00                	DEFB 0x00
  6814  0056  00                	DEFB 0x00
  6815  0057  00                	DEFB 0x00
  6816  0058  00                	DEFB 0x00
  6817  0059  00                	DEFB 0x00
  6818  005a  00                	DEFB 0x00
  6819  005b  00                	DEFB 0x00
  6820  005c  00                	DEFB 0x00
  6821  005d  00                	DEFB 0x00
  6822  005e  00                	DEFB 0x00
  6823  005f  00                	DEFB 0x00
  6824  0060  00                	DEFB 0x00
  6825  0061  00                	DEFB 0x00
  6826  0062  00                	DEFB 0x00
  6827  0063  00                	DEFB 0x00
  6828  0064  00                	DEFB 0x00
  6829  0065  00                	DEFB 0x00
  6830  0066  00                	DEFB 0x00
  6831  0067  00                	DEFB 0x00
  6832  0068  00                	DEFB 0x00
  6833  0069  00                	DEFB 0x00
  6834  006a  00                	DEFB 0x00
  6835  006b  00                	DEFB 0x00
  6836  006c  00                	DEFB 0x00
  6837  006d  00                	DEFB 0x00
  6838  006e  00                	DEFB 0x00
  6839  006f  00                	DEFB 0x00
  6840  0070  00                	DEFB 0x00
  6841  0071  00                	DEFB 0x00
  6842  0072  00                	DEFB 0x00
  6843  0073  00                	DEFB 0x00
  6844  0074  00                	DEFB 0x00
  6845  0075  00                	DEFB 0x00
  6846  0076  00                	DEFB 0x00
  6847  0077  00                	DEFB 0x00
  6848  0078  00                	DEFB 0x00
  6849  0079  00                	DEFB 0x00
  6850  007a  00                	DEFB 0x00
  6851  007b  00                	DEFB 0x00
  6852  007c  00                	DEFB 0x00
  6853  007d  00                	DEFB 0x00
  6854  007e  00                	DEFB 0x00
  6855  007f  00                	DEFB 0x00
  6856  0080  00                	DEFB 0x00
  6857  0081  00                	DEFB 0x00
  6858  0082  00                	DEFB 0x00
  6859  0083  00                	DEFB 0x00
  6860  0084  00                	DEFB 0x00
  6861  0085  00                	DEFB 0x00
  6862  0086  00                	DEFB 0x00
  6863  0087  00                	DEFB 0x00
  6864  0088  00                	DEFB 0x00
  6865  0089  00                	DEFB 0x00
  6866  008a  00                	DEFB 0x00
  6867  008b  00                	DEFB 0x00
  6868  008c  00                	DEFB 0x00
  6869  008d  00                	DEFB 0x00
  6870  008e  00                	DEFB 0x00
  6871  008f  00                	DEFB 0x00
  6872  0090  00                	DEFB 0x00
  6873  0091  00                	DEFB 0x00
  6874  0092  00                	DEFB 0x00
  6875  0093  00                	DEFB 0x00
  6876  0094  00                	DEFB 0x00
  6877  0095  00                	DEFB 0x00
  6878  0096  00                	DEFB 0x00
  6879  0097  00                	DEFB 0x00
  6880  0098  00                	DEFB 0x00
  6881  0099  00                	DEFB 0x00
  6882  009a  00                	DEFB 0x00
  6883  009b  00                	DEFB 0x00
  6884  009c  00                	DEFB 0x00
  6885  009d  00                	DEFB 0x00
  6886  009e  00                	DEFB 0x00
  6887  009f  00                	DEFB 0x00
  6888  00a0  00                	DEFB 0x00
  6889  00a1  00                	DEFB 0x00
  6890  00a2  00                	DEFB 0x00
  6891  00a3  00                	DEFB 0x00
  6892  00a4  00                	DEFB 0x00
  6893  00a5  00                	DEFB 0x00
  6894  00a6  00                	DEFB 0x00
  6895  00a7  00                	DEFB 0x00
  6896  00a8  00                	DEFB 0x00
  6897  00a9  00                	DEFB 0x00
  6898  00aa  00                	DEFB 0x00
  6899  00ab  00                	DEFB 0x00
  6900  00ac  00                	DEFB 0x00
  6901  00ad  00                	DEFB 0x00
  6902  00ae  00                	DEFB 0x00
  6903  00af  00                	DEFB 0x00
  6904  00b0  00                	DEFB 0x00
  6905  00b1  00                	DEFB 0x00
  6906  00b2  00                	DEFB 0x00
  6907  00b3  00                	DEFB 0x00
  6908  00b4  00                	DEFB 0x00
  6909  00b5  00                	DEFB 0x00
  6910  00b6  00                	DEFB 0x00
  6911  00b7  00                	DEFB 0x00
  6912  00b8  00                	DEFB 0x00
  6913  00b9  00                	DEFB 0x00
  6914  00ba  00                	DEFB 0x00
  6915  00bb  00                	DEFB 0x00
  6916  00bc  00                	DEFB 0x00
  6917  00bd  00                	DEFB 0x00
  6918  00be  00                	DEFB 0x00
  6919  00bf  00                	DEFB 0x00
  6920  00c0  00                	DEFB 0x00
  6921  00c1  00                	DEFB 0x00
  6922  00c2  00                	DEFB 0x00
  6923  00c3  00                	DEFB 0x00
  6924  00c4  00                	DEFB 0x00
  6925  00c5  00                	DEFB 0x00
  6926  00c6  00                	DEFB 0x00
  6927  00c7  00                	DEFB 0x00
  6928  00c8  00                	DEFB 0x00
  6929  00c9  00                	DEFB 0x00
  6930  00ca  00                	DEFB 0x00
  6931  00cb  00                	DEFB 0x00
  6932  00cc  00                	DEFB 0x00
  6933  00cd  00                	DEFB 0x00
  6934  00ce  00                	DEFB 0x00
  6935  00cf  00                	DEFB 0x00
  6936  00d0  00                	DEFB 0x00
  6937  00d1  00                	DEFB 0x00
  6938  00d2  00                	DEFB 0x00
  6939  00d3  00                	DEFB 0x00
  6940  00d4  00                	DEFB 0x00
  6941  00d5  00                	DEFB 0x00
  6942  00d6  00                	DEFB 0x00
  6943  00d7  00                	DEFB 0x00
  6944  00d8  00                	DEFB 0x00
  6945  00d9  00                	DEFB 0x00
  6946  00da  00                	DEFB 0x00
  6947  00db  00                	DEFB 0x00
  6948  00dc  00                	DEFB 0x00
  6949  00dd  00                	DEFB 0x00
  6950  00de  00                	DEFB 0x00
  6951  00df  00                	DEFB 0x00
  6952  00e0  00                	DEFB 0x00
  6953  00e1  00                	DEFB 0x00
  6954  00e2  00                	DEFB 0x00
  6955  00e3  00                	DEFB 0x00
  6956  00e4  00                	DEFB 0x00
  6957  00e5  00                	DEFB 0x00
  6958  00e6  00                	DEFB 0x00
  6959  00e7  00                	DEFB 0x00
  6960  00e8  00                	DEFB 0x00
  6961  00e9  00                	DEFB 0x00
  6962  00ea  00                	DEFB 0x00
  6963  00eb  00                	DEFB 0x00
  6964  00ec  00                	DEFB 0x00
  6965  00ed  00                	DEFB 0x00
  6966  00ee  00                	DEFB 0x00
  6967  00ef  00                	DEFB 0x00
  6968  00f0  00                	DEFB 0x00
  6969  00f1  00                	DEFB 0x00
  6970  00f2  00                	DEFB 0x00
  6971  00f3  00                	DEFB 0x00
  6972  00f4  00                	DEFB 0x00
  6973  00f5  00                	DEFB 0x00
  6974  00f6  00                	DEFB 0x00
  6975  00f7  00                	DEFB 0x00
  6976  00f8  00                	DEFB 0x00
  6977  00f9  00                	DEFB 0x00
  6978  00fa  00                	DEFB 0x00
  6979  00fb  00                	DEFB 0x00
  6980  00fc  00                	DEFB 0x00
  6981  00fd  00                	DEFB 0x00
  6982  00fe  00                	DEFB 0x00
  6983  00ff  00                	DEFB 0x00
  6984                          __kbdBufferReadPos:
  6985  0100  00                	DEFB +0x00
  6986                          __kbdBufferWritePos:
  6987  0101  00                	DEFB +0x00
  6988                          __lastKeyboardIntVal:
  6989  0102  00                	DEFB +0x00
  6990                          __joyStatus:
  6991  0103  00                	DEFB +0x00
  6992  0104  00                	DEFB 0x00
  6993  0105  00                	DEFB 0x00
  6994  0106  00                	DEFB 0x00
  6995                          __ORIGINAL_INT_MASK:
  6996  0107  00                	DEFB +0x00
  6997                          _RETRONET_BRIDGE_EXIT_CODE:
  6998  0108  0f                	DEFB +0x0f
  6999  0109  b7                	DEFB +0xb7
  7000  010a  b8                	DEFB +0xb8
  7001  010b  b9                	DEFB +0xb9
  7002  010c  0f                	DEFB +0x0f
  7003  010d  b9                	DEFB +0xb9
  7004  010e  b8                	DEFB +0xb8
  7005  010f  b7                	DEFB +0xb7
  7006  0110  b8                	DEFB +0xb8
  7007  0111  b9                	DEFB +0xb9
  7008  0112  b7                	DEFB +0xb7
  7009  0113  b7                	DEFB +0xb7
  7010  0114  b8                	DEFB +0xb8
  7011  0115  b9                	DEFB +0xb9
  7012  0116  b9                	DEFB +0xb9
  7013  0117  b8                	DEFB +0xb8
  7014  0118  b7                	DEFB +0xb7
  7015  0119  b8                	DEFB +0xb8
  7016  011a  0f                	DEFB +0x0f
  7017  011b  b9                	DEFB +0xb9
  7018  011c  b7                	DEFB +0xb7
  7019                          _vdp_cursor:
  7020  011d  00                	DEFB +0x00
  7021  011e  00                	DEFB +0x00
  7022                          __vdpReg1Val:
  7023  011f  00                	DEFB +0x00
  7024                          __vdp_color_table_size:
  7025  0120  0000              	DEFW +0x0000
  7026                          __vdp_crsr_max_x:
  7027  0122  1f                	DEFB +0x1f
  7028                          _SPRITE_UFO:
  7029  0123  00                	DEFB +0x00
  7030  0124  00                	DEFB +0x00
  7031  0125  00                	DEFB +0x00
  7032  0126  03                	DEFB +0x03
  7033  0127  04                	DEFB +0x04
  7034  0128  08                	DEFB +0x08
  7035  0129  28                	DEFB +0x28
  7036  012a  68                	DEFB +0x68
  7037  012b  7f                	DEFB +0x7f
  7038  012c  3f                	DEFB +0x3f
  7039  012d  0f                	DEFB +0x0f
  7040  012e  00                	DEFB +0x00
  7041  012f  00                	DEFB +0x00
  7042  0130  00                	DEFB +0x00
  7043  0131  00                	DEFB +0x00
  7044  0132  00                	DEFB +0x00
  7045  0133  00                	DEFB +0x00
  7046  0134  00                	DEFB +0x00
  7047  0135  00                	DEFB +0x00
  7048  0136  80                	DEFB +0x80
  7049  0137  40                	DEFB +0x40
  7050  0138  20                	DEFB +0x20
  7051  0139  28                	DEFB +0x28
  7052  013a  2c                	DEFB +0x2c
  7053  013b  fc                	DEFB +0xfc
  7054  013c  f8                	DEFB +0xf8
  7055  013d  e0                	DEFB +0xe0
  7056  013e  00                	DEFB +0x00
  7057  013f  00                	DEFB +0x00
  7058  0140  00                	DEFB +0x00
  7059  0141  00                	DEFB +0x00
  7060  0142  00                	DEFB +0x00
  7061                          _SPRITE_ROCK1:
  7062  0143  12                	DEFB +0x12
  7063  0144  1b                	DEFB +0x1b
  7064  0145  1f                	DEFB +0x1f
  7065  0146  7f                	DEFB +0x7f
  7066  0147  ff                	DEFB +0xff
  7067  0148  ff                	DEFB +0xff
  7068  0149  7f                	DEFB +0x7f
  7069  014a  3f                	DEFB +0x3f
  7070  014b  3f                	DEFB +0x3f
  7071  014c  ff                	DEFB +0xff
  7072  014d  ff                	DEFB +0xff
  7073  014e  df                	DEFB +0xdf
  7074  014f  1f                	DEFB +0x1f
  7075  0150  3f                	DEFB +0x3f
  7076  0151  7c                	DEFB +0x7c
  7077  0152  60                	DEFB +0x60
  7078  0153  38                	DEFB +0x38
  7079  0154  38                	DEFB +0x38
  7080  0155  f8                	DEFB +0xf8
  7081  0156  fc                	DEFB +0xfc
  7082  0157  ff                	DEFB +0xff
  7083  0158  ff                	DEFB +0xff
  7084  0159  ff                	DEFB +0xff
  7085  015a  fd                	DEFB +0xfd
  7086  015b  fe                	DEFB +0xfe
  7087  015c  fe                	DEFB +0xfe
  7088  015d  fc                	DEFB +0xfc
  7089  015e  fc                	DEFB +0xfc
  7090  015f  fc                	DEFB +0xfc
  7091  0160  be                	DEFB +0xbe
  7092  0161  18                	DEFB +0x18
  7093  0162  18                	DEFB +0x18
  7094                          _SPRITE_ROCK2:
  7095  0163  38                	DEFB +0x38
  7096  0164  3f                	DEFB +0x3f
  7097  0165  3f                	DEFB +0x3f
  7098  0166  3f                	DEFB +0x3f
  7099  0167  3f                	DEFB +0x3f
  7100  0168  7f                	DEFB +0x7f
  7101  0169  ff                	DEFB +0xff
  7102  016a  ff                	DEFB +0xff
  7103  016b  3f                	DEFB +0x3f
  7104  016c  3f                	DEFB +0x3f
  7105  016d  3f                	DEFB +0x3f
  7106  016e  7f                	DEFB +0x7f
  7107  016f  7f                	DEFB +0x7f
  7108  0170  1f                	DEFB +0x1f
  7109  0171  3f                	DEFB +0x3f
  7110  0172  32                	DEFB +0x32
  7111  0173  07                	DEFB +0x07
  7112  0174  ce                	DEFB +0xce
  7113  0175  fc                	DEFB +0xfc
  7114  0176  ff                	DEFB +0xff
  7115  0177  fe                	DEFB +0xfe
  7116  0178  fe                	DEFB +0xfe
  7117  0179  ff                	DEFB +0xff
  7118  017a  ff                	DEFB +0xff
  7119  017b  fe                	DEFB +0xfe
  7120  017c  fe                	DEFB +0xfe
  7121  017d  fe                	DEFB +0xfe
  7122  017e  fc                	DEFB +0xfc
  7123  017f  fc                	DEFB +0xfc
  7124  0180  de                	DEFB +0xde
  7125  0181  1e                	DEFB +0x1e
  7126  0182  0e                	DEFB +0x0e
  7127                          _SPRITE_ROCK3:
  7128  0183  30                	DEFB +0x30
  7129  0184  77                	DEFB +0x77
  7130  0185  3f                	DEFB +0x3f
  7131  0186  3f                	DEFB +0x3f
  7132  0187  1f                	DEFB +0x1f
  7133  0188  3f                	DEFB +0x3f
  7134  0189  ff                	DEFB +0xff
  7135  018a  ff                	DEFB +0xff
  7136  018b  7f                	DEFB +0x7f
  7137  018c  3f                	DEFB +0x3f
  7138  018d  3f                	DEFB +0x3f
  7139  018e  1f                	DEFB +0x1f
  7140  018f  7f                	DEFB +0x7f
  7141  0190  7f                	DEFB +0x7f
  7142  0191  f3                	DEFB +0xf3
  7143  0192  e1                	DEFB +0xe1
  7144  0193  70                	DEFB +0x70
  7145  0194  fc                	DEFB +0xfc
  7146  0195  fe                	DEFB +0xfe
  7147  0196  fe                	DEFB +0xfe
  7148  0197  ff                	DEFB +0xff
  7149  0198  ff                	DEFB +0xff
  7150  0199  fe                	DEFB +0xfe
  7151  019a  fc                	DEFB +0xfc
  7152  019b  fc                	DEFB +0xfc
  7153  019c  f8                	DEFB +0xf8
  7154  019d  fc                	DEFB +0xfc
  7155  019e  fe                	DEFB +0xfe
  7156  019f  ff                	DEFB +0xff
  7157  01a0  fe                	DEFB +0xfe
  7158  01a1  b6                	DEFB +0xb6
  7159  01a2  14                	DEFB +0x14
  7160                          _SPRITE_PELLET:
  7161  01a3  00                	DEFB +0x00
  7162  01a4  00                	DEFB +0x00
  7163  01a5  07                	DEFB +0x07
  7164  01a6  0f                	DEFB +0x0f
  7165  01a7  1f                	DEFB +0x1f
  7166  01a8  3f                	DEFB +0x3f
  7167  01a9  7f                	DEFB +0x7f
  7168  01aa  7f                	DEFB +0x7f
  7169  01ab  7f                	DEFB +0x7f
  7170  01ac  7f                	DEFB +0x7f
  7171  01ad  7f                	DEFB +0x7f
  7172  01ae  3f                	DEFB +0x3f
  7173  01af  1b                	DEFB +0x1b
  7174  01b0  0c                	DEFB +0x0c
  7175  01b1  07                	DEFB +0x07
  7176  01b2  00                	DEFB +0x00
  7177  01b3  00                	DEFB +0x00
  7178  01b4  00                	DEFB +0x00
  7179  01b5  c0                	DEFB +0xc0
  7180  01b6  e0                	DEFB +0xe0
  7181  01b7  b0                	DEFB +0xb0
  7182  01b8  d8                	DEFB +0xd8
  7183  01b9  dc                	DEFB +0xdc
  7184  01ba  ec                	DEFB +0xec
  7185  01bb  ec                	DEFB +0xec
  7186  01bc  fc                	DEFB +0xfc
  7187  01bd  fc                	DEFB +0xfc
  7188  01be  f8                	DEFB +0xf8
  7189  01bf  f0                	DEFB +0xf0
  7190  01c0  e0                	DEFB +0xe0
  7191  01c1  c0                	DEFB +0xc0
  7192  01c2  00                	DEFB +0x00
  7193                          _SPRITE_DEAD:
  7194  01c3  06                	DEFB +0x06
  7195  01c4  02                	DEFB +0x02
  7196  01c5  07                	DEFB +0x07
  7197  01c6  0d                	DEFB +0x0d
  7198  01c7  0f                	DEFB +0x0f
  7199  01c8  06                	DEFB +0x06
  7200  01c9  03                	DEFB +0x03
  7201  01ca  01                	DEFB +0x01
  7202  01cb  07                	DEFB +0x07
  7203  01cc  09                	DEFB +0x09
  7204  01cd  09                	DEFB +0x09
  7205  01ce  01                	DEFB +0x01
  7206  01cf  02                	DEFB +0x02
  7207  01d0  04                	DEFB +0x04
  7208  01d1  04                	DEFB +0x04
  7209  01d2  0c                	DEFB +0x0c
  7210  01d3  c0                	DEFB +0xc0
  7211  01d4  80                	DEFB +0x80
  7212  01d5  c0                	DEFB +0xc0
  7213  01d6  60                	DEFB +0x60
  7214  01d7  e0                	DEFB +0xe0
  7215  01d8  c0                	DEFB +0xc0
  7216  01d9  80                	DEFB +0x80
  7217  01da  00                	DEFB +0x00
  7218  01db  c0                	DEFB +0xc0
  7219  01dc  20                	DEFB +0x20
  7220  01dd  20                	DEFB +0x20
  7221  01de  00                	DEFB +0x00
  7222  01df  80                	DEFB +0x80
  7223  01e0  40                	DEFB +0x40
  7224  01e1  40                	DEFB +0x40
  7225  01e2  60                	DEFB +0x60
  7226                          _PLAYER_LIVES:
  7227  01e3  03                	DEFB +0x03
  7228                          _PLAYER_CNT:
  7229  01e4  01                	DEFB +0x01
  7230                          _PELLET_CNT:
  7231  01e5  05                	DEFB +0x05
  7232                          _TIME:
  7233  01e6  1e                	DEFB +0x1e
  7234                          _r:
  7235  01e7  00                	DEFB +0x00
  7236                          __loopCntr:
  7237  01e8  0000              	DEFW +0x0000
  7238                          __isCollision:
  7239  01ea  00                	DEFB +0x00
  7240                          __speedCurve:
  7241  01eb  00                	DEFB +0x00
  7242  01ec  0f                	DEFB +0x0f
  7243  01ed  0a                	DEFB +0x0a
  7244  01ee  05                	DEFB +0x05
  7245  01ef  02                	DEFB +0x02
  7246  01f0  01                	DEFB +0x01
  7247                          __player:
  7248  01f1  00                	DEFB +0x00
  7249  01f2  00                	DEFB +0x00
  7250  01f3  00                	DEFB +0x00
  7251  01f4  00                	DEFB +0x00
  7252  01f5  00                	DEFB +0x00
  7253  01f6  00                	DEFB +0x00
  7254  01f7  00                	DEFB +0x00
  7255  01f8  00                	DEFB +0x00
  7256  01f9  0000              	DEFW +0x0000
  7257  01fb  00                	DEFB +0x00
  7258  01fc  00                	DEFB +0x00
  7259  01fd  00                	DEFB +0x00
  7260  01fe  00                	DEFB +0x00
  7261  01ff  00                	DEFB +0x00
  7262  0200  00                	DEFB +0x00
  7263  0201  00                	DEFB +0x00
  7264  0202  00                	DEFB +0x00
  7265  0203  00                	DEFB +0x00
  7266  0204  0000              	DEFW +0x0000
  7267  0206  00                	DEFB +0x00
  7268  0207  00                	DEFB +0x00
  7269  0208  00                	DEFB +0x00
  7270  0209  00                	DEFB +0x00
  7271  020a  00                	DEFB +0x00
  7272  020b  00                	DEFB +0x00
  7273  020c  00                	DEFB +0x00
  7274  020d  00                	DEFB +0x00
  7275  020e  00                	DEFB +0x00
  7276  020f  0000              	DEFW +0x0000
  7277  0211  00                	DEFB +0x00
  7278  0212  00                	DEFB +0x00
  7279  0213  00                	DEFB +0x00
  7280  0214  00                	DEFB +0x00
  7281  0215  00                	DEFB +0x00
  7282  0216  00                	DEFB +0x00
  7283  0217  00                	DEFB +0x00
  7284  0218  00                	DEFB +0x00
  7285  0219  00                	DEFB +0x00
  7286  021a  0000              	DEFW +0x0000
  7287  021c  00                	DEFB +0x00
  7288                          __rock:
  7289  021d  00                	DEFB +0x00
  7290  021e  00                	DEFB +0x00
  7291  021f  00                	DEFB +0x00
  7292  0220  00                	DEFB +0x00
  7293  0221  00                	DEFB +0x00
  7294  0222  00                	DEFB +0x00
  7295  0223  0000              	DEFW +0x0000
  7296  0225  00                	DEFB +0x00
  7297  0226  00                	DEFB +0x00
  7298  0227  00                	DEFB +0x00
  7299  0228  00                	DEFB +0x00
  7300  0229  00                	DEFB +0x00
  7301  022a  00                	DEFB +0x00
  7302  022b  00                	DEFB +0x00
  7303  022c  0000              	DEFW +0x0000
  7304  022e  00                	DEFB +0x00
  7305  022f  00                	DEFB +0x00
  7306  0230  00                	DEFB +0x00
  7307  0231  00                	DEFB +0x00
  7308  0232  00                	DEFB +0x00
  7309  0233  00                	DEFB +0x00
  7310  0234  00                	DEFB +0x00
  7311  0235  0000              	DEFW +0x0000
  7312  0237  00                	DEFB +0x00
  7313  0238  00                	DEFB +0x00
  7314  0239  00                	DEFB +0x00
  7315  023a  00                	DEFB +0x00
  7316  023b  00                	DEFB +0x00
  7317  023c  00                	DEFB +0x00
  7318  023d  00                	DEFB +0x00
  7319  023e  0000              	DEFW +0x0000
  7320  0240  00                	DEFB +0x00
  7321  0241  00                	DEFB +0x00
  7322  0242  00                	DEFB +0x00
  7323  0243  00                	DEFB +0x00
  7324  0244  00                	DEFB +0x00
  7325  0245  00                	DEFB +0x00
  7326  0246  00                	DEFB +0x00
  7327  0247  0000              	DEFW +0x0000
  7328  0249  00                	DEFB +0x00
  7329  024a  00                	DEFB +0x00
  7330  024b  00                	DEFB +0x00
  7331  024c  00                	DEFB +0x00
  7332  024d  00                	DEFB +0x00
  7333  024e  00                	DEFB +0x00
  7334  024f  00                	DEFB +0x00
  7335  0250  0000              	DEFW +0x0000
  7336  0252  00                	DEFB +0x00
  7337                          	SECTION IGNORE
  7338                          
