C:/Users/dj/AppData/Local/Temp/zcc00001550C3932.asm:
     1                          MODULE main_c
     2                          LINE 0, "main.c"
main.c:
                                
     1                          ;--------------------------------------------------------
     2                          ; File Created by SDCC : free open source ANSI-C Compiler
     3                          ; Version 4.2.0 #13081 (MINGW64)
     4                          ;--------------------------------------------------------
     5                          ; Processed by Z88DK
     6                          ;--------------------------------------------------------
     7                          
     8                          	EXTERN __divschar
     9                          	EXTERN __divschar_callee
    10                          	EXTERN __divsint
    11                          	EXTERN __divsint_callee
    12                          	EXTERN __divslong
    13                          	EXTERN __divslong_callee
    14                          	EXTERN __divslonglong
    15                          	EXTERN __divslonglong_callee
    16                          	EXTERN __divsuchar
    17                          	EXTERN __divsuchar_callee
    18                          	EXTERN __divuchar
    19                          	EXTERN __divuchar_callee
    20                          	EXTERN __divuint
    21                          	EXTERN __divuint_callee
    22                          	EXTERN __divulong
    23                          	EXTERN __divulong_callee
    24                          	EXTERN __divulonglong
    25                          	EXTERN __divulonglong_callee
    26                          	EXTERN __divuschar
    27                          	EXTERN __divuschar_callee
    28                          	EXTERN __modschar
    29                          	EXTERN __modschar_callee
    30                          	EXTERN __modsint
    31                          	EXTERN __modsint_callee
    32                          	EXTERN __modslong
    33                          	EXTERN __modslong_callee
    34                          	EXTERN __modslonglong
    35                          	EXTERN __modslonglong_callee
    36                          	EXTERN __modsuchar
    37                          	EXTERN __modsuchar_callee
    38                          	EXTERN __moduchar
    39                          	EXTERN __moduchar_callee
    40                          	EXTERN __moduint
    41                          	EXTERN __moduint_callee
    42                          	EXTERN __modulong
    43                          	EXTERN __modulong_callee
    44                          	EXTERN __modulonglong
    45                          	EXTERN __modulonglong_callee
    46                          	EXTERN __moduschar
    47                          	EXTERN __moduschar_callee
    48                          	EXTERN __mulint
    49                          	EXTERN __mulint_callee
    50                          	EXTERN __mullong
    51                          	EXTERN __mullong_callee
    52                          	EXTERN __mullonglong
    53                          	EXTERN __mullonglong_callee
    54                          	EXTERN __mulschar
    55                          	EXTERN __mulschar_callee
    56                          	EXTERN __mulsuchar
    57                          	EXTERN __mulsuchar_callee
    58                          	EXTERN __muluchar
    59                          	EXTERN __muluchar_callee
    60                          	EXTERN __muluschar
    61                          	EXTERN __muluschar_callee
    62                          	EXTERN __rlslonglong
    63                          	EXTERN __rlslonglong_callee
    64                          	EXTERN __rlulonglong
    65                          	EXTERN __rlulonglong_callee
    66                          	EXTERN __rrslonglong
    67                          	EXTERN __rrslonglong_callee
    68                          	EXTERN __rrulonglong
    69                          	EXTERN __rrulonglong_callee
    70                          	EXTERN ___mulsint2slong
    71                          	EXTERN ___mulsint2slong_callee
    72                          	EXTERN ___muluint2ulong
    73                          	EXTERN ___muluint2ulong_callee
    74                          	EXTERN ___sdcc_call_hl
    75                          	EXTERN ___sdcc_call_iy
    76                          	EXTERN ___sdcc_enter_ix
    77                          	EXTERN banked_call
    78                          	EXTERN _banked_ret
    79                          	EXTERN ___fs2schar
    80                          	EXTERN ___fs2schar_callee
    81                          	EXTERN ___fs2sint
    82                          	EXTERN ___fs2sint_callee
    83                          	EXTERN ___fs2slong
    84                          	EXTERN ___fs2slong_callee
    85                          	EXTERN ___fs2slonglong
    86                          	EXTERN ___fs2slonglong_callee
    87                          	EXTERN ___fs2uchar
    88                          	EXTERN ___fs2uchar_callee
    89                          	EXTERN ___fs2uint
    90                          	EXTERN ___fs2uint_callee
    91                          	EXTERN ___fs2ulong
    92                          	EXTERN ___fs2ulong_callee
    93                          	EXTERN ___fs2ulonglong
    94                          	EXTERN ___fs2ulonglong_callee
    95                          	EXTERN ___fsadd
    96                          	EXTERN ___fsadd_callee
    97                          	EXTERN ___fsdiv
    98                          	EXTERN ___fsdiv_callee
    99                          	EXTERN ___fseq
   100                          	EXTERN ___fseq_callee
   101                          	EXTERN ___fsgt
   102                          	EXTERN ___fsgt_callee
   103                          	EXTERN ___fslt
   104                          	EXTERN ___fslt_callee
   105                          	EXTERN ___fsmul
   106                          	EXTERN ___fsmul_callee
   107                          	EXTERN ___fsneq
   108                          	EXTERN ___fsneq_callee
   109                          	EXTERN ___fssub
   110                          	EXTERN ___fssub_callee
   111                          	EXTERN ___schar2fs
   112                          	EXTERN ___schar2fs_callee
   113                          	EXTERN ___sint2fs
   114                          	EXTERN ___sint2fs_callee
   115                          	EXTERN ___slong2fs
   116                          	EXTERN ___slong2fs_callee
   117                          	EXTERN ___slonglong2fs
   118                          	EXTERN ___slonglong2fs_callee
   119                          	EXTERN ___uchar2fs
   120                          	EXTERN ___uchar2fs_callee
   121                          	EXTERN ___uint2fs
   122                          	EXTERN ___uint2fs_callee
   123                          	EXTERN ___ulong2fs
   124                          	EXTERN ___ulong2fs_callee
   125                          	EXTERN ___ulonglong2fs
   126                          	EXTERN ___ulonglong2fs_callee
   127                          	EXTERN ____sdcc_2_copy_src_mhl_dst_deix
   128                          	EXTERN ____sdcc_2_copy_src_mhl_dst_bcix
   129                          	EXTERN ____sdcc_4_copy_src_mhl_dst_deix
   130                          	EXTERN ____sdcc_4_copy_src_mhl_dst_bcix
   131                          	EXTERN ____sdcc_4_copy_src_mhl_dst_mbc
   132                          	EXTERN ____sdcc_4_ldi_nosave_bc
   133                          	EXTERN ____sdcc_4_ldi_save_bc
   134                          	EXTERN ____sdcc_4_push_hlix
   135                          	EXTERN ____sdcc_4_push_mhl
   136                          	EXTERN ____sdcc_lib_setmem_hl
   137                          	EXTERN ____sdcc_ll_add_de_bc_hl
   138                          	EXTERN ____sdcc_ll_add_de_bc_hlix
   139                          	EXTERN ____sdcc_ll_add_de_hlix_bc
   140                          	EXTERN ____sdcc_ll_add_de_hlix_bcix
   141                          	EXTERN ____sdcc_ll_add_deix_bc_hl
   142                          	EXTERN ____sdcc_ll_add_deix_hlix
   143                          	EXTERN ____sdcc_ll_add_hlix_bc_deix
   144                          	EXTERN ____sdcc_ll_add_hlix_deix_bc
   145                          	EXTERN ____sdcc_ll_add_hlix_deix_bcix
   146                          	EXTERN ____sdcc_ll_asr_hlix_a
   147                          	EXTERN ____sdcc_ll_asr_mbc_a
   148                          	EXTERN ____sdcc_ll_copy_src_de_dst_hlix
   149                          	EXTERN ____sdcc_ll_copy_src_de_dst_hlsp
   150                          	EXTERN ____sdcc_ll_copy_src_deix_dst_hl
   151                          	EXTERN ____sdcc_ll_copy_src_deix_dst_hlix
   152                          	EXTERN ____sdcc_ll_copy_src_deixm_dst_hlsp
   153                          	EXTERN ____sdcc_ll_copy_src_desp_dst_hlsp
   154                          	EXTERN ____sdcc_ll_copy_src_hl_dst_de
   155                          	EXTERN ____sdcc_ll_copy_src_hlsp_dst_de
   156                          	EXTERN ____sdcc_ll_copy_src_hlsp_dst_deixm
   157                          	EXTERN ____sdcc_ll_lsl_hlix_a
   158                          	EXTERN ____sdcc_ll_lsl_mbc_a
   159                          	EXTERN ____sdcc_ll_lsr_hlix_a
   160                          	EXTERN ____sdcc_ll_lsr_mbc_a
   161                          	EXTERN ____sdcc_ll_push_hlix
   162                          	EXTERN ____sdcc_ll_push_mhl
   163                          	EXTERN ____sdcc_ll_sub_de_bc_hl
   164                          	EXTERN ____sdcc_ll_sub_de_bc_hlix
   165                          	EXTERN ____sdcc_ll_sub_de_hlix_bc
   166                          	EXTERN ____sdcc_ll_sub_de_hlix_bcix
   167                          	EXTERN ____sdcc_ll_sub_deix_bc_hl
   168                          	EXTERN ____sdcc_ll_sub_deix_hlix
   169                          	EXTERN ____sdcc_ll_sub_hlix_bc_deix
   170                          	EXTERN ____sdcc_ll_sub_hlix_deix_bc
   171                          	EXTERN ____sdcc_ll_sub_hlix_deix_bcix
   172                          	EXTERN ____sdcc_load_debc_deix
   173                          	EXTERN ____sdcc_load_dehl_deix
   174                          	EXTERN ____sdcc_load_debc_mhl
   175                          	EXTERN ____sdcc_load_hlde_mhl
   176                          	EXTERN ____sdcc_store_dehl_bcix
   177                          	EXTERN ____sdcc_store_debc_hlix
   178                          	EXTERN ____sdcc_store_debc_mhl
   179                          	EXTERN ____sdcc_cpu_pop_ei
   180                          	EXTERN ____sdcc_cpu_pop_ei_jp
   181                          	EXTERN ____sdcc_cpu_push_di
   182                          	EXTERN ____sdcc_outi
   183                          	EXTERN ____sdcc_outi_128
   184                          	EXTERN ____sdcc_outi_256
   185                          	EXTERN ____sdcc_ldi
   186                          	EXTERN ____sdcc_ldi_128
   187                          	EXTERN ____sdcc_ldi_256
   188                          	EXTERN ____sdcc_4_copy_srcd_hlix_dst_deix
   189                          	EXTERN ____sdcc_4_and_src_mbc_mhl_dst_deix
   190                          	EXTERN ____sdcc_4_or_src_mbc_mhl_dst_deix
   191                          	EXTERN ____sdcc_4_xor_src_mbc_mhl_dst_deix
   192                          	EXTERN ____sdcc_4_or_src_dehl_dst_bcix
   193                          	EXTERN ____sdcc_4_xor_src_dehl_dst_bcix
   194                          	EXTERN ____sdcc_4_and_src_dehl_dst_bcix
   195                          	EXTERN ____sdcc_4_xor_src_mbc_mhl_dst_debc
   196                          	EXTERN ____sdcc_4_or_src_mbc_mhl_dst_debc
   197                          	EXTERN ____sdcc_4_and_src_mbc_mhl_dst_debc
   198                          	EXTERN ____sdcc_4_cpl_src_mhl_dst_debc
   199                          	EXTERN ____sdcc_4_xor_src_debc_mhl_dst_debc
   200                          	EXTERN ____sdcc_4_or_src_debc_mhl_dst_debc
   201                          	EXTERN ____sdcc_4_and_src_debc_mhl_dst_debc
   202                          	EXTERN ____sdcc_4_and_src_debc_hlix_dst_debc
   203                          	EXTERN ____sdcc_4_or_src_debc_hlix_dst_debc
   204                          	EXTERN ____sdcc_4_xor_src_debc_hlix_dst_debc
   205                          
   206                          ;--------------------------------------------------------
   207                          ; Public variables in this module
   208                          ;--------------------------------------------------------
   209                          	GLOBAL _main
   210                          	GLOBAL _introScreens
   211                          	GLOBAL _initMenu
   212                          	GLOBAL _loadImage
   213                          	GLOBAL _doGameLoop
   214                          	GLOBAL _renderRocks
   215                          	GLOBAL _doCollision
   216                          	GLOBAL _doRock
   217                          	GLOBAL _doPlayer
   218                          	GLOBAL _initRocks
   219                          	GLOBAL _initPlayers
   220                          	GLOBAL _doStars
   221                          	GLOBAL _updatePellets
   222                          	GLOBAL _updateLives
   223                          	GLOBAL _updateScore
   224                          	GLOBAL _hcca_DiReadBytes
   225                          	GLOBAL _hcca_DiReadInt32
   226                          	GLOBAL _hcca_DiReadUInt32
   227                          	GLOBAL _hcca_DiReadInt16
   228                          	GLOBAL _hcca_DiReadUInt16
   229                          	GLOBAL _hcca_DiWriteBytes
   230                          	GLOBAL _hcca_DiWriteString
   231                          	GLOBAL _hcca_DiWriteInt16
   232                          	GLOBAL _hcca_DiWriteUInt16
   233                          	GLOBAL _hcca_DiWriteInt32
   234                          	GLOBAL _hcca_DiWriteUInt32
   235                          	GLOBAL _hcca_DiWriteByte
   236                          	GLOBAL _hcca_DiRestoreInterrupts
   237                          	GLOBAL _hcca_DiFocusInterrupts
   238                          	GLOBAL _vdp_scrollTextDown
   239                          	GLOBAL _waitVdpISR
   240                          	GLOBAL _isrKeyboard
   241                          	GLOBAL _isrHCCARX
   242                          	GLOBAL __pellets
   243                          	GLOBAL __rock
   244                          	GLOBAL __player
   245                          	GLOBAL __speedCurve
   246                          	GLOBAL __isGamePlaying
   247                          	GLOBAL __timeCntr
   248                          	GLOBAL __loopCntr
   249                          	GLOBAL _TIME
   250                          	GLOBAL _PELLET_CNT
   251                          	GLOBAL _PLAYER_CNT
   252                          	GLOBAL _PLAYER_LIVES
   253                          	GLOBAL _SPRITE_DATA
   254                          	GLOBAL _loop1_nt
   255                          	GLOBAL _COLOR
   256                          	GLOBAL _PATTERN
   257                          	GLOBAL _vdpIsReady
   258                          	GLOBAL _vdpStatusRegVal
   259                          	GLOBAL __vdpInterruptEnabled
   260                          	GLOBAL __vdpReg1Val
   261                          	GLOBAL _vdp_cursor
   262                          	GLOBAL __ORIGINAL_INT_MASK
   263                          	GLOBAL __joyStatus
   264                          	GLOBAL __lastKeyboardIntVal
   265                          	GLOBAL __kbdBufferWritePos
   266                          	GLOBAL __kbdBufferReadPos
   267                          	GLOBAL __rxBufferWritePos
   268                          	GLOBAL __rxBufferReadPos
   269                          	GLOBAL __randomSeed
   270                          	GLOBAL _tb
   271                          	GLOBAL __imgBuf
   272                          	GLOBAL __song
   273                          	GLOBAL __beatCntr
   274                          	GLOBAL __itemCntr
   275                          	GLOBAL __LIST_DEVICE
   276                          	GLOBAL __EMULATION_MODE
   277                          	GLOBAL _cpm_cursor
   278                          	GLOBAL __vdpSplitThirds
   279                          	GLOBAL __autoScroll
   280                          	GLOBAL __vdpMode
   281                          	GLOBAL __vdpCursorMaxXFull
   282                          	GLOBAL __vdpCursorMaxX
   283                          	GLOBAL __vdpPatternGeneratorTableAddr
   284                          	GLOBAL __vdpColorTableAddr
   285                          	GLOBAL __vdpPatternNameTableAddr
   286                          	GLOBAL __vdpSpriteSizeSelected
   287                          	GLOBAL __vdpSpriteGeneratorTableAddr
   288                          	GLOBAL __vdpSpriteAttributeTableAddr
   289                          	GLOBAL __vdp_ISR
   290                          	GLOBAL __vdp_textBuffer
   291                          	GLOBAL __kbdBuffer
   292                          	GLOBAL __rxBuffer
   293                          	GLOBAL __NOTES_FINE
   294                          	GLOBAL __NOTES_COURSE
   295                          	GLOBAL __vdpCursorMaxY
   296                          	GLOBAL _initNABULib
   297                          	GLOBAL _initNABULIBAudio
   298                          	GLOBAL _nop
   299                          	GLOBAL _NABU_DisableInterrupts
   300                          	GLOBAL _NABU_EnableInterrupts
   301                          	GLOBAL _RightShift
   302                          	GLOBAL _vt_clearToEndOfScreen
   303                          	GLOBAL _vt_clearToEndOfLine
   304                          	GLOBAL _vt_clearScreen
   305                          	GLOBAL _vt_clearLine
   306                          	GLOBAL _vt_clearToStartOfLine
   307                          	GLOBAL _vt_clearToStartOfScreen
   308                          	GLOBAL _vt_moveCursorDown
   309                          	GLOBAL _vt_cursorHome
   310                          	GLOBAL _vt_moveCursorLeft
   311                          	GLOBAL _vt_moveCursorRight
   312                          	GLOBAL _vt_moveCursorUp
   313                          	GLOBAL _vt_deleteLine
   314                          	GLOBAL _vt_setCursor
   315                          	GLOBAL _vt_foregroundColor
   316                          	GLOBAL _vt_insertLine
   317                          	GLOBAL _vt_restoreCursorPosition
   318                          	GLOBAL _vt_backgroundColor
   319                          	GLOBAL _vt_saveCursorPosition
   320                          	GLOBAL _vt_cursorUpAndInsert
   321                          	GLOBAL _vt_wrapOff
   322                          	GLOBAL _vt_wrapOn
   323                          	GLOBAL _vt_normalVideo
   324                          	GLOBAL _vt_reverseVideo
   325                          	GLOBAL _ayWrite
   326                          	GLOBAL _ayRead
   327                          	GLOBAL _playNoteDelay
   328                          	GLOBAL _isKeyPressed
   329                          	GLOBAL _getChar
   330                          	GLOBAL _getJoyStatus
   331                          	GLOBAL _readLine
   332                          	GLOBAL _hcca_ping
   333                          	GLOBAL _hcca_isRxBufferAvailable
   334                          	GLOBAL _hcca_getSizeOfDataInBuffer
   335                          	GLOBAL _hcca_readByte
   336                          	GLOBAL _hcca_readUInt16
   337                          	GLOBAL _hcca_readInt16
   338                          	GLOBAL _hcca_readUInt32
   339                          	GLOBAL _hcca_readInt32
   340                          	GLOBAL _hcca_readBytes
   341                          	GLOBAL _hcca_writeByte
   342                          	GLOBAL _hcca_writeUInt32
   343                          	GLOBAL _hcca_writeInt32
   344                          	GLOBAL _hcca_writeUInt16
   345                          	GLOBAL _hcca_writeInt16
   346                          	GLOBAL _hcca_writeString
   347                          	GLOBAL _hcca_writeBytes
   348                          	GLOBAL _vdp_setRegister
   349                          	GLOBAL _vdp_setWriteAddress
   350                          	GLOBAL _vdp_setReadAddress
   351                          	GLOBAL _vdp_enableVDPReadyInt
   352                          	GLOBAL _vdp_waitVDPReadyInt
   353                          	GLOBAL _vdp_disableVDPReadyInt
   354                          	GLOBAL _vdp_addISR
   355                          	GLOBAL _vdp_removeISR
   356                          	GLOBAL _vdp_init
   357                          	GLOBAL _vdp_clearVRAM
   358                          	GLOBAL _vdp_initMSXMode
   359                          	GLOBAL _vdp_initTextMode
   360                          	GLOBAL _vdp_initG2Mode
   361                          	GLOBAL _vdp_initMultiColorMode
   362                          	GLOBAL _vdp_clearScreen
   363                          	GLOBAL _vdp_fillScreen
   364                          	GLOBAL _vdp_clearRows
   365                          	GLOBAL _vdp_loadASCIIFont
   366                          	GLOBAL _vdp_loadASCIIFontWithInverse
   367                          	GLOBAL _vdp_putPattern
   368                          	GLOBAL _vdp_loadPatternTable
   369                          	GLOBAL _vdp_loadColorTable
   370                          	GLOBAL _vdp_colorizePattern
   371                          	GLOBAL _vdp_plotHires
   372                          	GLOBAL _vdp_plotColor
   373                          	GLOBAL _vdp_disableSprite
   374                          	GLOBAL _vdp_loadSpritePatternNameTable
   375                          	GLOBAL _vdp_spriteInit
   376                          	GLOBAL _vdp_setSpriteColor
   377                          	GLOBAL _vdp_setSpritePosition
   378                          	GLOBAL _vdp_setSpritePositionAndColor
   379                          	GLOBAL _vdp_getSpritePosition
   380                          	GLOBAL _vdp_print
   381                          	GLOBAL _vdp_printColorized
   382                          	GLOBAL _vdp_printPart
   383                          	GLOBAL _vdp_newLine
   384                          	GLOBAL _vdp_setBackDropColor
   385                          	GLOBAL _vdp_setCursor2
   386                          	GLOBAL _vdp_setCursor
   387                          	GLOBAL _vdp_setTextColor
   388                          	GLOBAL _vdp_write
   389                          	GLOBAL _vdp_writeCharAtLocation
   390                          	GLOBAL _vdp_getCharAtLocationVRAM
   391                          	GLOBAL _vdp_getCharAtLocationBuf
   392                          	GLOBAL _vdp_setCharAtLocationBuf
   393                          	GLOBAL _vdp_scrollTextUp
   394                          	GLOBAL _vdp_writeUInt32
   395                          	GLOBAL _vdp_writeInt32
   396                          	GLOBAL _vdp_writeUInt16
   397                          	GLOBAL _vdp_writeInt16
   398                          	GLOBAL _vdp_writeUInt8
   399                          	GLOBAL _vdp_writeInt8
   400                          	GLOBAL _vdp_writeUInt8ToBinary
   401                          	GLOBAL _vdp_writeUInt16ToBinary
   402                          	GLOBAL _vdp_writeUInt32ToBinary
   403                          	GLOBAL _rn_fileOpen
   404                          	GLOBAL _rn_fileHandleClose
   405                          	GLOBAL _rn_fileSize
   406                          	GLOBAL _rn_fileHandleSize
   407                          	GLOBAL _rn_fileHandleRead
   408                          	GLOBAL _rn_fileHandleAppend
   409                          	GLOBAL _rn_fileHandleInsert
   410                          	GLOBAL _rn_fileHandleDeleteRange
   411                          	GLOBAL _rn_fileHandleEmptyFile
   412                          	GLOBAL _rn_fileHandleReplace
   413                          	GLOBAL _rn_fileDelete
   414                          	GLOBAL _rn_fileHandleCopy
   415                          	GLOBAL _rn_fileHandleMove
   416                          	GLOBAL _rn_fileList
   417                          	GLOBAL _rn_fileListItem
   418                          	GLOBAL _rn_fileDetails
   419                          	GLOBAL _rn_fileHandleDetails
   420                          	GLOBAL _rn_fileHandleReadSeq
   421                          	GLOBAL _rn_fileHandleSeek
   422                          	GLOBAL _rn_TCPOpen
   423                          	GLOBAL _rn_TCPHandleClose
   424                          	GLOBAL _rn_TCPHandleSize
   425                          	GLOBAL _rn_TCPHandleRead
   426                          	GLOBAL _rn_TCPHandleWrite
   427                          	GLOBAL _rn_Printer
   428                          	GLOBAL _rn_PunchOut
   429                          	GLOBAL _nt_init
   430                          	GLOBAL _nt_stopSounds
   431                          	GLOBAL _nt_handleNote
   432                          ;--------------------------------------------------------
   433                          ; Externals used
   434                          ;--------------------------------------------------------
   435                          	GLOBAL _fputc_cons_ansi
   436                          	GLOBAL _fputc_cons_generic
   437                          	GLOBAL _fputc_cons_native
   438                          	GLOBAL _set_fputc_cons
   439                          	GLOBAL _perror
   440                          	GLOBAL _printk
   441                          	GLOBAL _getk_inkey
   442                          	GLOBAL _getk
   443                          	GLOBAL _remove
   444                          	GLOBAL _rename
   445                          	GLOBAL _fdgetpos
   446                          	GLOBAL _fdtell
   447                          	GLOBAL _fabandon
   448                          	GLOBAL _puts_cons
   449                          	GLOBAL _fgets_cons
   450                          	GLOBAL _fputc_cons
   451                          	GLOBAL _fgetc_cons_inkey
   452                          	GLOBAL _fgetc_cons
   453                          	GLOBAL _fchkstd
   454                          	GLOBAL _getarg
   455                          	GLOBAL _vsscanf
   456                          	GLOBAL _vfscanf
   457                          	GLOBAL _sscanf
   458                          	GLOBAL _fscanf
   459                          	GLOBAL _scanf
   460                          	GLOBAL _printn
   461                          	GLOBAL _vsnprintf
   462                          	GLOBAL _vfprintf
   463                          	GLOBAL _snprintf
   464                          	GLOBAL _sprintf
   465                          	GLOBAL _fprintf
   466                          	GLOBAL _printf
   467                          	GLOBAL _gets
   468                          	GLOBAL _fwrite
   469                          	GLOBAL _fread
   470                          	GLOBAL _fseek
   471                          	GLOBAL _fgetpos
   472                          	GLOBAL _ftell
   473                          	GLOBAL _puts
   474                          	GLOBAL _ferror
   475                          	GLOBAL _feof
   476                          	GLOBAL _ungetc
   477                          	GLOBAL _fgetc
   478                          	GLOBAL _fputc_callee
   479                          	GLOBAL _fputs_callee
   480                          	GLOBAL _fputc
   481                          	GLOBAL _fputs
   482                          	GLOBAL _fgets
   483                          	GLOBAL _closeall
   484                          	GLOBAL _fflush
   485                          	GLOBAL _fclose
   486                          	GLOBAL _funopen
   487                          	GLOBAL _fmemopen
   488                          	GLOBAL __freopen1
   489                          	GLOBAL _fdopen
   490                          	GLOBAL _freopen
   491                          	GLOBAL _fopen
   492                          	GLOBAL _fileno
   493                          	GLOBAL _fopen_zsock
   494                          	GLOBAL _rnd_erase
   495                          	GLOBAL _rnd_saveblock
   496                          	GLOBAL _rnd_loadblock
   497                          	GLOBAL _rmdir
   498                          	GLOBAL _getwd
   499                          	GLOBAL _chdir
   500                          	GLOBAL _getcwd
   501                          	GLOBAL _writebyte
   502                          	GLOBAL _readbyte
   503                          	GLOBAL _lseek
   504                          	GLOBAL _write
   505                          	GLOBAL _read
   506                          	GLOBAL _close
   507                          	GLOBAL _creat
   508                          	GLOBAL _open
   509                          	GLOBAL _gios_esc
   510                          	GLOBAL _gios_text
   511                          	GLOBAL _gios_1px_callee
   512                          	GLOBAL _gios_1px
   513                          	GLOBAL _gios_2px_callee
   514                          	GLOBAL _gios_2px
   515                          	GLOBAL _gios_1pm_callee
   516                          	GLOBAL _gios_1pm
   517                          	GLOBAL _gios
   518                          	GLOBAL _a_serialport
   519                          	GLOBAL _a_driveb
   520                          	GLOBAL _a_memsize
   521                          	GLOBAL _a_biosver
   522                          	GLOBAL _a_machinever
   523                          	GLOBAL _a_machine
   524                          	GLOBAL _a_cury
   525                          	GLOBAL _a_curx
   526                          	GLOBAL _a_ink
   527                          	GLOBAL _a_paper
   528                          	GLOBAL _a_border
   529                          	GLOBAL _a_keyspeed
   530                          	GLOBAL _a_statusline
   531                          	GLOBAL _get_dir_name
   532                          	GLOBAL _dir_get_entry_size
   533                          	GLOBAL _dir_get_entry_name
   534                          	GLOBAL _dir_get_entry_type
   535                          	GLOBAL _dir_move_next
   536                          	GLOBAL _dir_move_first
   537                          	GLOBAL _get_current_volume
   538                          	GLOBAL _change_volume
   539                          	GLOBAL __putoffset
   540                          	GLOBAL _swapuid
   541                          	GLOBAL _putoffset
   542                          	GLOBAL _parsefcb
   543                          	GLOBAL _setfcb
   544                          	GLOBAL _cpm_cache_flush
   545                          	GLOBAL _cpm_cache_get
   546                          	GLOBAL _getfcb
   547                          	GLOBAL _biosh
   548                          	GLOBAL _bios
   549                          	GLOBAL _bdosh_callee
   550                          	GLOBAL _bdosh
   551                          	GLOBAL _bdos_callee
   552                          	GLOBAL _bdos
   553                          	GLOBAL _get_dpb
   554                          	GLOBAL _unbcd
   555                          	GLOBAL _wcmatch
   556                          	GLOBAL _extract_bits_callee
   557                          	GLOBAL _extract_bits
   558                          	GLOBAL _msleep
   559                          	GLOBAL _sleep
   560                          	GLOBAL _t_delay
   561                          	GLOBAL _wpeek
   562                          	GLOBAL _bpeek
   563                          	GLOBAL _wpoke_callee
   564                          	GLOBAL _wpoke
   565                          	GLOBAL _bpoke_callee
   566                          	GLOBAL _bpoke
   567                          	GLOBAL _swapendian
   568                          	GLOBAL _outp_callee
   569                          	GLOBAL _outp
   570                          	GLOBAL _inp
   571                          	GLOBAL _isqrt
   572                          	GLOBAL _labs
   573                          	GLOBAL _abs
   574                          	GLOBAL __ldivu__callee
   575                          	GLOBAL __ldivu_
   576                          	GLOBAL __ldiv__callee
   577                          	GLOBAL __ldiv_
   578                          	GLOBAL __divu__callee
   579                          	GLOBAL __divu_
   580                          	GLOBAL __div__callee
   581                          	GLOBAL __div_
   582                          	GLOBAL _qsort_sdcc_callee
   583                          	GLOBAL _qsort_sdcc
   584                          	GLOBAL _qsort_sccz80_callee
   585                          	GLOBAL _qsort_sccz80
   586                          	GLOBAL _l_qsort_callee
   587                          	GLOBAL _l_qsort
   588                          	GLOBAL _l_bsearch_callee
   589                          	GLOBAL _l_bsearch
   590                          	GLOBAL _getopt
   591                          	GLOBAL _unsetenv
   592                          	GLOBAL _setenv
   593                          	GLOBAL _getenv_r
   594                          	GLOBAL _getenv
   595                          	GLOBAL _atexit
   596                          	GLOBAL _exit
   597                          	GLOBAL _HeapInfo_callee
   598                          	GLOBAL _HeapInfo
   599                          	GLOBAL _HeapRealloc_callee
   600                          	GLOBAL _HeapRealloc
   601                          	GLOBAL _HeapAlloc_callee
   602                          	GLOBAL _HeapAlloc
   603                          	GLOBAL _HeapFree_callee
   604                          	GLOBAL _HeapFree
   605                          	GLOBAL _HeapCalloc_callee
   606                          	GLOBAL _HeapCalloc
   607                          	GLOBAL _HeapSbrk_callee
   608                          	GLOBAL _HeapSbrk
   609                          	GLOBAL _HeapCreate
   610                          	GLOBAL _mallinfo_callee
   611                          	GLOBAL _mallinfo
   612                          	GLOBAL _realloc_callee
   613                          	GLOBAL _realloc
   614                          	GLOBAL _malloc
   615                          	GLOBAL _free
   616                          	GLOBAL _calloc_callee
   617                          	GLOBAL _calloc
   618                          	GLOBAL _sbrk_callee
   619                          	GLOBAL _sbrk
   620                          	GLOBAL _mallinit
   621                          	GLOBAL _srand
   622                          	GLOBAL _rand
   623                          	GLOBAL _ulltoa_callee
   624                          	GLOBAL _ulltoa
   625                          	GLOBAL _strtoull_callee
   626                          	GLOBAL _strtoull
   627                          	GLOBAL _strtoll_callee
   628                          	GLOBAL _strtoll
   629                          	GLOBAL _lltoa_callee
   630                          	GLOBAL _lltoa
   631                          	GLOBAL _atoll_callee
   632                          	GLOBAL _atoll
   633                          	GLOBAL _utoa_callee
   634                          	GLOBAL _utoa
   635                          	GLOBAL _ultoa_callee
   636                          	GLOBAL _ultoa
   637                          	GLOBAL _strtoul_callee
   638                          	GLOBAL _strtoul
   639                          	GLOBAL _strtol_callee
   640                          	GLOBAL _strtol
   641                          	GLOBAL _ltoa_callee
   642                          	GLOBAL _ltoa
   643                          	GLOBAL _itoa_callee
   644                          	GLOBAL _itoa
   645                          	GLOBAL _atol
   646                          	GLOBAL _atoi
   647                          	GLOBAL __sgoioblk_end
   648                          	GLOBAL __sgoioblk
   649                          	GLOBAL __FOPEN_MAX
   650                          	GLOBAL __RND_BLOCKSIZE
   651                          	GLOBAL _gios_ptsout
   652                          	GLOBAL _gios_intout
   653                          	GLOBAL _gios_ptsin
   654                          	GLOBAL _gios_intin
   655                          	GLOBAL _gios_ctl
   656                          	GLOBAL _gios_pb
   657                          	GLOBAL _fc_dirbuf
   658                          	GLOBAL _fc_dirpos
   659                          	GLOBAL _fc_dir
   660                          	GLOBAL __fcb
   661                          	GLOBAL __CLIB_OPEN_MAX
   662                          	GLOBAL _optreset
   663                          	GLOBAL _optopt
   664                          	GLOBAL _optind
   665                          	GLOBAL _opterr
   666                          	GLOBAL _optarg
   667                          ;--------------------------------------------------------
   668                          ; special function registers
   669                          ;--------------------------------------------------------
   670                          defc _IO_VDPDATA	=	0x00a0
   671                          defc _IO_VDPLATCH	=	0x00a1
   672                          defc _IO_AYDATA	=	0x0040
   673                          defc _IO_AYLATCH	=	0x0041
   674                          defc _IO_HCCA	=	0x0080
   675                          defc _IO_KEYBOARD	=	0x0090
   676                          defc _IO_KEYBOARD_STATUS	=	0x0091
   677                          defc _IO_CONTROL	=	0x0000
   678                          ;--------------------------------------------------------
   679                          ; ram data
   680                          ;--------------------------------------------------------
   681                          	SECTION bss_compiler
   682                          __rxBuffer:
   683  0000  0000000000000000  	DEFS 256
              0000000000000000  
              0000000000000000  
              0000000000000000  
              0000000000000000  
              0000000000000000  
              0000000000000000  
              0000000000000000  
              0000000000000000  
              0000000000000000  
              0000000000000000  
              0000000000000000  
              0000000000000000  
              0000000000000000  
              0000000000000000  
              0000000000000000  
              0000000000000000  
              0000000000000000  
              0000000000000000  
              0000000000000000  
              0000000000000000  
              0000000000000000  
              0000000000000000  
              0000000000000000  
              0000000000000000  
              0000000000000000  
              0000000000000000  
              0000000000000000  
              0000000000000000  
              0000000000000000  
              0000000000000000  
              0000000000000000  
   684                          __kbdBuffer:
   685  0100  0000000000000000  	DEFS 256
              0000000000000000  
              0000000000000000  
              0000000000000000  
              0000000000000000  
              0000000000000000  
              0000000000000000  
              0000000000000000  
              0000000000000000  
              0000000000000000  
              0000000000000000  
              0000000000000000  
              0000000000000000  
              0000000000000000  
              0000000000000000  
              0000000000000000  
              0000000000000000  
              0000000000000000  
              0000000000000000  
              0000000000000000  
              0000000000000000  
              0000000000000000  
              0000000000000000  
              0000000000000000  
              0000000000000000  
              0000000000000000  
              0000000000000000  
              0000000000000000  
              0000000000000000  
              0000000000000000  
              0000000000000000  
              0000000000000000  
   686                          __vdp_textBuffer:
   687  0200  0000000000000000  	DEFS 960
              0000000000000000  
              0000000000000000  
              0000000000000000  
              0000000000000000  
              0000000000000000  
              0000000000000000  
              0000000000000000  
              0000000000000000  
              0000000000000000  
              0000000000000000  
              0000000000000000  
              0000000000000000  
              0000000000000000  
              0000000000000000  
              0000000000000000  
              0000000000000000  
              0000000000000000  
              0000000000000000  
              0000000000000000  
              0000000000000000  
              0000000000000000  
              0000000000000000  
              0000000000000000  
              0000000000000000  
              0000000000000000  
              0000000000000000  
              0000000000000000  
              0000000000000000  
              0000000000000000  
              0000000000000000  
              0000000000000000  
              0000000000000000  
              0000000000000000  
              0000000000000000  
              0000000000000000  
              0000000000000000  
              0000000000000000  
              0000000000000000  
              0000000000000000  
              0000000000000000  
              0000000000000000  
              0000000000000000  
              0000000000000000  
              0000000000000000  
              0000000000000000  
              0000000000000000  
              0000000000000000  
              0000000000000000  
              0000000000000000  
              0000000000000000  
              0000000000000000  
              0000000000000000  
              0000000000000000  
              0000000000000000  
              0000000000000000  
              0000000000000000  
              0000000000000000  
              0000000000000000  
              0000000000000000  
              0000000000000000  
              0000000000000000  
              0000000000000000  
              0000000000000000  
              0000000000000000  
              0000000000000000  
              0000000000000000  
              0000000000000000  
              0000000000000000  
              0000000000000000  
              0000000000000000  
              0000000000000000  
              0000000000000000  
              0000000000000000  
              0000000000000000  
              0000000000000000  
              0000000000000000  
              0000000000000000  
              0000000000000000  
              0000000000000000  
              0000000000000000  
              0000000000000000  
              0000000000000000  
              0000000000000000  
              0000000000000000  
              0000000000000000  
              0000000000000000  
              0000000000000000  
              0000000000000000  
              0000000000000000  
              0000000000000000  
              0000000000000000  
              0000000000000000  
              0000000000000000  
              0000000000000000  
              0000000000000000  
              0000000000000000  
              0000000000000000  
              0000000000000000  
              0000000000000000  
              0000000000000000  
              0000000000000000  
              0000000000000000  
              0000000000000000  
              0000000000000000  
              0000000000000000  
              0000000000000000  
              0000000000000000  
              0000000000000000  
              0000000000000000  
              0000000000000000  
              0000000000000000  
              0000000000000000  
              0000000000000000  
              0000000000000000  
              0000000000000000  
              0000000000000000  
              0000000000000000  
              0000000000000000  
              0000000000000000  
   688                          __vdp_ISR:
   689  05c0  0000              	DEFS 2
   690                          __vdpSpriteAttributeTableAddr:
   691  05c2  0000              	DEFS 2
   692                          __vdpSpriteGeneratorTableAddr:
   693  05c4  0000              	DEFS 2
   694                          __vdpSpriteSizeSelected:
   695  05c6  00                	DEFS 1
   696                          __vdpPatternNameTableAddr:
   697  05c7  0000              	DEFS 2
   698                          __vdpColorTableAddr:
   699  05c9  0000              	DEFS 2
   700                          __vdpPatternGeneratorTableAddr:
   701  05cb  0000              	DEFS 2
   702                          __vdpCursorMaxX:
   703  05cd  00                	DEFS 1
   704                          __vdpCursorMaxXFull:
   705  05ce  00                	DEFS 1
   706                          __vdpMode:
   707  05cf  00                	DEFS 1
   708                          __autoScroll:
   709  05d0  00                	DEFS 1
   710                          __vdpSplitThirds:
   711  05d1  00                	DEFS 1
   712                          defc _cpm_cursor	=	0xff10
   713                          defc __EMULATION_MODE	=	0xff12
   714                          defc __LIST_DEVICE	=	0xff13
   715                          __itemCntr:
   716  05d2  0000              	DEFS 2
   717                          __beatCntr:
   718  05d4  00                	DEFS 1
   719                          __song:
   720  05d5  0000              	DEFS 2
   721                          __imgBuf:
   722  05d7  0000000000000000  	DEFS 128
              0000000000000000  
              0000000000000000  
              0000000000000000  
              0000000000000000  
              0000000000000000  
              0000000000000000  
              0000000000000000  
              0000000000000000  
              0000000000000000  
              0000000000000000  
              0000000000000000  
              0000000000000000  
              0000000000000000  
              0000000000000000  
              0000000000000000  
   723                          _tb:
   724  0657  0000000000000000  	DEFS 64
              0000000000000000  
              0000000000000000  
              0000000000000000  
              0000000000000000  
              0000000000000000  
              0000000000000000  
              0000000000000000  
   725                          ;--------------------------------------------------------
   726                          ; ram data
   727                          ;--------------------------------------------------------
   728                          
   729                          IF 0
   730                          
   731                          ; .area _INITIALIZED removed by z88dk
   732                          
   733                          __randomSeed:
   734                          	DEFS 1
   735                          __rxBufferReadPos:
   736                          	DEFS 1
   737                          __rxBufferWritePos:
   738                          	DEFS 1
   739                          __kbdBufferReadPos:
   740                          	DEFS 1
   741                          __kbdBufferWritePos:
   742                          	DEFS 1
   743                          __lastKeyboardIntVal:
   744                          	DEFS 1
   745                          __joyStatus:
   746                          	DEFS 4
   747                          __ORIGINAL_INT_MASK:
   748                          	DEFS 1
   749                          _vdp_cursor:
   750                          	DEFS 2
   751                          __vdpReg1Val:
   752                          	DEFS 1
   753                          __vdpInterruptEnabled:
   754                          	DEFS 1
   755                          _vdpStatusRegVal:
   756                          	DEFS 1
   757                          _vdpIsReady:
   758                          	DEFS 1
   759                          _PATTERN:
   760                          	DEFS 2048
   761                          _COLOR:
   762                          	DEFS 2048
   763                          _loop1_nt:
   764                          	DEFS 1370
   765                          _SPRITE_DATA:
   766                          	DEFS 352
   767                          _PLAYER_LIVES:
   768                          	DEFS 1
   769                          _PLAYER_CNT:
   770                          	DEFS 1
   771                          _PELLET_CNT:
   772                          	DEFS 1
   773                          _TIME:
   774                          	DEFS 1
   775                          __loopCntr:
   776                          	DEFS 2
   777                          __timeCntr:
   778                          	DEFS 1
   779                          __isGamePlaying:
   780                          	DEFS 1
   781                          __speedCurve:
   782                          	DEFS 7
   783                          __player:
   784                          	DEFS 44
   785                          __rock:
   786                          	DEFS 48
   787                          __pellets:
   788                          	DEFS 20
   789                          
   790                          ENDIF
   791                          
   792                          ;--------------------------------------------------------
   793                          ; absolute external ram data
   794                          ;--------------------------------------------------------
   795                          	SECTION IGNORE
   796                          ;--------------------------------------------------------
   797                          ; global & static initialisations
   798                          ;--------------------------------------------------------
   799                          	SECTION code_crt_init
   800                          ;--------------------------------------------------------
   801                          ; Home
   802                          ;--------------------------------------------------------
   803                          	SECTION IGNORE
   804                          ;--------------------------------------------------------
   805                          ; code
   806                          ;--------------------------------------------------------
   807                          	SECTION code_compiler
   808                          ;	---------------------------------
   809                          ; Function initNABULib
   810                          ; ---------------------------------
   811                          _initNABULib:
   812  0000  3e00              	ld	a,0x03
   813  0002  d300              	out	(_IO_CONTROL), a
   814  0004  cd0000            	call	_NABU_DisableInterrupts
   815  0007  f5                	push	af
   816  0008  ed5f              	ld	a, r
   817  000a  320000            	ld	(__randomSeed), a
   818  000d  f1                	pop	af
   819  000e  3a0000            	ld	a, (__randomSeed+0)
   820  0011  6f                	ld	l, a
   821  0012  2600              	ld	h,0x00
   822  0014  cd0000            	call	_srand
   823  0017  ed5e              	IM	2
   824  0019  3e00              	ld	a, 0xff
   825  001b  ed47              	ld	i, a
   826  001d  210000            	ld	hl, _isrHCCARX
   827  0020  220000            	ld	(0xff00), hl
   828  0023  210000            	ld	hl, _isrKeyboard
   829  0026  220000            	ld	(0xff00 + 4), hl
   830  0029  3e00              	ld	a,0x0e
   831  002b  f5                	push	af
   832  002c  33                	inc	sp
   833  002d  cd0000            	call	_ayRead
   834  0030  33                	inc	sp
   835  0031  7d                	ld	a, l
   836  0032  320000            	ld	(__ORIGINAL_INT_MASK+0), a
   837  0035  3a0000            	ld	a, (__ORIGINAL_INT_MASK+0)
   838  0038  f600              	or	a,0x80
   839  003a  320000            	ld	(__ORIGINAL_INT_MASK+0), a
   840  003d  3a0000            	ld	a, (__ORIGINAL_INT_MASK+0)
   841  0040  f600              	or	a,0x20
   842  0042  320000            	ld	(__ORIGINAL_INT_MASK+0), a
   843  0045  3a0000            	ld	a, (__ORIGINAL_INT_MASK+0)
   844  0048  57                	ld	d,a
   845  0049  1e00              	ld	e,0x0e
   846  004b  d5                	push	de
   847  004c  cd0000            	call	_ayWrite
   848  004f  f1                	pop	af
   849  0050  cd0000            	call	_NABU_EnableInterrupts
   850  0053  c30000            	jp	_initNABULIBAudio
   851                          	SECTION rodata_compiler
   852                          __vdpCursorMaxY:
   853  0000  00                	DEFB +0x17
   854                          __NOTES_COURSE:
   855  0001  00                	DEFB +0x0d
   856  0002  00                	DEFB +0x0c
   857  0003  00                	DEFB +0x0b
   858  0004  00                	DEFB +0x0b
   859  0005  00                	DEFB +0x0a
   860  0006  00                	DEFB +0x0a
   861  0007  00                	DEFB +0x09
   862  0008  00                	DEFB +0x08
   863  0009  00                	DEFB +0x08
   864  000a  00                	DEFB +0x07
   865  000b  00                	DEFB +0x07
   866  000c  00                	DEFB +0x07
   867  000d  00                	DEFB +0x06
   868  000e  00                	DEFB +0x06
   869  000f  00                	DEFB +0x05
   870  0010  00                	DEFB +0x05
   871  0011  00                	DEFB +0x05
   872  0012  00                	DEFB +0x05
   873  0013  00                	DEFB +0x04
   874  0014  00                	DEFB +0x04
   875  0015  00                	DEFB +0x04
   876  0016  00                	DEFB +0x03
   877  0017  00                	DEFB +0x03
   878  0018  00                	DEFB +0x03
   879  0019  00                	DEFB +0x03
   880  001a  00                	DEFB +0x03
   881  001b  00                	DEFB +0x02
   882  001c  00                	DEFB +0x02
   883  001d  00                	DEFB +0x02
   884  001e  00                	DEFB +0x02
   885  001f  00                	DEFB +0x02
   886  0020  00                	DEFB +0x02
   887  0021  00                	DEFB +0x02
   888  0022  00                	DEFB +0x01
   889  0023  00                	DEFB +0x01
   890  0024  00                	DEFB +0x01
   891  0025  00                	DEFB +0x01
   892  0026  00                	DEFB +0x01
   893  0027  00                	DEFB +0x01
   894  0028  00                	DEFB +0x01
   895  0029  00                	DEFB +0x01
   896  002a  00                	DEFB +0x01
   897  002b  00                	DEFB +0x01
   898  002c  00                	DEFB +0x01
   899  002d  00                	DEFB +0x01
   900  002e  00                	DEFB +0x00
   901  002f  00                	DEFB +0x00
   902  0030  00                	DEFB +0x00
   903  0031  00                	DEFB +0x00
   904  0032  00                	DEFB +0x00
   905  0033  00                	DEFB +0x00
   906  0034  00                	DEFB +0x00
   907  0035  00                	DEFB +0x00
   908  0036  00                	DEFB +0x00
   909  0037  00                	DEFB +0x00
   910  0038  00                	DEFB +0x00
   911  0039  00                	DEFB +0x00
   912  003a  00                	DEFB +0x00
   913  003b  00                	DEFB +0x00
   914  003c  00                	DEFB +0x00
   915  003d  00                	DEFB +0x00
   916  003e  00                	DEFB +0x00
   917  003f  00                	DEFB +0x00
   918  0040  00                	DEFB +0x00
   919  0041  00                	DEFB +0x00
   920  0042  00                	DEFB +0x00
   921  0043  00                	DEFB +0x00
   922  0044  00                	DEFB +0x00
   923  0045  00                	DEFB +0x00
   924  0046  00                	DEFB +0x00
   925  0047  00                	DEFB +0x00
   926  0048  00                	DEFB +0x00
   927                          __NOTES_FINE:
   928  0049  00                	DEFB +0x5c
   929  004a  00                	DEFB +0x9c
   930  004b  00                	DEFB +0xe7
   931  004c  00                	DEFB +0x3c
   932  004d  00                	DEFB +0x9b
   933  004e  00                	DEFB +0x02
   934  004f  00                	DEFB +0x72
   935  0050  00                	DEFB +0xeb
   936  0051  00                	DEFB +0x6a
   937  0052  00                	DEFB +0xf2
   938  0053  00                	DEFB +0x7f
   939  0054  00                	DEFB +0x14
   940  0055  00                	DEFB +0xae
   941  0056  00                	DEFB +0x4e
   942  0057  00                	DEFB +0xf3
   943  0058  00                	DEFB +0x9e
   944  0059  00                	DEFB +0x4d
   945  005a  00                	DEFB +0x01
   946  005b  00                	DEFB +0xb9
   947  005c  00                	DEFB +0x75
   948  005d  00                	DEFB +0x35
   949  005e  00                	DEFB +0xf9
   950  005f  00                	DEFB +0xbf
   951  0060  00                	DEFB +0x8a
   952  0061  00                	DEFB +0x57
   953  0062  00                	DEFB +0x27
   954  0063  00                	DEFB +0xf9
   955  0064  00                	DEFB +0xcf
   956  0065  00                	DEFB +0xa6
   957  0066  00                	DEFB +0x80
   958  0067  00                	DEFB +0x5c
   959  0068  00                	DEFB +0x3a
   960  0069  00                	DEFB +0x1a
   961  006a  00                	DEFB +0xfc
   962  006b  00                	DEFB +0xdf
   963  006c  00                	DEFB +0xc5
   964  006d  00                	DEFB +0xab
   965  006e  00                	DEFB +0x93
   966  006f  00                	DEFB +0x7c
   967  0070  00                	DEFB +0x67
   968  0071  00                	DEFB +0x53
   969  0072  00                	DEFB +0x40
   970  0073  00                	DEFB +0x2e
   971  0074  00                	DEFB +0x1d
   972  0075  00                	DEFB +0x0d
   973  0076  00                	DEFB +0xfe
   974  0077  00                	DEFB +0xef
   975  0078  00                	DEFB +0xe2
   976  0079  00                	DEFB +0xd5
   977  007a  00                	DEFB +0xc9
   978  007b  00                	DEFB +0xbe
   979  007c  00                	DEFB +0xb3
   980  007d  00                	DEFB +0xa9
   981  007e  00                	DEFB +0xa0
   982  007f  00                	DEFB +0x97
   983  0080  00                	DEFB +0x8e
   984  0081  00                	DEFB +0x86
   985  0082  00                	DEFB +0x7f
   986  0083  00                	DEFB +0x77
   987  0084  00                	DEFB +0x71
   988  0085  00                	DEFB +0x6a
   989  0086  00                	DEFB +0x64
   990  0087  00                	DEFB +0x5f
   991  0088  00                	DEFB +0x59
   992  0089  00                	DEFB +0x54
   993  008a  00                	DEFB +0x50
   994  008b  00                	DEFB +0x4b
   995  008c  00                	DEFB +0x47
   996  008d  00                	DEFB +0x43
   997  008e  00                	DEFB +0x3f
   998  008f  00                	DEFB +0x3b
   999  0090  00                	DEFB +0x38
  1000                          	SECTION code_compiler
  1001                          ;	---------------------------------
  1002                          ; Function initNABULIBAudio
  1003                          ; ---------------------------------
  1004                          _initNABULIBAudio:
  1005  0056  af                	xor	a, a
  1006  0057  57                	ld	d,a
  1007  0058  1e00              	ld	e,0x06
  1008  005a  d5                	push	de
  1009  005b  cd0000            	call	_ayWrite
  1010  005e  f1                	pop	af
  1011  005f  110000            	ld	de,0x1008
  1012  0062  d5                	push	de
  1013  0063  cd0000            	call	_ayWrite
  1014  0066  f1                	pop	af
  1015  0067  110000            	ld	de,0x1009
  1016  006a  d5                	push	de
  1017  006b  cd0000            	call	_ayWrite
  1018  006e  f1                	pop	af
  1019  006f  110000            	ld	de,0x100a
  1020  0072  d5                	push	de
  1021  0073  cd0000            	call	_ayWrite
  1022  0076  f1                	pop	af
  1023  0077  110000            	ld	de,0x7807
  1024  007a  d5                	push	de
  1025  007b  cd0000            	call	_ayWrite
  1026  007e  f1                	pop	af
  1027  007f  c9                	ret
  1028                          	SECTION code_compiler
  1029                          ;	---------------------------------
  1030                          ; Function nop
  1031                          ; ---------------------------------
  1032                          _nop:
  1033  0080  00                	NOP
  1034  0081  c9                	ret
  1035                          	SECTION code_compiler
  1036                          ;	---------------------------------
  1037                          ; Function NABU_DisableInterrupts
  1038                          ; ---------------------------------
  1039                          _NABU_DisableInterrupts:
  1040  0082  f3                	di
  1041  0083  c9                	ret
  1042                          	SECTION code_compiler
  1043                          ;	---------------------------------
  1044                          ; Function NABU_EnableInterrupts
  1045                          ; ---------------------------------
  1046                          _NABU_EnableInterrupts:
  1047  0084  fb                	ei
  1048  0085  c9                	ret
  1049                          	SECTION code_compiler
  1050                          ;	---------------------------------
  1051                          ; Function RightShift
  1052                          ; ---------------------------------
  1053                          _RightShift:
  1054  0086  dde5              	push	ix
  1055  0088  dd210000          	ld	ix,0
  1056  008c  dd39              	add	ix,sp
  1057  008e  f5                	push	af
  1058  008f  f5                	push	af
  1059  0090  dd4e00            	ld	c,(ix+6)
  1060  0093  dd4600            	ld	b,(ix+7)
  1061  0096  0b                	dec	bc
  1062  0097  dd6e00            	ld	l,(ix+4)
  1063  009a  dd6600            	ld	h,(ix+5)
  1064  009d  09                	add	hl, bc
  1065  009e  eb                	ex	de, hl
  1066  009f  dd4e00            	ld	c,(ix+8)
  1067  00a2  0600              	ld	b,0x00
  1068  00a4  7b                	ld	a, e
  1069  00a5  91                	sub	a, c
  1070  00a6  dd7700            	ld	(ix-2),a
  1071  00a9  7a                	ld	a, d
  1072  00aa  98                	sbc	a, b
  1073  00ab  dd7700            	ld	(ix-1),a
  1074  00ae  dd7e00            	ld	a,(ix+4)
  1075  00b1  c600              	add	a,0xff
  1076  00b3  dd7700            	ld	(ix-4),a
  1077  00b6  dd7e00            	ld	a,(ix+5)
  1078  00b9  ce00              	adc	a,0xff
  1079  00bb  dd7700            	ld	(ix-3),a
  1080                          l_RightShift_00101:
  1081  00be  dd7e00            	ld	a,(ix-2)
  1082  00c1  dd9600            	sub	a,(ix-4)
  1083  00c4  2000              	jr	NZ,l_RightShift_00131
  1084  00c6  dd7e00            	ld	a,(ix-1)
  1085  00c9  dd9600            	sub	a,(ix-3)
  1086  00cc  2800              	jr	Z,l_RightShift_00103
  1087                          l_RightShift_00131:
  1088  00ce  dd6e00            	ld	l,(ix-2)
  1089  00d1  dd6600            	ld	h,(ix-1)
  1090  00d4  7e                	ld	a, (hl)
  1091  00d5  12                	ld	(de), a
  1092  00d6  1b                	dec	de
  1093  00d7  dd6e00            	ld	l,(ix-2)
  1094  00da  dd6600            	ld	h,(ix-1)
  1095  00dd  2b                	dec	hl
  1096  00de  dd7500            	ld	(ix-2),l
  1097  00e1  dd7400            	ld	(ix-1),h
  1098  00e4  1800              	jr	l_RightShift_00101
  1099                          l_RightShift_00103:
  1100  00e6  0b                	dec	bc
  1101  00e7  dd6e00            	ld	l,(ix+4)
  1102  00ea  dd6600            	ld	h,(ix+5)
  1103  00ed  09                	add	hl, bc
  1104                          l_RightShift_00104:
  1105  00ee  7d                	ld	a, l
  1106  00ef  dd9600            	sub	a,(ix-4)
  1107  00f2  2000              	jr	NZ,l_RightShift_00132
  1108  00f4  7c                	ld	a, h
  1109  00f5  dd9600            	sub	a,(ix-3)
  1110  00f8  2800              	jr	Z,l_RightShift_00107
  1111                          l_RightShift_00132:
  1112  00fa  3600              	ld	(hl),0x20
  1113  00fc  2b                	dec	hl
  1114  00fd  1800              	jr	l_RightShift_00104
  1115                          l_RightShift_00107:
  1116  00ff  ddf9              	ld	sp, ix
  1117  0101  dde1              	pop	ix
  1118  0103  c9                	ret
  1119                          	SECTION code_compiler
  1120                          ;	---------------------------------
  1121                          ; Function isrHCCARX
  1122                          ; ---------------------------------
  1123                          _isrHCCARX:
  1124  0104  d9                	exx
  1125  0105  f5                	push	af
  1126  0106  010000            	ld	bc, __rxBuffer+0
  1127  0109  2a0000            	ld	hl, (__rxBufferWritePos)
  1128  010c  2600              	ld	h, 0x00
  1129  010e  09                	add	hl, bc
  1130  010f  db00              	in	a, (_IO_HCCA)
  1131  0111  77                	ld	(hl), a
  1132  0112  3a0000            	ld	a, (__rxBufferWritePos+0)
  1133  0115  3c                	inc	a
  1134  0116  320000            	ld	(__rxBufferWritePos+0), a
  1135  0119  f1                	pop	af
  1136  011a  d9                	exx
  1137  011b  fb                	ei
  1138  011c  ed4d              	reti
  1139                          ;	---------------------------------
  1140                          ; Function isrKeyboard
  1141                          ; ---------------------------------
  1142                          _isrKeyboard:
  1143  011e  f5                	push	af
  1144  011f  fde5              	push	iy
  1145  0121  fd210000          	ld	iy, 0
  1146  0125  d9                	exx
  1147  0126  db00              	in	a, (_IO_KEYBOARD)
  1148  0128  4f                	ld	c,a
  1149  0129  d600              	sub	a,0x80
  1150  012b  3800              	jr	C,l_isrKeyboard_00111
  1151  012d  3e00              	ld	a,0x83
  1152  012f  91                	sub	a, c
  1153  0130  3800              	jr	C,l_isrKeyboard_00111
  1154  0132  fd210000          	ld	iy,__lastKeyboardIntVal
  1155  0136  fd7100            	ld	(iy+0),c
  1156  0139  1800              	jr	l_isrKeyboard_00112
  1157                          l_isrKeyboard_00111:
  1158  013b  79                	ld	a, c
  1159  013c  d600              	sub	a,0x90
  1160  013e  3800              	jr	C,l_isrKeyboard_00107
  1161  0140  3e00              	ld	a,0x95
  1162  0142  91                	sub	a, c
  1163  0143  3000              	jr	NC,l_isrKeyboard_00112
  1164                          l_isrKeyboard_00107:
  1165  0145  3a0000            	ld	a, (__lastKeyboardIntVal+0)
  1166  0148  fe00              	cp	a,0x80
  1167  014a  2800              	jr	Z,l_isrKeyboard_00101
  1168  014c  fe00              	cp	a,0x81
  1169  014e  2800              	jr	Z,l_isrKeyboard_00102
  1170  0150  fe00              	cp	a,0x82
  1171  0152  2800              	jr	Z,l_isrKeyboard_00103
  1172  0154  d600              	sub	a,0x83
  1173  0156  2800              	jr	Z,l_isrKeyboard_00104
  1174  0158  1800              	jr	l_isrKeyboard_00105
  1175                          l_isrKeyboard_00101:
  1176  015a  fd210000          	ld	iy,__lastKeyboardIntVal
  1177  015e  fd360000          	ld	(iy+0),0x00
  1178  0162  210000            	ld	hl,__joyStatus
  1179  0165  71                	ld	(hl), c
  1180  0166  1800              	jr	l_isrKeyboard_00112
  1181                          l_isrKeyboard_00102:
  1182  0168  fd210000          	ld	iy,__lastKeyboardIntVal
  1183  016c  fd360000          	ld	(iy+0),0x00
  1184  0170  210000            	ld	hl, +(__joyStatus + 1)
  1185  0173  71                	ld	(hl), c
  1186  0174  1800              	jr	l_isrKeyboard_00112
  1187                          l_isrKeyboard_00103:
  1188  0176  fd210000          	ld	iy,__lastKeyboardIntVal
  1189  017a  fd360000          	ld	(iy+0),0x00
  1190  017e  210000            	ld	hl, +(__joyStatus + 2)
  1191  0181  71                	ld	(hl), c
  1192  0182  1800              	jr	l_isrKeyboard_00112
  1193                          l_isrKeyboard_00104:
  1194  0184  fd210000          	ld	iy,__lastKeyboardIntVal
  1195  0188  fd360000          	ld	(iy+0),0x00
  1196  018c  210000            	ld	hl, +(__joyStatus + 3)
  1197  018f  71                	ld	(hl), c
  1198  0190  1800              	jr	l_isrKeyboard_00112
  1199                          l_isrKeyboard_00105:
  1200  0192  210000            	ld	hl,__kbdBuffer+0
  1201  0195  ed5b0000          	ld	de, (__kbdBufferWritePos)
  1202  0199  1600              	ld	d,0x00
  1203  019b  19                	add	hl, de
  1204  019c  71                	ld	(hl), c
  1205  019d  3a0000            	ld	a, (__kbdBufferWritePos+0)
  1206  01a0  3c                	inc	a
  1207  01a1  320000            	ld	(__kbdBufferWritePos+0), a
  1208                          l_isrKeyboard_00112:
  1209  01a4  d9                	exx
  1210  01a5  fde1              	pop	iy
  1211  01a7  f1                	pop	af
  1212  01a8  fb                	ei
  1213  01a9  ed4d              	reti
  1214                          ;	---------------------------------
  1215                          ; Function vt_clearToEndOfScreen
  1216                          ; ---------------------------------
  1217                          _vt_clearToEndOfScreen:
  1218  01ab  210000            	ld	hl,0x001b
  1219  01ae  e5                	push	hl
  1220  01af  210000            	ld	hl,___str_0
  1221  01b2  e5                	push	hl
  1222  01b3  cd0000            	call	_printf
  1223  01b6  f1                	pop	af
  1224  01b7  f1                	pop	af
  1225  01b8  c9                	ret
  1226                          	SECTION rodata_compiler
  1227                          ___str_0:
  1228  0091  25634a            	DEFM "%cJ"
  1229  0094  00                	DEFB 0x00
  1230                          	SECTION code_compiler
  1231                          ;	---------------------------------
  1232                          ; Function vt_clearToEndOfLine
  1233                          ; ---------------------------------
  1234                          _vt_clearToEndOfLine:
  1235  01b9  210000            	ld	hl,0x001b
  1236  01bc  e5                	push	hl
  1237  01bd  210000            	ld	hl,___str_1
  1238  01c0  e5                	push	hl
  1239  01c1  cd0000            	call	_printf
  1240  01c4  f1                	pop	af
  1241  01c5  f1                	pop	af
  1242  01c6  c9                	ret
  1243                          	SECTION rodata_compiler
  1244                          ___str_1:
  1245  0095  25634b            	DEFM "%cK"
  1246  0098  00                	DEFB 0x00
  1247                          	SECTION code_compiler
  1248                          ;	---------------------------------
  1249                          ; Function vt_clearScreen
  1250                          ; ---------------------------------
  1251                          _vt_clearScreen:
  1252  01c7  3a0000            	ld	a, (__EMULATION_MODE+0)
  1253  01ca  b7                	or	a, a
  1254  01cb  2000              	jr	NZ,l_vt_clearScreen_00102
  1255  01cd  210000            	ld	hl,0x001a
  1256  01d0  e5                	push	hl
  1257  01d1  210000            	ld	hl, +(__sgoioblk + 10)
  1258  01d4  e5                	push	hl
  1259  01d5  cd0000            	call	_fputc_callee
  1260  01d8  1800              	jr	l_vt_clearScreen_00104
  1261                          l_vt_clearScreen_00102:
  1262  01da  210000            	ld	hl,0x001b
  1263  01dd  e5                	push	hl
  1264  01de  210000            	ld	hl,___str_2
  1265  01e1  e5                	push	hl
  1266  01e2  cd0000            	call	_printf
  1267  01e5  f1                	pop	af
  1268  01e6  f1                	pop	af
  1269                          l_vt_clearScreen_00104:
  1270  01e7  c9                	ret
  1271                          	SECTION rodata_compiler
  1272                          ___str_2:
  1273  0099  256345            	DEFM "%cE"
  1274  009c  00                	DEFB 0x00
  1275                          	SECTION code_compiler
  1276                          ;	---------------------------------
  1277                          ; Function vt_clearLine
  1278                          ; ---------------------------------
  1279                          _vt_clearLine:
  1280  01e8  210000            	ld	hl,0x001b
  1281  01eb  e5                	push	hl
  1282  01ec  210000            	ld	hl,___str_3
  1283  01ef  e5                	push	hl
  1284  01f0  cd0000            	call	_printf
  1285  01f3  f1                	pop	af
  1286  01f4  f1                	pop	af
  1287  01f5  c9                	ret
  1288                          	SECTION rodata_compiler
  1289                          ___str_3:
  1290  009d  25636c            	DEFM "%cl"
  1291  00a0  00                	DEFB 0x00
  1292                          	SECTION code_compiler
  1293                          ;	---------------------------------
  1294                          ; Function vt_clearToStartOfLine
  1295                          ; ---------------------------------
  1296                          _vt_clearToStartOfLine:
  1297  01f6  210000            	ld	hl,0x001b
  1298  01f9  e5                	push	hl
  1299  01fa  210000            	ld	hl,___str_4
  1300  01fd  e5                	push	hl
  1301  01fe  cd0000            	call	_printf
  1302  0201  f1                	pop	af
  1303  0202  f1                	pop	af
  1304  0203  c9                	ret
  1305                          	SECTION rodata_compiler
  1306                          ___str_4:
  1307  00a1  25636f            	DEFM "%co"
  1308  00a4  00                	DEFB 0x00
  1309                          	SECTION code_compiler
  1310                          ;	---------------------------------
  1311                          ; Function vt_clearToStartOfScreen
  1312                          ; ---------------------------------
  1313                          _vt_clearToStartOfScreen:
  1314  0204  210000            	ld	hl,0x001b
  1315  0207  e5                	push	hl
  1316  0208  210000            	ld	hl,___str_5
  1317  020b  e5                	push	hl
  1318  020c  cd0000            	call	_printf
  1319  020f  f1                	pop	af
  1320  0210  f1                	pop	af
  1321  0211  c9                	ret
  1322                          	SECTION rodata_compiler
  1323                          ___str_5:
  1324  00a5  256364            	DEFM "%cd"
  1325  00a8  00                	DEFB 0x00
  1326                          	SECTION code_compiler
  1327                          ;	---------------------------------
  1328                          ; Function vt_moveCursorDown
  1329                          ; ---------------------------------
  1330                          _vt_moveCursorDown:
  1331  0212  0e00              	ld	c,0x00
  1332                          l_vt_moveCursorDown_00103:
  1333  0214  210000            	ld	hl,2
  1334  0217  39                	add	hl, sp
  1335  0218  79                	ld	a, c
  1336  0219  96                	sub	a, (hl)
  1337  021a  d0                	ret	NC
  1338  021b  c5                	push	bc
  1339  021c  210000            	ld	hl,0x001b
  1340  021f  e5                	push	hl
  1341  0220  210000            	ld	hl,___str_6
  1342  0223  e5                	push	hl
  1343  0224  cd0000            	call	_printf
  1344  0227  f1                	pop	af
  1345  0228  f1                	pop	af
  1346  0229  c1                	pop	bc
  1347  022a  0c                	inc	c
  1348  022b  1800              	jr	l_vt_moveCursorDown_00103
  1349                          	SECTION rodata_compiler
  1350                          ___str_6:
  1351  00a9  256342            	DEFM "%cB"
  1352  00ac  00                	DEFB 0x00
  1353                          	SECTION code_compiler
  1354                          ;	---------------------------------
  1355                          ; Function vt_cursorHome
  1356                          ; ---------------------------------
  1357                          _vt_cursorHome:
  1358  022d  210000            	ld	hl,0x001b
  1359  0230  e5                	push	hl
  1360  0231  210000            	ld	hl,___str_7
  1361  0234  e5                	push	hl
  1362  0235  cd0000            	call	_printf
  1363  0238  f1                	pop	af
  1364  0239  f1                	pop	af
  1365  023a  c9                	ret
  1366                          	SECTION rodata_compiler
  1367                          ___str_7:
  1368  00ad  256348            	DEFM "%cH"
  1369  00b0  00                	DEFB 0x00
  1370                          	SECTION code_compiler
  1371                          ;	---------------------------------
  1372                          ; Function vt_moveCursorLeft
  1373                          ; ---------------------------------
  1374                          _vt_moveCursorLeft:
  1375  023b  0e00              	ld	c,0x00
  1376                          l_vt_moveCursorLeft_00103:
  1377  023d  210000            	ld	hl,2
  1378  0240  39                	add	hl, sp
  1379  0241  79                	ld	a, c
  1380  0242  96                	sub	a, (hl)
  1381  0243  d0                	ret	NC
  1382  0244  c5                	push	bc
  1383  0245  210000            	ld	hl,0x001b
  1384  0248  e5                	push	hl
  1385  0249  210000            	ld	hl,___str_8
  1386  024c  e5                	push	hl
  1387  024d  cd0000            	call	_printf
  1388  0250  f1                	pop	af
  1389  0251  f1                	pop	af
  1390  0252  c1                	pop	bc
  1391  0253  0c                	inc	c
  1392  0254  1800              	jr	l_vt_moveCursorLeft_00103
  1393                          	SECTION rodata_compiler
  1394                          ___str_8:
  1395  00b1  256344            	DEFM "%cD"
  1396  00b4  00                	DEFB 0x00
  1397                          	SECTION code_compiler
  1398                          ;	---------------------------------
  1399                          ; Function vt_moveCursorRight
  1400                          ; ---------------------------------
  1401                          _vt_moveCursorRight:
  1402  0256  0e00              	ld	c,0x00
  1403                          l_vt_moveCursorRight_00103:
  1404  0258  210000            	ld	hl,2
  1405  025b  39                	add	hl, sp
  1406  025c  79                	ld	a, c
  1407  025d  96                	sub	a, (hl)
  1408  025e  d0                	ret	NC
  1409  025f  c5                	push	bc
  1410  0260  210000            	ld	hl,0x001b
  1411  0263  e5                	push	hl
  1412  0264  210000            	ld	hl,___str_9
  1413  0267  e5                	push	hl
  1414  0268  cd0000            	call	_printf
  1415  026b  f1                	pop	af
  1416  026c  f1                	pop	af
  1417  026d  c1                	pop	bc
  1418  026e  0c                	inc	c
  1419  026f  1800              	jr	l_vt_moveCursorRight_00103
  1420                          	SECTION rodata_compiler
  1421                          ___str_9:
  1422  00b5  256343            	DEFM "%cC"
  1423  00b8  00                	DEFB 0x00
  1424                          	SECTION code_compiler
  1425                          ;	---------------------------------
  1426                          ; Function vt_moveCursorUp
  1427                          ; ---------------------------------
  1428                          _vt_moveCursorUp:
  1429  0271  0e00              	ld	c,0x00
  1430                          l_vt_moveCursorUp_00103:
  1431  0273  210000            	ld	hl,2
  1432  0276  39                	add	hl, sp
  1433  0277  79                	ld	a, c
  1434  0278  96                	sub	a, (hl)
  1435  0279  d0                	ret	NC
  1436  027a  c5                	push	bc
  1437  027b  210000            	ld	hl,0x001b
  1438  027e  e5                	push	hl
  1439  027f  210000            	ld	hl,___str_10
  1440  0282  e5                	push	hl
  1441  0283  cd0000            	call	_printf
  1442  0286  f1                	pop	af
  1443  0287  f1                	pop	af
  1444  0288  c1                	pop	bc
  1445  0289  0c                	inc	c
  1446  028a  1800              	jr	l_vt_moveCursorUp_00103
  1447                          	SECTION rodata_compiler
  1448                          ___str_10:
  1449  00b9  256341            	DEFM "%cA"
  1450  00bc  00                	DEFB 0x00
  1451                          	SECTION code_compiler
  1452                          ;	---------------------------------
  1453                          ; Function vt_deleteLine
  1454                          ; ---------------------------------
  1455                          _vt_deleteLine:
  1456  028c  210000            	ld	hl,0x001b
  1457  028f  e5                	push	hl
  1458  0290  210000            	ld	hl,___str_11
  1459  0293  e5                	push	hl
  1460  0294  cd0000            	call	_printf
  1461  0297  f1                	pop	af
  1462  0298  f1                	pop	af
  1463  0299  c9                	ret
  1464                          	SECTION rodata_compiler
  1465                          ___str_11:
  1466  00bd  25634d            	DEFM "%cM"
  1467  00c0  00                	DEFB 0x00
  1468                          	SECTION code_compiler
  1469                          ;	---------------------------------
  1470                          ; Function vt_setCursor
  1471                          ; ---------------------------------
  1472                          _vt_setCursor:
  1473  029a  dde5              	push	ix
  1474  029c  dd210000          	ld	ix,0
  1475  02a0  dd39              	add	ix,sp
  1476  02a2  210000            	ld	hl,0x001b
  1477  02a5  e5                	push	hl
  1478  02a6  210000            	ld	hl, +(__sgoioblk + 10)
  1479  02a9  e5                	push	hl
  1480  02aa  cd0000            	call	_fputc_callee
  1481  02ad  3a0000            	ld	a, (__EMULATION_MODE+0)
  1482  02b0  b7                	or	a, a
  1483  02b1  2000              	jr	NZ,l_vt_setCursor_00102
  1484  02b3  210000            	ld	hl,0x003d
  1485  02b6  e5                	push	hl
  1486  02b7  210000            	ld	hl, +(__sgoioblk + 10)
  1487  02ba  e5                	push	hl
  1488  02bb  cd0000            	call	_fputc_callee
  1489  02be  1800              	jr	l_vt_setCursor_00103
  1490                          l_vt_setCursor_00102:
  1491  02c0  210000            	ld	hl,0x0059
  1492  02c3  e5                	push	hl
  1493  02c4  210000            	ld	hl, +(__sgoioblk + 10)
  1494  02c7  e5                	push	hl
  1495  02c8  cd0000            	call	_fputc_callee
  1496                          l_vt_setCursor_00103:
  1497  02cb  dd4e00            	ld	c,(ix+5)
  1498  02ce  0600              	ld	b,0x00
  1499  02d0  210000            	ld	hl,0x0020
  1500  02d3  09                	add	hl, bc
  1501  02d4  e5                	push	hl
  1502  02d5  210000            	ld	hl, +(__sgoioblk + 10)
  1503  02d8  e5                	push	hl
  1504  02d9  cd0000            	call	_fputc_callee
  1505  02dc  dd4e00            	ld	c,(ix+4)
  1506  02df  0600              	ld	b,0x00
  1507  02e1  210000            	ld	hl,0x0020
  1508  02e4  09                	add	hl, bc
  1509  02e5  e5                	push	hl
  1510  02e6  210000            	ld	hl, +(__sgoioblk + 10)
  1511  02e9  e5                	push	hl
  1512  02ea  cd0000            	call	_fputc_callee
  1513  02ed  dde1              	pop	ix
  1514  02ef  c9                	ret
  1515                          	SECTION code_compiler
  1516                          ;	---------------------------------
  1517                          ; Function vt_foregroundColor
  1518                          ; ---------------------------------
  1519                          _vt_foregroundColor:
  1520  02f0  dde5              	push	ix
  1521  02f2  dd210000          	ld	ix,0
  1522  02f6  dd39              	add	ix,sp
  1523  02f8  210000            	ld	hl,0x001b
  1524  02fb  e5                	push	hl
  1525  02fc  210000            	ld	hl, +(__sgoioblk + 10)
  1526  02ff  e5                	push	hl
  1527  0300  cd0000            	call	_fputc_callee
  1528  0303  210000            	ld	hl,0x0062
  1529  0306  e5                	push	hl
  1530  0307  210000            	ld	hl, +(__sgoioblk + 10)
  1531  030a  e5                	push	hl
  1532  030b  cd0000            	call	_fputc_callee
  1533  030e  dd4e00            	ld	c,(ix+4)
  1534  0311  0600              	ld	b,0x00
  1535  0313  c5                	push	bc
  1536  0314  210000            	ld	hl, +(__sgoioblk + 10)
  1537  0317  e5                	push	hl
  1538  0318  cd0000            	call	_fputc_callee
  1539  031b  dde1              	pop	ix
  1540  031d  c9                	ret
  1541                          	SECTION code_compiler
  1542                          ;	---------------------------------
  1543                          ; Function vt_insertLine
  1544                          ; ---------------------------------
  1545                          _vt_insertLine:
  1546  031e  210000            	ld	hl,0x001b
  1547  0321  e5                	push	hl
  1548  0322  210000            	ld	hl,___str_12
  1549  0325  e5                	push	hl
  1550  0326  cd0000            	call	_printf
  1551  0329  f1                	pop	af
  1552  032a  f1                	pop	af
  1553  032b  c9                	ret
  1554                          	SECTION rodata_compiler
  1555                          ___str_12:
  1556  00c1  25634c            	DEFM "%cL"
  1557  00c4  00                	DEFB 0x00
  1558                          	SECTION code_compiler
  1559                          ;	---------------------------------
  1560                          ; Function vt_restoreCursorPosition
  1561                          ; ---------------------------------
  1562                          _vt_restoreCursorPosition:
  1563  032c  210000            	ld	hl,0x001b
  1564  032f  e5                	push	hl
  1565  0330  210000            	ld	hl,___str_13
  1566  0333  e5                	push	hl
  1567  0334  cd0000            	call	_printf
  1568  0337  f1                	pop	af
  1569  0338  f1                	pop	af
  1570  0339  c9                	ret
  1571                          	SECTION rodata_compiler
  1572                          ___str_13:
  1573  00c5  25636b            	DEFM "%ck"
  1574  00c8  00                	DEFB 0x00
  1575                          	SECTION code_compiler
  1576                          ;	---------------------------------
  1577                          ; Function vt_backgroundColor
  1578                          ; ---------------------------------
  1579                          _vt_backgroundColor:
  1580  033a  dde5              	push	ix
  1581  033c  dd210000          	ld	ix,0
  1582  0340  dd39              	add	ix,sp
  1583  0342  210000            	ld	hl,0x001b
  1584  0345  e5                	push	hl
  1585  0346  210000            	ld	hl, +(__sgoioblk + 10)
  1586  0349  e5                	push	hl
  1587  034a  cd0000            	call	_fputc_callee
  1588  034d  210000            	ld	hl,0x0063
  1589  0350  e5                	push	hl
  1590  0351  210000            	ld	hl, +(__sgoioblk + 10)
  1591  0354  e5                	push	hl
  1592  0355  cd0000            	call	_fputc_callee
  1593  0358  dd4e00            	ld	c,(ix+4)
  1594  035b  0600              	ld	b,0x00
  1595  035d  c5                	push	bc
  1596  035e  210000            	ld	hl, +(__sgoioblk + 10)
  1597  0361  e5                	push	hl
  1598  0362  cd0000            	call	_fputc_callee
  1599  0365  dde1              	pop	ix
  1600  0367  c9                	ret
  1601                          	SECTION code_compiler
  1602                          ;	---------------------------------
  1603                          ; Function vt_saveCursorPosition
  1604                          ; ---------------------------------
  1605                          _vt_saveCursorPosition:
  1606  0368  210000            	ld	hl,0x001b
  1607  036b  e5                	push	hl
  1608  036c  210000            	ld	hl,___str_14
  1609  036f  e5                	push	hl
  1610  0370  cd0000            	call	_printf
  1611  0373  f1                	pop	af
  1612  0374  f1                	pop	af
  1613  0375  c9                	ret
  1614                          	SECTION rodata_compiler
  1615                          ___str_14:
  1616  00c9  25636a            	DEFM "%cj"
  1617  00cc  00                	DEFB 0x00
  1618                          	SECTION code_compiler
  1619                          ;	---------------------------------
  1620                          ; Function vt_cursorUpAndInsert
  1621                          ; ---------------------------------
  1622                          _vt_cursorUpAndInsert:
  1623  0376  210000            	ld	hl,0x001b
  1624  0379  e5                	push	hl
  1625  037a  210000            	ld	hl,___str_15
  1626  037d  e5                	push	hl
  1627  037e  cd0000            	call	_printf
  1628  0381  f1                	pop	af
  1629  0382  f1                	pop	af
  1630  0383  c9                	ret
  1631                          	SECTION rodata_compiler
  1632                          ___str_15:
  1633  00cd  256349            	DEFM "%cI"
  1634  00d0  00                	DEFB 0x00
  1635                          	SECTION code_compiler
  1636                          ;	---------------------------------
  1637                          ; Function vt_wrapOff
  1638                          ; ---------------------------------
  1639                          _vt_wrapOff:
  1640  0384  210000            	ld	hl,0x001b
  1641  0387  e5                	push	hl
  1642  0388  210000            	ld	hl,___str_16
  1643  038b  e5                	push	hl
  1644  038c  cd0000            	call	_printf
  1645  038f  f1                	pop	af
  1646  0390  f1                	pop	af
  1647  0391  c9                	ret
  1648                          	SECTION rodata_compiler
  1649                          ___str_16:
  1650  00d1  256377            	DEFM "%cw"
  1651  00d4  00                	DEFB 0x00
  1652                          	SECTION code_compiler
  1653                          ;	---------------------------------
  1654                          ; Function vt_wrapOn
  1655                          ; ---------------------------------
  1656                          _vt_wrapOn:
  1657  0392  210000            	ld	hl,0x001b
  1658  0395  e5                	push	hl
  1659  0396  210000            	ld	hl,___str_17
  1660  0399  e5                	push	hl
  1661  039a  cd0000            	call	_printf
  1662  039d  f1                	pop	af
  1663  039e  f1                	pop	af
  1664  039f  c9                	ret
  1665                          	SECTION rodata_compiler
  1666                          ___str_17:
  1667  00d5  256376            	DEFM "%cv"
  1668  00d8  00                	DEFB 0x00
  1669                          	SECTION code_compiler
  1670                          ;	---------------------------------
  1671                          ; Function vt_normalVideo
  1672                          ; ---------------------------------
  1673                          _vt_normalVideo:
  1674  03a0  210000            	ld	hl,0x001b
  1675  03a3  e5                	push	hl
  1676  03a4  210000            	ld	hl,___str_18
  1677  03a7  e5                	push	hl
  1678  03a8  cd0000            	call	_printf
  1679  03ab  f1                	pop	af
  1680  03ac  f1                	pop	af
  1681  03ad  c9                	ret
  1682                          	SECTION rodata_compiler
  1683                          ___str_18:
  1684  00d9  256371            	DEFM "%cq"
  1685  00dc  00                	DEFB 0x00
  1686                          	SECTION code_compiler
  1687                          ;	---------------------------------
  1688                          ; Function vt_reverseVideo
  1689                          ; ---------------------------------
  1690                          _vt_reverseVideo:
  1691  03ae  210000            	ld	hl,0x001b
  1692  03b1  e5                	push	hl
  1693  03b2  210000            	ld	hl,___str_19
  1694  03b5  e5                	push	hl
  1695  03b6  cd0000            	call	_printf
  1696  03b9  f1                	pop	af
  1697  03ba  f1                	pop	af
  1698  03bb  c9                	ret
  1699                          	SECTION rodata_compiler
  1700                          ___str_19:
  1701  00dd  256370            	DEFM "%cp"
  1702  00e0  00                	DEFB 0x00
  1703                          	SECTION code_compiler
  1704                          ;	---------------------------------
  1705                          ; Function ayWrite
  1706                          ; ---------------------------------
  1707                          _ayWrite:
  1708  03bc  fd210000          	ld	iy,2
  1709  03c0  fd39              	add	iy, sp
  1710  03c2  fd7e00            	ld	a,(iy+0)
  1711  03c5  d300              	out	(_IO_AYLATCH), a
  1712  03c7  fd7e00            	ld	a,(iy+0+1)
  1713  03ca  d300              	out	(_IO_AYDATA), a
  1714  03cc  c9                	ret
  1715                          	SECTION code_compiler
  1716                          ;	---------------------------------
  1717                          ; Function ayRead
  1718                          ; ---------------------------------
  1719                          _ayRead:
  1720  03cd  210000            	ld	hl,2+0
  1721  03d0  39                	add	hl, sp
  1722  03d1  7e                	ld	a, (hl)
  1723  03d2  d300              	out	(_IO_AYLATCH), a
  1724  03d4  db00              	in	a, (_IO_AYDATA)
  1725  03d6  6f                	ld	l, a
  1726  03d7  c9                	ret
  1727                          	SECTION code_compiler
  1728                          ;	---------------------------------
  1729                          ; Function playNoteDelay
  1730                          ; ---------------------------------
  1731                          _playNoteDelay:
  1732  03d8  dde5              	push	ix
  1733  03da  dd210000          	ld	ix,0
  1734  03de  dd39              	add	ix,sp
  1735  03e0  dd5600            	ld	d,(ix+7)
  1736  03e3  1e00              	ld	e,0x0b
  1737  03e5  d5                	push	de
  1738  03e6  cd0000            	call	_ayWrite
  1739  03e9  f1                	pop	af
  1740  03ea  dd5600            	ld	d,(ix+6)
  1741  03ed  1e00              	ld	e,0x0c
  1742  03ef  d5                	push	de
  1743  03f0  cd0000            	call	_ayWrite
  1744  03f3  f1                	pop	af
  1745  03f4  dd7e00            	ld	a,(ix+4)
  1746  03f7  b7                	or	a, a
  1747  03f8  2800              	jr	Z,l_playNoteDelay_00101
  1748  03fa  dd7e00            	ld	a,(ix+4)
  1749  03fd  3d                	dec	a
  1750  03fe  2800              	jr	Z,l_playNoteDelay_00102
  1751  0400  dd7e00            	ld	a,(ix+4)
  1752  0403  d600              	sub	a,0x02
  1753  0405  ca0000            	jp	Z,l_playNoteDelay_00103
  1754  0408  c30000            	jp	l_playNoteDelay_00105
  1755                          l_playNoteDelay_00101:
  1756  040b  110000            	ld	de,0x1008
  1757  040e  d5                	push	de
  1758  040f  cd0000            	call	_ayWrite
  1759  0412  f1                	pop	af
  1760  0413  af                	xor	a, a
  1761  0414  57                	ld	d,a
  1762  0415  1e00              	ld	e,0x09
  1763  0417  d5                	push	de
  1764  0418  cd0000            	call	_ayWrite
  1765  041b  f1                	pop	af
  1766  041c  af                	xor	a, a
  1767  041d  57                	ld	d,a
  1768  041e  1e00              	ld	e,0x0a
  1769  0420  d5                	push	de
  1770  0421  cd0000            	call	_ayWrite
  1771  0424  f1                	pop	af
  1772  0425  010000            	ld	bc,__NOTES_FINE+0
  1773  0428  dd6e00            	ld	l,(ix+5)
  1774  042b  2600              	ld	h,0x00
  1775  042d  09                	add	hl, bc
  1776  042e  7e                	ld	a, (hl)
  1777  042f  f5                	push	af
  1778  0430  33                	inc	sp
  1779  0431  af                	xor	a, a
  1780  0432  f5                	push	af
  1781  0433  33                	inc	sp
  1782  0434  cd0000            	call	_ayWrite
  1783  0437  f1                	pop	af
  1784  0438  010000            	ld	bc,__NOTES_COURSE+0
  1785  043b  dd6e00            	ld	l,(ix+5)
  1786  043e  2600              	ld	h,0x00
  1787  0440  09                	add	hl, bc
  1788  0441  56                	ld	d, (hl)
  1789  0442  1e00              	ld	e,0x01
  1790  0444  d5                	push	de
  1791  0445  cd0000            	call	_ayWrite
  1792  0448  f1                	pop	af
  1793  0449  af                	xor	a, a
  1794  044a  57                	ld	d,a
  1795  044b  1e00              	ld	e,0x0d
  1796  044d  d5                	push	de
  1797  044e  cd0000            	call	_ayWrite
  1798  0451  f1                	pop	af
  1799  0452  c30000            	jp	l_playNoteDelay_00105
  1800                          l_playNoteDelay_00102:
  1801  0455  af                	xor	a, a
  1802  0456  57                	ld	d,a
  1803  0457  1e00              	ld	e,0x08
  1804  0459  d5                	push	de
  1805  045a  cd0000            	call	_ayWrite
  1806  045d  f1                	pop	af
  1807  045e  110000            	ld	de,0x1009
  1808  0461  d5                	push	de
  1809  0462  cd0000            	call	_ayWrite
  1810  0465  f1                	pop	af
  1811  0466  af                	xor	a, a
  1812  0467  57                	ld	d,a
  1813  0468  1e00              	ld	e,0x0a
  1814  046a  d5                	push	de
  1815  046b  cd0000            	call	_ayWrite
  1816  046e  f1                	pop	af
  1817  046f  010000            	ld	bc,__NOTES_FINE+0
  1818  0472  dd6e00            	ld	l,(ix+5)
  1819  0475  2600              	ld	h,0x00
  1820  0477  09                	add	hl, bc
  1821  0478  56                	ld	d, (hl)
  1822  0479  1e00              	ld	e,0x02
  1823  047b  d5                	push	de
  1824  047c  cd0000            	call	_ayWrite
  1825  047f  f1                	pop	af
  1826  0480  010000            	ld	bc,__NOTES_COURSE+0
  1827  0483  dd6e00            	ld	l,(ix+5)
  1828  0486  2600              	ld	h,0x00
  1829  0488  09                	add	hl, bc
  1830  0489  56                	ld	d, (hl)
  1831  048a  1e00              	ld	e,0x03
  1832  048c  d5                	push	de
  1833  048d  cd0000            	call	_ayWrite
  1834  0490  f1                	pop	af
  1835  0491  af                	xor	a, a
  1836  0492  57                	ld	d,a
  1837  0493  1e00              	ld	e,0x0d
  1838  0495  d5                	push	de
  1839  0496  cd0000            	call	_ayWrite
  1840  0499  f1                	pop	af
  1841  049a  1800              	jr	l_playNoteDelay_00105
  1842                          l_playNoteDelay_00103:
  1843  049c  af                	xor	a, a
  1844  049d  57                	ld	d,a
  1845  049e  1e00              	ld	e,0x08
  1846  04a0  d5                	push	de
  1847  04a1  cd0000            	call	_ayWrite
  1848  04a4  f1                	pop	af
  1849  04a5  af                	xor	a, a
  1850  04a6  57                	ld	d,a
  1851  04a7  1e00              	ld	e,0x09
  1852  04a9  d5                	push	de
  1853  04aa  cd0000            	call	_ayWrite
  1854  04ad  f1                	pop	af
  1855  04ae  110000            	ld	de,0x100a
  1856  04b1  d5                	push	de
  1857  04b2  cd0000            	call	_ayWrite
  1858  04b5  f1                	pop	af
  1859  04b6  010000            	ld	bc,__NOTES_FINE+0
  1860  04b9  dd6e00            	ld	l,(ix+5)
  1861  04bc  2600              	ld	h,0x00
  1862  04be  09                	add	hl, bc
  1863  04bf  56                	ld	d, (hl)
  1864  04c0  1e00              	ld	e,0x04
  1865  04c2  d5                	push	de
  1866  04c3  cd0000            	call	_ayWrite
  1867  04c6  f1                	pop	af
  1868  04c7  010000            	ld	bc,__NOTES_COURSE+0
  1869  04ca  dd6e00            	ld	l,(ix+5)
  1870  04cd  2600              	ld	h,0x00
  1871  04cf  09                	add	hl, bc
  1872  04d0  56                	ld	d, (hl)
  1873  04d1  1e00              	ld	e,0x05
  1874  04d3  d5                	push	de
  1875  04d4  cd0000            	call	_ayWrite
  1876  04d7  f1                	pop	af
  1877  04d8  af                	xor	a, a
  1878  04d9  57                	ld	d,a
  1879  04da  1e00              	ld	e,0x0d
  1880  04dc  d5                	push	de
  1881  04dd  cd0000            	call	_ayWrite
  1882  04e0  f1                	pop	af
  1883                          l_playNoteDelay_00105:
  1884  04e1  dde1              	pop	ix
  1885  04e3  c9                	ret
  1886                          	SECTION code_compiler
  1887                          ;	---------------------------------
  1888                          ; Function isKeyPressed
  1889                          ; ---------------------------------
  1890                          _isKeyPressed:
  1891  04e4  3a0000            	ld	a, (__kbdBufferWritePos+0)
  1892  04e7  fd210000          	ld	iy,__kbdBufferReadPos
  1893  04eb  fd9600            	sub	a,(iy+0)
  1894  04ee  2000              	jr	NZ,l_isKeyPressed_00103
  1895  04f0  3e00              	ld	a,0x01
  1896  04f2  1800              	jr	l_isKeyPressed_00104
  1897                          l_isKeyPressed_00103:
  1898  04f4  af                	xor	a,a
  1899                          l_isKeyPressed_00104:
  1900  04f5  ee00              	xor	a,0x01
  1901  04f7  6f                	ld	l, a
  1902  04f8  c9                	ret
  1903                          	SECTION code_compiler
  1904                          ;	---------------------------------
  1905                          ; Function getChar
  1906                          ; ---------------------------------
  1907                          _getChar:
  1908                          l_getChar_00101:
  1909  04f9  3a0000            	ld	a, (__kbdBufferWritePos+0)
  1910  04fc  fd210000          	ld	iy,__kbdBufferReadPos
  1911  0500  fd9600            	sub	a,(iy+0)
  1912  0503  2800              	jr	Z,l_getChar_00101
  1913  0505  010000            	ld	bc,__kbdBuffer+0
  1914  0508  2a0000            	ld	hl, (__kbdBufferReadPos)
  1915  050b  2600              	ld	h,0x00
  1916  050d  09                	add	hl, bc
  1917  050e  4e                	ld	c, (hl)
  1918  050f  3a0000            	ld	a, (__kbdBufferReadPos+0)
  1919  0512  3c                	inc	a
  1920  0513  320000            	ld	(__kbdBufferReadPos+0), a
  1921  0516  69                	ld	l, c
  1922  0517  c9                	ret
  1923                          	SECTION code_compiler
  1924                          ;	---------------------------------
  1925                          ; Function getJoyStatus
  1926                          ; ---------------------------------
  1927                          _getJoyStatus:
  1928  0518  3e00              	ld	a, +((__joyStatus) & 0xFF)
  1929  051a  210000            	ld	hl,2
  1930  051d  39                	add	hl, sp
  1931  051e  86                	add	a, (hl)
  1932  051f  6f                	ld	l, a
  1933  0520  3e00              	ld	a, +((__joyStatus) / 256)
  1934  0522  ce00              	adc	a,0x00
  1935  0524  67                	ld	h, a
  1936  0525  6e                	ld	l, (hl)
  1937  0526  c9                	ret
  1938                          	SECTION code_compiler
  1939                          ;	---------------------------------
  1940                          ; Function readLine
  1941                          ; ---------------------------------
  1942                          _readLine:
  1943  0527  dde5              	push	ix
  1944  0529  dd210000          	ld	ix,0
  1945  052d  dd39              	add	ix,sp
  1946  052f  0e00              	ld	c,0x00
  1947                          l_readLine_00120:
  1948  0531  c5                	push	bc
  1949  0532  cd0000            	call	_getChar
  1950  0535  5d                	ld	e, l
  1951  0536  c1                	pop	bc
  1952  0537  7b                	ld	a, e
  1953  0538  d600              	sub	a,0x0d
  1954  053a  ca0000            	jp	Z,l_readLine_00121
  1955  053d  79                	ld	a, c
  1956  053e  dd9600            	sub	a,(ix+6)
  1957  0541  3000              	jr	NC,l_readLine_00112
  1958  0543  7b                	ld	a, e
  1959  0544  d600              	sub	a,0x20
  1960  0546  3800              	jr	C,l_readLine_00112
  1961  0548  3e00              	ld	a,0x7e
  1962  054a  93                	sub	a, e
  1963  054b  3800              	jr	C,l_readLine_00112
  1964  054d  dd6e00            	ld	l,(ix+4)
  1965  0550  dd6600            	ld	h,(ix+5)
  1966  0553  0600              	ld	b,0x00
  1967  0555  09                	add	hl, bc
  1968  0556  73                	ld	(hl), e
  1969  0557  c5                	push	bc
  1970  0558  7b                	ld	a, e
  1971  0559  f5                	push	af
  1972  055a  33                	inc	sp
  1973  055b  cd0000            	call	_vdp_write
  1974  055e  33                	inc	sp
  1975  055f  c1                	pop	bc
  1976  0560  0c                	inc	c
  1977  0561  1800              	jr	l_readLine_00120
  1978                          l_readLine_00112:
  1979  0563  7b                	ld	a, e
  1980  0564  d600              	sub	a,0x7f
  1981  0566  2000              	jr	NZ,l_readLine_00175
  1982  0568  3e00              	ld	a,0x01
  1983  056a  1800              	jr	l_readLine_00176
  1984                          l_readLine_00175:
  1985  056c  af                	xor	a,a
  1986                          l_readLine_00176:
  1987  056d  47                	ld	b, a
  1988  056e  dd7e00            	ld	a,(ix+6)
  1989  0571  91                	sub	a, c
  1990  0572  2000              	jr	NZ,l_readLine_00108
  1991  0574  cb40              	bit	0, b
  1992  0576  2000              	jr	NZ,l_readLine_00108
  1993  0578  c5                	push	bc
  1994  0579  210000            	ld	hl,0x000a
  1995  057c  e5                	push	hl
  1996  057d  3e00              	ld	a,0x3c
  1997  057f  f5                	push	af
  1998  0580  33                	inc	sp
  1999  0581  af                	xor	a, a
  2000  0582  f5                	push	af
  2001  0583  33                	inc	sp
  2002  0584  cd0000            	call	_playNoteDelay
  2003  0587  f1                	pop	af
  2004  0588  f1                	pop	af
  2005  0589  c1                	pop	bc
  2006  058a  1800              	jr	l_readLine_00120
  2007                          l_readLine_00108:
  2008  058c  78                	ld	a, b
  2009  058d  b7                	or	a, a
  2010  058e  2800              	jr	Z,l_readLine_00120
  2011  0590  79                	ld	a, c
  2012  0591  b7                	or	a, a
  2013  0592  2800              	jr	Z,l_readLine_00120
  2014  0594  110000            	ld	de,_vdp_cursor+0
  2015  0597  1a                	ld	a, (de)
  2016  0598  b7                	or	a, a
  2017  0599  2000              	jr	NZ,l_readLine_00102
  2018  059b  3e00              	ld	a,0x27
  2019  059d  12                	ld	(de), a
  2020  059e  3a0000            	ld	a, ((_vdp_cursor + 1) + 0)
  2021  05a1  3d                	dec	a
  2022  05a2  320000            	ld	((_vdp_cursor + 1)),a
  2023  05a5  1800              	jr	l_readLine_00103
  2024                          l_readLine_00102:
  2025  05a7  3d                	dec	a
  2026  05a8  12                	ld	(de), a
  2027                          l_readLine_00103:
  2028  05a9  0d                	dec	c
  2029  05aa  3a0000            	ld	a, ((_vdp_cursor + 1) + 0)
  2030  05ad  210000            	ld	hl,_vdp_cursor + 0
  2031  05b0  46                	ld	b, (hl)
  2032  05b1  c5                	push	bc
  2033  05b2  2600              	ld	h,0x20
  2034  05b4  e5                	push	hl
  2035  05b5  33                	inc	sp
  2036  05b6  f5                	push	af
  2037  05b7  33                	inc	sp
  2038  05b8  c5                	push	bc
  2039  05b9  33                	inc	sp
  2040  05ba  cd0000            	call	_vdp_writeCharAtLocation
  2041  05bd  f1                	pop	af
  2042  05be  33                	inc	sp
  2043  05bf  c1                	pop	bc
  2044  05c0  c30000            	jp	l_readLine_00120
  2045                          l_readLine_00121:
  2046  05c3  69                	ld	l, c
  2047  05c4  dde1              	pop	ix
  2048  05c6  c9                	ret
  2049                          	SECTION code_compiler
  2050                          ;	---------------------------------
  2051                          ; Function hcca_ping
  2052                          ; ---------------------------------
  2053                          _hcca_ping:
  2054  05c7  3e00              	ld	a,0xa1
  2055  05c9  f5                	push	af
  2056  05ca  33                	inc	sp
  2057  05cb  cd0000            	call	_hcca_writeByte
  2058  05ce  33                	inc	sp
  2059  05cf  010000            	ld	bc,0x0000
  2060  05d2  110000            	ld	de,0x0000
  2061                          l_hcca_ping_00103:
  2062  05d5  3a0000            	ld	a, (__rxBufferWritePos+0)
  2063  05d8  fd210000          	ld	iy,__rxBufferReadPos
  2064  05dc  fd9600            	sub	a,(iy+0)
  2065  05df  2000              	jr	NZ,l_hcca_ping_00105
  2066  05e1  0c                	inc	c
  2067  05e2  2000              	jr	NZ,l_hcca_ping_00132
  2068  05e4  04                	inc	b
  2069  05e5  2000              	jr	NZ,l_hcca_ping_00132
  2070  05e7  13                	inc	de
  2071                          l_hcca_ping_00132:
  2072  05e8  79                	ld	a, c
  2073  05e9  d600              	sub	a,0x50
  2074  05eb  2000              	jr	NZ,l_hcca_ping_00103
  2075  05ed  78                	ld	a, b
  2076  05ee  d600              	sub	a,0xc3
  2077  05f0  b3                	or	a, e
  2078  05f1  b2                	or	a,d
  2079  05f2  2000              	jr	NZ,l_hcca_ping_00103
  2080  05f4  6f                	ld	l,a
  2081  05f5  1800              	jr	l_hcca_ping_00108
  2082                          l_hcca_ping_00105:
  2083  05f7  cd0000            	call	_hcca_readByte
  2084  05fa  7d                	ld	a, l
  2085  05fb  d600              	sub	a,0x55
  2086  05fd  2000              	jr	NZ,l_hcca_ping_00107
  2087  05ff  2e00              	ld	l,0x01
  2088  0601  1800              	jr	l_hcca_ping_00108
  2089                          l_hcca_ping_00107:
  2090  0603  2e00              	ld	l,0x00
  2091                          l_hcca_ping_00108:
  2092  0605  c9                	ret
  2093                          	SECTION code_compiler
  2094                          ;	---------------------------------
  2095                          ; Function hcca_isRxBufferAvailable
  2096                          ; ---------------------------------
  2097                          _hcca_isRxBufferAvailable:
  2098  0606  3a0000            	ld	a, (__rxBufferWritePos+0)
  2099  0609  fd210000          	ld	iy,__rxBufferReadPos
  2100  060d  fd9600            	sub	a,(iy+0)
  2101  0610  2000              	jr	NZ,l_hcca_isRxBufferAvailable_00103
  2102  0612  3e00              	ld	a,0x01
  2103  0614  1800              	jr	l_hcca_isRxBufferAvailable_00104
  2104                          l_hcca_isRxBufferAvailable_00103:
  2105  0616  af                	xor	a,a
  2106                          l_hcca_isRxBufferAvailable_00104:
  2107  0617  ee00              	xor	a,0x01
  2108  0619  6f                	ld	l, a
  2109  061a  c9                	ret
  2110                          	SECTION code_compiler
  2111                          ;	---------------------------------
  2112                          ; Function hcca_getSizeOfDataInBuffer
  2113                          ; ---------------------------------
  2114                          _hcca_getSizeOfDataInBuffer:
  2115  061b  3b                	dec	sp
  2116  061c  3a0000            	ld	a,(__rxBufferWritePos)
  2117  061f  fd210000          	ld	iy,__rxBufferReadPos
  2118  0623  fd9600            	sub	a,(iy+0)
  2119  0626  3000              	jr	NC,l_hcca_getSizeOfDataInBuffer_00102
  2120  0628  3a0000            	ld	a, (__rxBufferReadPos+0)
  2121  062b  4f                	ld	c, a
  2122  062c  210000            	ld	hl,0
  2123  062f  39                	add	hl, sp
  2124  0630  3e00              	ld	a,0xff
  2125  0632  91                	sub	a, c
  2126  0633  77                	ld	(hl), a
  2127  0634  3a0000            	ld	a, (__rxBufferWritePos+0)
  2128  0637  210000            	ld	hl,0
  2129  063a  39                	add	hl, sp
  2130  063b  86                	add	a, (hl)
  2131  063c  6f                	ld	l, a
  2132  063d  1800              	jr	l_hcca_getSizeOfDataInBuffer_00103
  2133                          l_hcca_getSizeOfDataInBuffer_00102:
  2134  063f  210000            	ld	hl,__rxBufferReadPos
  2135  0642  3a0000            	ld	a, (__rxBufferWritePos+0)
  2136  0645  96                	sub	a, (hl)
  2137  0646  6f                	ld	l, a
  2138                          l_hcca_getSizeOfDataInBuffer_00103:
  2139  0647  33                	inc	sp
  2140  0648  c9                	ret
  2141                          	SECTION code_compiler
  2142                          ;	---------------------------------
  2143                          ; Function hcca_readByte
  2144                          ; ---------------------------------
  2145                          _hcca_readByte:
  2146                          l_hcca_readByte_00101:
  2147  0649  3a0000            	ld	a, (__rxBufferWritePos+0)
  2148  064c  fd210000          	ld	iy,__rxBufferReadPos
  2149  0650  fd9600            	sub	a,(iy+0)
  2150  0653  2800              	jr	Z,l_hcca_readByte_00101
  2151  0655  010000            	ld	bc,__rxBuffer+0
  2152  0658  2a0000            	ld	hl, (__rxBufferReadPos)
  2153  065b  2600              	ld	h,0x00
  2154  065d  09                	add	hl, bc
  2155  065e  4e                	ld	c, (hl)
  2156  065f  3a0000            	ld	a, (__rxBufferReadPos+0)
  2157  0662  3c                	inc	a
  2158  0663  320000            	ld	(__rxBufferReadPos+0), a
  2159  0666  69                	ld	l, c
  2160  0667  c9                	ret
  2161                          	SECTION code_compiler
  2162                          ;	---------------------------------
  2163                          ; Function hcca_readUInt16
  2164                          ; ---------------------------------
  2165                          _hcca_readUInt16:
  2166  0668  cd0000            	call	_hcca_readByte
  2167  066b  4d                	ld	c, l
  2168  066c  0600              	ld	b,0x00
  2169  066e  c5                	push	bc
  2170  066f  cd0000            	call	_hcca_readByte
  2171  0672  c1                	pop	bc
  2172  0673  65                	ld	h, l
  2173  0674  2e00              	ld	l,0x00
  2174  0676  09                	add	hl, bc
  2175  0677  c9                	ret
  2176                          	SECTION code_compiler
  2177                          ;	---------------------------------
  2178                          ; Function hcca_readInt16
  2179                          ; ---------------------------------
  2180                          _hcca_readInt16:
  2181  0678  cd0000            	call	_hcca_readByte
  2182  067b  4d                	ld	c, l
  2183  067c  0600              	ld	b,0x00
  2184  067e  c5                	push	bc
  2185  067f  cd0000            	call	_hcca_readByte
  2186  0682  c1                	pop	bc
  2187  0683  65                	ld	h, l
  2188  0684  2e00              	ld	l,0x00
  2189  0686  09                	add	hl, bc
  2190  0687  c9                	ret
  2191                          	SECTION code_compiler
  2192                          ;	---------------------------------
  2193                          ; Function hcca_readUInt32
  2194                          ; ---------------------------------
  2195                          _hcca_readUInt32:
  2196  0688  dde5              	push	ix
  2197  068a  dd210000          	ld	ix,0
  2198  068e  dd39              	add	ix,sp
  2199  0690  f5                	push	af
  2200  0691  f5                	push	af
  2201  0692  cd0000            	call	_hcca_readByte
  2202  0695  dd7500            	ld	(ix-4),l
  2203  0698  cd0000            	call	_hcca_readByte
  2204  069b  dd7500            	ld	(ix-3),l
  2205  069e  cd0000            	call	_hcca_readByte
  2206  06a1  dd7500            	ld	(ix-2),l
  2207  06a4  cd0000            	call	_hcca_readByte
  2208  06a7  dd7500            	ld	(ix-1),l
  2209  06aa  e1                	pop	hl
  2210  06ab  e5                	push	hl
  2211  06ac  dd5e00            	ld	e,(ix-2)
  2212  06af  dd5600            	ld	d,(ix-1)
  2213  06b2  ddf9              	ld	sp, ix
  2214  06b4  dde1              	pop	ix
  2215  06b6  c9                	ret
  2216                          	SECTION code_compiler
  2217                          ;	---------------------------------
  2218                          ; Function hcca_readInt32
  2219                          ; ---------------------------------
  2220                          _hcca_readInt32:
  2221  06b7  dde5              	push	ix
  2222  06b9  dd210000          	ld	ix,0
  2223  06bd  dd39              	add	ix,sp
  2224  06bf  f5                	push	af
  2225  06c0  f5                	push	af
  2226  06c1  cd0000            	call	_hcca_readByte
  2227  06c4  dd7500            	ld	(ix-4),l
  2228  06c7  cd0000            	call	_hcca_readByte
  2229  06ca  dd7500            	ld	(ix-3),l
  2230  06cd  cd0000            	call	_hcca_readByte
  2231  06d0  dd7500            	ld	(ix-2),l
  2232  06d3  cd0000            	call	_hcca_readByte
  2233  06d6  dd7500            	ld	(ix-1),l
  2234  06d9  e1                	pop	hl
  2235  06da  e5                	push	hl
  2236  06db  dd5e00            	ld	e,(ix-2)
  2237  06de  dd5600            	ld	d,(ix-1)
  2238  06e1  ddf9              	ld	sp, ix
  2239  06e3  dde1              	pop	ix
  2240  06e5  c9                	ret
  2241                          	SECTION code_compiler
  2242                          ;	---------------------------------
  2243                          ; Function hcca_readBytes
  2244                          ; ---------------------------------
  2245                          _hcca_readBytes:
  2246  06e6  dde5              	push	ix
  2247  06e8  dd210000          	ld	ix,0
  2248  06ec  dd39              	add	ix,sp
  2249  06ee  dd7e00            	ld	a,(ix+8)
  2250  06f1  dd8600            	add	a,(ix+4)
  2251  06f4  4f                	ld	c, a
  2252  06f5  dd7e00            	ld	a,(ix+9)
  2253  06f8  dd8e00            	adc	a,(ix+5)
  2254  06fb  47                	ld	b, a
  2255  06fc  dd6e00            	ld	l,(ix+6)
  2256  06ff  dd6600            	ld	h,(ix+7)
  2257  0702  09                	add	hl, bc
  2258  0703  eb                	ex	de, hl
  2259                          l_hcca_readBytes_00101:
  2260  0704  3a0000            	ld	a, (__rxBufferWritePos+0)
  2261  0707  fd210000          	ld	iy,__rxBufferReadPos
  2262  070b  fd9600            	sub	a,(iy+0)
  2263  070e  2800              	jr	Z,l_hcca_readBytes_00101
  2264  0710  fd210000          	ld	iy,__rxBuffer
  2265  0714  c5                	push	bc
  2266  0715  ed4b0000          	ld	bc, (__rxBufferReadPos)
  2267  0719  0600              	ld	b,0x00
  2268  071b  fd09              	add	iy, bc
  2269  071d  c1                	pop	bc
  2270  071e  fd7e00            	ld	a,(iy+0)
  2271  0721  02                	ld	(bc), a
  2272  0722  03                	inc	bc
  2273  0723  3a0000            	ld	a, (__rxBufferReadPos+0)
  2274  0726  3c                	inc	a
  2275  0727  320000            	ld	(__rxBufferReadPos+0), a
  2276  072a  69                	ld	l, c
  2277  072b  60                	ld	h, b
  2278  072c  bf                	cp	a, a
  2279  072d  ed52              	sbc	hl, de
  2280  072f  2000              	jr	NZ,l_hcca_readBytes_00101
  2281  0731  dde1              	pop	ix
  2282  0733  c9                	ret
  2283                          	SECTION code_compiler
  2284                          ;	---------------------------------
  2285                          ; Function hcca_writeByte
  2286                          ; ---------------------------------
  2287                          _hcca_writeByte:
  2288  0734  cd0000            	call	_NABU_DisableInterrupts
  2289  0737  110000            	ld	de,0x400e
  2290  073a  d5                	push	de
  2291  073b  cd0000            	call	_ayWrite
  2292  073e  f1                	pop	af
  2293  073f  3e00              	ld	a,0x0f
  2294  0741  d300              	out	(_IO_AYLATCH), a
  2295                          l_hcca_writeByte_00101:
  2296  0743  db00              	in	a, (_IO_AYDATA)
  2297  0745  cb57              	bit	2, a
  2298  0747  2000              	jr	NZ,l_hcca_writeByte_00101
  2299  0749  210000            	ld	hl,2+0
  2300  074c  39                	add	hl, sp
  2301  074d  7e                	ld	a, (hl)
  2302  074e  d300              	out	(_IO_HCCA), a
  2303  0750  3a0000            	ld	a, (__ORIGINAL_INT_MASK+0)
  2304  0753  57                	ld	d,a
  2305  0754  1e00              	ld	e,0x0e
  2306  0756  d5                	push	de
  2307  0757  cd0000            	call	_ayWrite
  2308  075a  f1                	pop	af
  2309  075b  c30000            	jp	_NABU_EnableInterrupts
  2310                          	SECTION code_compiler
  2311                          ;	---------------------------------
  2312                          ; Function hcca_writeUInt32
  2313                          ; ---------------------------------
  2314                          _hcca_writeUInt32:
  2315  075e  210000            	ld	hl,2+0
  2316  0761  39                	add	hl, sp
  2317  0762  7e                	ld	a, (hl)
  2318  0763  f5                	push	af
  2319  0764  33                	inc	sp
  2320  0765  cd0000            	call	_hcca_writeByte
  2321  0768  33                	inc	sp
  2322  0769  210000            	ld	hl,2+1
  2323  076c  39                	add	hl, sp
  2324  076d  7e                	ld	a, (hl)
  2325  076e  f5                	push	af
  2326  076f  33                	inc	sp
  2327  0770  cd0000            	call	_hcca_writeByte
  2328  0773  33                	inc	sp
  2329  0774  210000            	ld	hl,2+2
  2330  0777  39                	add	hl, sp
  2331  0778  7e                	ld	a, (hl)
  2332  0779  f5                	push	af
  2333  077a  33                	inc	sp
  2334  077b  cd0000            	call	_hcca_writeByte
  2335  077e  33                	inc	sp
  2336  077f  210000            	ld	hl,2+3
  2337  0782  39                	add	hl, sp
  2338  0783  7e                	ld	a, (hl)
  2339  0784  f5                	push	af
  2340  0785  33                	inc	sp
  2341  0786  cd0000            	call	_hcca_writeByte
  2342  0789  33                	inc	sp
  2343  078a  c9                	ret
  2344                          	SECTION code_compiler
  2345                          ;	---------------------------------
  2346                          ; Function hcca_writeInt32
  2347                          ; ---------------------------------
  2348                          _hcca_writeInt32:
  2349  078b  210000            	ld	hl,2+0
  2350  078e  39                	add	hl, sp
  2351  078f  7e                	ld	a, (hl)
  2352  0790  f5                	push	af
  2353  0791  33                	inc	sp
  2354  0792  cd0000            	call	_hcca_writeByte
  2355  0795  33                	inc	sp
  2356  0796  210000            	ld	hl,2+1
  2357  0799  39                	add	hl, sp
  2358  079a  7e                	ld	a, (hl)
  2359  079b  f5                	push	af
  2360  079c  33                	inc	sp
  2361  079d  cd0000            	call	_hcca_writeByte
  2362  07a0  33                	inc	sp
  2363  07a1  210000            	ld	hl,2+2
  2364  07a4  39                	add	hl, sp
  2365  07a5  7e                	ld	a, (hl)
  2366  07a6  f5                	push	af
  2367  07a7  33                	inc	sp
  2368  07a8  cd0000            	call	_hcca_writeByte
  2369  07ab  33                	inc	sp
  2370  07ac  210000            	ld	hl,2+3
  2371  07af  39                	add	hl, sp
  2372  07b0  7e                	ld	a, (hl)
  2373  07b1  f5                	push	af
  2374  07b2  33                	inc	sp
  2375  07b3  cd0000            	call	_hcca_writeByte
  2376  07b6  33                	inc	sp
  2377  07b7  c9                	ret
  2378                          	SECTION code_compiler
  2379                          ;	---------------------------------
  2380                          ; Function hcca_writeUInt16
  2381                          ; ---------------------------------
  2382                          _hcca_writeUInt16:
  2383  07b8  210000            	ld	hl,2+0
  2384  07bb  39                	add	hl, sp
  2385  07bc  7e                	ld	a, (hl)
  2386  07bd  f5                	push	af
  2387  07be  33                	inc	sp
  2388  07bf  cd0000            	call	_hcca_writeByte
  2389  07c2  33                	inc	sp
  2390  07c3  210000            	ld	hl,2+1
  2391  07c6  39                	add	hl, sp
  2392  07c7  7e                	ld	a, (hl)
  2393  07c8  f5                	push	af
  2394  07c9  33                	inc	sp
  2395  07ca  cd0000            	call	_hcca_writeByte
  2396  07cd  33                	inc	sp
  2397  07ce  c9                	ret
  2398                          	SECTION code_compiler
  2399                          ;	---------------------------------
  2400                          ; Function hcca_writeInt16
  2401                          ; ---------------------------------
  2402                          _hcca_writeInt16:
  2403  07cf  210000            	ld	hl,2+0
  2404  07d2  39                	add	hl, sp
  2405  07d3  7e                	ld	a, (hl)
  2406  07d4  f5                	push	af
  2407  07d5  33                	inc	sp
  2408  07d6  cd0000            	call	_hcca_writeByte
  2409  07d9  33                	inc	sp
  2410  07da  210000            	ld	hl,2+1
  2411  07dd  39                	add	hl, sp
  2412  07de  7e                	ld	a, (hl)
  2413  07df  f5                	push	af
  2414  07e0  33                	inc	sp
  2415  07e1  cd0000            	call	_hcca_writeByte
  2416  07e4  33                	inc	sp
  2417  07e5  c9                	ret
  2418                          	SECTION code_compiler
  2419                          ;	---------------------------------
  2420                          ; Function hcca_writeString
  2421                          ; ---------------------------------
  2422                          _hcca_writeString:
  2423  07e6  010000            	ld	bc,0x0000
  2424                          l_hcca_writeString_00103:
  2425  07e9  210000            	ld	hl,2
  2426  07ec  39                	add	hl, sp
  2427  07ed  7e                	ld	a, (hl)
  2428  07ee  23                	inc	hl
  2429  07ef  66                	ld	h, (hl)
  2430  07f0  6f                	ld	l, a
  2431  07f1  09                	add	hl, bc
  2432  07f2  7e                	ld	a, (hl)
  2433  07f3  b7                	or	a, a
  2434  07f4  c8                	ret	Z
  2435  07f5  c5                	push	bc
  2436  07f6  f5                	push	af
  2437  07f7  33                	inc	sp
  2438  07f8  cd0000            	call	_hcca_writeByte
  2439  07fb  33                	inc	sp
  2440  07fc  c1                	pop	bc
  2441  07fd  03                	inc	bc
  2442  07fe  1800              	jr	l_hcca_writeString_00103
  2443                          	SECTION code_compiler
  2444                          ;	---------------------------------
  2445                          ; Function hcca_writeBytes
  2446                          ; ---------------------------------
  2447                          _hcca_writeBytes:
  2448  0800  dde5              	push	ix
  2449  0802  dd210000          	ld	ix,0
  2450  0806  dd39              	add	ix,sp
  2451  0808  dd7e00            	ld	a,(ix+8)
  2452  080b  dd8600            	add	a,(ix+4)
  2453  080e  4f                	ld	c, a
  2454  080f  dd7e00            	ld	a,(ix+9)
  2455  0812  dd8e00            	adc	a,(ix+5)
  2456  0815  47                	ld	b, a
  2457  0816  dd6e00            	ld	l,(ix+6)
  2458  0819  dd6600            	ld	h,(ix+7)
  2459  081c  09                	add	hl, bc
  2460  081d  eb                	ex	de, hl
  2461                          l_hcca_writeBytes_00101:
  2462  081e  69                	ld	l, c
  2463  081f  60                	ld	h, b
  2464  0820  bf                	cp	a, a
  2465  0821  ed52              	sbc	hl, de
  2466  0823  2800              	jr	Z,l_hcca_writeBytes_00104
  2467  0825  0a                	ld	a, (bc)
  2468  0826  c5                	push	bc
  2469  0827  d5                	push	de
  2470  0828  f5                	push	af
  2471  0829  33                	inc	sp
  2472  082a  cd0000            	call	_hcca_writeByte
  2473  082d  33                	inc	sp
  2474  082e  d1                	pop	de
  2475  082f  c1                	pop	bc
  2476  0830  03                	inc	bc
  2477  0831  1800              	jr	l_hcca_writeBytes_00101
  2478                          l_hcca_writeBytes_00104:
  2479  0833  dde1              	pop	ix
  2480  0835  c9                	ret
  2481                          	SECTION code_compiler
  2482                          ;	---------------------------------
  2483                          ; Function vdp_setRegister
  2484                          ; ---------------------------------
  2485                          _vdp_setRegister:
  2486  0836  fd210000          	ld	iy,3
  2487  083a  fd39              	add	iy, sp
  2488  083c  fd7e00            	ld	a,(iy+0)
  2489  083f  d300              	out	(_IO_VDPLATCH), a
  2490  0841  fd2b              	dec	iy
  2491  0843  fd7e00            	ld	a,(iy+0)
  2492  0846  f600              	or	a,0x80
  2493  0848  d300              	out	(_IO_VDPLATCH), a
  2494  084a  c9                	ret
  2495                          	SECTION code_compiler
  2496                          ;	---------------------------------
  2497                          ; Function vdp_setWriteAddress
  2498                          ; ---------------------------------
  2499                          _vdp_setWriteAddress:
  2500  084b  fd210000          	ld	iy,2
  2501  084f  fd39              	add	iy, sp
  2502  0851  fd7e00            	ld	a,(iy+0)
  2503  0854  d300              	out	(_IO_VDPLATCH), a
  2504  0856  fd7e00            	ld	a,(iy+1)
  2505  0859  e600              	and	a,0x3f
  2506  085b  f600              	or	a,0x40
  2507  085d  d300              	out	(_IO_VDPLATCH), a
  2508  085f  c9                	ret
  2509                          	SECTION code_compiler
  2510                          ;	---------------------------------
  2511                          ; Function vdp_setReadAddress
  2512                          ; ---------------------------------
  2513                          _vdp_setReadAddress:
  2514  0860  fd210000          	ld	iy,2
  2515  0864  fd39              	add	iy, sp
  2516  0866  fd7e00            	ld	a,(iy+0)
  2517  0869  d300              	out	(_IO_VDPLATCH), a
  2518  086b  fd7e00            	ld	a,(iy+1)
  2519  086e  e600              	and	a,0x3f
  2520  0870  d300              	out	(_IO_VDPLATCH), a
  2521  0872  c9                	ret
  2522                          	SECTION code_compiler
  2523                          ;	---------------------------------
  2524                          ; Function waitVdpISR
  2525                          ; ---------------------------------
  2526                          _waitVdpISR:
  2527  0873  f5                	push	af
  2528  0874  db00              	in	a, (_IO_VDPLATCH)
  2529  0876  320000            	ld	(_vdpStatusRegVal), a
  2530  0879  3e00              	ld	a, 0x01
  2531  087b  320000            	ld	(_vdpIsReady), a
  2532  087e  f1                	pop	af
  2533  087f  fb                	ei
  2534  0880  ed4d              	reti
  2535                          ;	---------------------------------
  2536                          ; Function vdp_enableVDPReadyInt
  2537                          ; ---------------------------------
  2538                          _vdp_enableVDPReadyInt:
  2539  0882  cd0000            	call	_NABU_DisableInterrupts
  2540  0885  210000            	ld	hl, _waitVdpISR
  2541  0888  220000            	ld	(0xff00 + 6), hl
  2542  088b  3a0000            	ld	a, (__ORIGINAL_INT_MASK+0)
  2543  088e  f600              	or	a,0x10
  2544  0890  320000            	ld	(__ORIGINAL_INT_MASK+0), a
  2545  0893  3a0000            	ld	a, (__ORIGINAL_INT_MASK+0)
  2546  0896  57                	ld	d,a
  2547  0897  1e00              	ld	e,0x0e
  2548  0899  d5                	push	de
  2549  089a  cd0000            	call	_ayWrite
  2550  089d  f1                	pop	af
  2551  089e  cd0000            	call	_NABU_EnableInterrupts
  2552  08a1  210000            	ld	hl,__vdpInterruptEnabled + 0
  2553  08a4  3600              	ld	(hl),0x01
  2554  08a6  3a0000            	ld	a, (__vdpReg1Val+0)
  2555  08a9  cbef              	set	5, a
  2556  08ab  57                	ld	d,a
  2557  08ac  1e00              	ld	e,0x01
  2558  08ae  d5                	push	de
  2559  08af  cd0000            	call	_vdp_setRegister
  2560  08b2  f1                	pop	af
  2561  08b3  c9                	ret
  2562                          	SECTION code_compiler
  2563                          ;	---------------------------------
  2564                          ; Function vdp_waitVDPReadyInt
  2565                          ; ---------------------------------
  2566                          _vdp_waitVDPReadyInt:
  2567                          l_vdp_waitVDPReadyInt_00101:
  2568  08b4  3a0000            	ld	a, (_vdpIsReady+0)
  2569  08b7  b7                	or	a, a
  2570  08b8  2800              	jr	Z,l_vdp_waitVDPReadyInt_00101
  2571  08ba  210000            	ld	hl,_vdpIsReady + 0
  2572  08bd  3600              	ld	(hl),0x00
  2573  08bf  c9                	ret
  2574                          	SECTION code_compiler
  2575                          ;	---------------------------------
  2576                          ; Function vdp_disableVDPReadyInt
  2577                          ; ---------------------------------
  2578                          _vdp_disableVDPReadyInt:
  2579  08c0  3a0000            	ld	a, (__vdpReg1Val+0)
  2580  08c3  57                	ld	d,a
  2581  08c4  1e00              	ld	e,0x01
  2582  08c6  d5                	push	de
  2583  08c7  cd0000            	call	_vdp_setRegister
  2584  08ca  f1                	pop	af
  2585  08cb  cd0000            	call	_NABU_DisableInterrupts
  2586  08ce  210000            	ld	hl,__vdpInterruptEnabled + 0
  2587  08d1  3600              	ld	(hl),0x00
  2588  08d3  db00              	in	a, (_IO_AYLATCH)
  2589  08d5  3a0000            	ld	a, (__ORIGINAL_INT_MASK+0)
  2590  08d8  cb67              	bit	4, a
  2591  08da  2800              	jr	Z,l_vdp_disableVDPReadyInt_00102
  2592  08dc  3a0000            	ld	a, (__ORIGINAL_INT_MASK+0)
  2593  08df  ee00              	xor	a,0x10
  2594  08e1  320000            	ld	(__ORIGINAL_INT_MASK+0), a
  2595                          l_vdp_disableVDPReadyInt_00102:
  2596  08e4  3a0000            	ld	a, (__ORIGINAL_INT_MASK+0)
  2597  08e7  57                	ld	d,a
  2598  08e8  1e00              	ld	e,0x0e
  2599  08ea  d5                	push	de
  2600  08eb  cd0000            	call	_ayWrite
  2601  08ee  f1                	pop	af
  2602  08ef  c30000            	jp	_NABU_EnableInterrupts
  2603                          	SECTION code_compiler
  2604                          ;	---------------------------------
  2605                          ; Function vdp_addISR
  2606                          ; ---------------------------------
  2607                          _vdp_addISR:
  2608  08f2  cd0000            	call	_NABU_DisableInterrupts
  2609  08f5  fd210000          	ld	iy,2
  2610  08f9  fd39              	add	iy, sp
  2611  08fb  fd7e00            	ld	a,(iy+0)
  2612  08fe  320000            	ld	(__vdp_ISR+0), a
  2613  0901  fd7e00            	ld	a,(iy+1)
  2614  0904  320000            	ld	(__vdp_ISR+1), a
  2615  0907  2a0000            	ld	hl, (__vdp_ISR)
  2616  090a  220000            	ld	(0xff00 + 6), hl
  2617  090d  3a0000            	ld	a, (__ORIGINAL_INT_MASK+0)
  2618  0910  f600              	or	a,0x10
  2619  0912  320000            	ld	(__ORIGINAL_INT_MASK+0), a
  2620  0915  3a0000            	ld	a, (__ORIGINAL_INT_MASK+0)
  2621  0918  57                	ld	d,a
  2622  0919  1e00              	ld	e,0x0e
  2623  091b  d5                	push	de
  2624  091c  cd0000            	call	_ayWrite
  2625  091f  f1                	pop	af
  2626  0920  cd0000            	call	_NABU_EnableInterrupts
  2627  0923  210000            	ld	hl,__vdpInterruptEnabled + 0
  2628  0926  3600              	ld	(hl),0x01
  2629  0928  3a0000            	ld	a, (__vdpReg1Val+0)
  2630  092b  cbef              	set	5, a
  2631  092d  57                	ld	d,a
  2632  092e  1e00              	ld	e,0x01
  2633  0930  d5                	push	de
  2634  0931  cd0000            	call	_vdp_setRegister
  2635  0934  f1                	pop	af
  2636  0935  c9                	ret
  2637                          	SECTION code_compiler
  2638                          ;	---------------------------------
  2639                          ; Function vdp_removeISR
  2640                          ; ---------------------------------
  2641                          _vdp_removeISR:
  2642  0936  3a0000            	ld	a, (__vdpReg1Val+0)
  2643  0939  57                	ld	d,a
  2644  093a  1e00              	ld	e,0x01
  2645  093c  d5                	push	de
  2646  093d  cd0000            	call	_vdp_setRegister
  2647  0940  f1                	pop	af
  2648  0941  cd0000            	call	_NABU_DisableInterrupts
  2649  0944  210000            	ld	hl,__vdpInterruptEnabled + 0
  2650  0947  3600              	ld	(hl),0x00
  2651  0949  db00              	in	a, (_IO_AYLATCH)
  2652  094b  3a0000            	ld	a, (__ORIGINAL_INT_MASK+0)
  2653  094e  cb67              	bit	4, a
  2654  0950  2800              	jr	Z,l_vdp_removeISR_00102
  2655  0952  3a0000            	ld	a, (__ORIGINAL_INT_MASK+0)
  2656  0955  ee00              	xor	a,0x10
  2657  0957  320000            	ld	(__ORIGINAL_INT_MASK+0), a
  2658                          l_vdp_removeISR_00102:
  2659  095a  3a0000            	ld	a, (__ORIGINAL_INT_MASK+0)
  2660  095d  57                	ld	d,a
  2661  095e  1e00              	ld	e,0x0e
  2662  0960  d5                	push	de
  2663  0961  cd0000            	call	_ayWrite
  2664  0964  f1                	pop	af
  2665  0965  c30000            	jp	_NABU_EnableInterrupts
  2666                          	SECTION code_compiler
  2667                          ;	---------------------------------
  2668                          ; Function vdp_init
  2669                          ; ---------------------------------
  2670                          _vdp_init:
  2671  0968  dde5              	push	ix
  2672  096a  dd210000          	ld	ix,0
  2673  096e  dd39              	add	ix,sp
  2674  0970  dd4e00            	ld	c,(ix+4)
  2675  0973  fd210000          	ld	iy,__vdpMode
  2676  0977  fd7100            	ld	(iy+0),c
  2677  097a  dd7e00            	ld	a,(ix+10)
  2678  097d  320000            	ld	(__vdpSplitThirds+0), a
  2679  0980  dd7e00            	ld	a,(ix+7)
  2680  0983  320000            	ld	(__vdpSpriteSizeSelected+0), a
  2681  0986  dd7e00            	ld	a,(ix+9)
  2682  0989  320000            	ld	(__autoScroll+0), a
  2683  098c  210000            	ld	hl,__vdpInterruptEnabled + 0
  2684  098f  3600              	ld	(hl),0x00
  2685  0991  210000            	ld	hl,_vdp_cursor
  2686  0994  3600              	ld	(hl),0x00
  2687  0996  210000            	ld	hl, +(_vdp_cursor + 1)
  2688  0999  3600              	ld	(hl),0x00
  2689  099b  79                	ld	a, c
  2690  099c  3d                	dec	a
  2691  099d  2800              	jr	Z,l_vdp_init_00101
  2692  099f  79                	ld	a,c
  2693  09a0  fe00              	cp	a,0x02
  2694  09a2  ca0000            	jp	Z,l_vdp_init_00106
  2695  09a5  d600              	sub	a,0x03
  2696  09a7  2800              	jr	Z,l_vdp_init_00105
  2697  09a9  c30000            	jp	l_vdp_init_00107
  2698                          l_vdp_init_00101:
  2699  09ac  3e00              	ld	a,0x02
  2700  09ae  f5                	push	af
  2701  09af  33                	inc	sp
  2702  09b0  af                	xor	a, a
  2703  09b1  f5                	push	af
  2704  09b2  33                	inc	sp
  2705  09b3  cd0000            	call	_vdp_setRegister
  2706  09b6  f1                	pop	af
  2707  09b7  dd7e00            	ld	a,(ix+7)
  2708  09ba  87                	add	a, a
  2709  09bb  f600              	or	a,0xc0
  2710  09bd  ddb600            	or	a,(ix+8)
  2711  09c0  320000            	ld	(__vdpReg1Val+0), a
  2712  09c3  3a0000            	ld	a, (__vdpReg1Val+0)
  2713  09c6  57                	ld	d,a
  2714  09c7  1e00              	ld	e,0x01
  2715  09c9  d5                	push	de
  2716  09ca  cd0000            	call	_vdp_setRegister
  2717  09cd  f1                	pop	af
  2718  09ce  3a0000            	ld	a, (__vdpSplitThirds+0)
  2719  09d1  b7                	or	a, a
  2720  09d2  2800              	jr	Z,l_vdp_init_00103
  2721  09d4  110000            	ld	de,0x0304
  2722  09d7  d5                	push	de
  2723  09d8  cd0000            	call	_vdp_setRegister
  2724  09db  f1                	pop	af
  2725  09dc  1800              	jr	l_vdp_init_00104
  2726                          l_vdp_init_00103:
  2727  09de  af                	xor	a, a
  2728  09df  57                	ld	d,a
  2729  09e0  1e00              	ld	e,0x04
  2730  09e2  d5                	push	de
  2731  09e3  cd0000            	call	_vdp_setRegister
  2732  09e6  f1                	pop	af
  2733                          l_vdp_init_00104:
  2734  09e7  210000            	ld	hl,0x0000
  2735  09ea  220000            	ld	(__vdpPatternGeneratorTableAddr), hl
  2736  09ed  dd360000          	ld	(ix+5),0x00
  2737  09f1  210000            	ld	hl,__vdpCursorMaxX + 0
  2738  09f4  3600              	ld	(hl),0x1f
  2739  09f6  210000            	ld	hl,__vdpCursorMaxXFull + 0
  2740  09f9  3600              	ld	(hl),0x20
  2741  09fb  1800              	jr	l_vdp_init_00107
  2742                          l_vdp_init_00105:
  2743  09fd  af                	xor	a, a
  2744  09fe  f5                	push	af
  2745  09ff  33                	inc	sp
  2746  0a00  af                	xor	a, a
  2747  0a01  f5                	push	af
  2748  0a02  33                	inc	sp
  2749  0a03  cd0000            	call	_vdp_setRegister
  2750  0a06  f1                	pop	af
  2751  0a07  210000            	ld	hl,__vdpReg1Val + 0
  2752  0a0a  3600              	ld	(hl),0xd2
  2753  0a0c  3a0000            	ld	a, (__vdpReg1Val+0)
  2754  0a0f  57                	ld	d,a
  2755  0a10  1e00              	ld	e,0x01
  2756  0a12  d5                	push	de
  2757  0a13  cd0000            	call	_vdp_setRegister
  2758  0a16  f1                	pop	af
  2759  0a17  af                	xor	a, a
  2760  0a18  57                	ld	d,a
  2761  0a19  1e00              	ld	e,0x04
  2762  0a1b  d5                	push	de
  2763  0a1c  cd0000            	call	_vdp_setRegister
  2764  0a1f  f1                	pop	af
  2765  0a20  210000            	ld	hl,0x0000
  2766  0a23  220000            	ld	(__vdpPatternGeneratorTableAddr), hl
  2767  0a26  210000            	ld	hl,__vdpCursorMaxX + 0
  2768  0a29  3600              	ld	(hl),0x27
  2769  0a2b  210000            	ld	hl,__vdpCursorMaxXFull + 0
  2770  0a2e  3600              	ld	(hl),0x28
  2771  0a30  1800              	jr	l_vdp_init_00107
  2772                          l_vdp_init_00106:
  2773  0a32  af                	xor	a, a
  2774  0a33  f5                	push	af
  2775  0a34  33                	inc	sp
  2776  0a35  af                	xor	a, a
  2777  0a36  f5                	push	af
  2778  0a37  33                	inc	sp
  2779  0a38  cd0000            	call	_vdp_setRegister
  2780  0a3b  f1                	pop	af
  2781  0a3c  dd7e00            	ld	a,(ix+7)
  2782  0a3f  87                	add	a, a
  2783  0a40  f600              	or	a,0xc8
  2784  0a42  ddb600            	or	a,(ix+8)
  2785  0a45  320000            	ld	(__vdpReg1Val+0), a
  2786  0a48  3a0000            	ld	a, (__vdpReg1Val+0)
  2787  0a4b  57                	ld	d,a
  2788  0a4c  1e00              	ld	e,0x01
  2789  0a4e  d5                	push	de
  2790  0a4f  cd0000            	call	_vdp_setRegister
  2791  0a52  f1                	pop	af
  2792  0a53  af                	xor	a, a
  2793  0a54  57                	ld	d,a
  2794  0a55  1e00              	ld	e,0x04
  2795  0a57  d5                	push	de
  2796  0a58  cd0000            	call	_vdp_setRegister
  2797  0a5b  f1                	pop	af
  2798  0a5c  210000            	ld	hl,0x0000
  2799  0a5f  220000            	ld	(__vdpPatternGeneratorTableAddr), hl
  2800  0a62  dd360000          	ld	(ix+5),0x00
  2801  0a66  210000            	ld	hl,__vdpCursorMaxX + 0
  2802  0a69  3600              	ld	(hl),0x1f
  2803  0a6b  210000            	ld	hl,__vdpCursorMaxXFull + 0
  2804  0a6e  3600              	ld	(hl),0x20
  2805                          l_vdp_init_00107:
  2806  0a70  110000            	ld	de,0x0602
  2807  0a73  d5                	push	de
  2808  0a74  cd0000            	call	_vdp_setRegister
  2809  0a77  f1                	pop	af
  2810  0a78  210000            	ld	hl,0x1800
  2811  0a7b  220000            	ld	(__vdpPatternNameTableAddr), hl
  2812  0a7e  3a0000            	ld	a, (__vdpSplitThirds+0)
  2813  0a81  b7                	or	a, a
  2814  0a82  2800              	jr	Z,l_vdp_init_00109
  2815  0a84  110000            	ld	de,0xff03
  2816  0a87  d5                	push	de
  2817  0a88  cd0000            	call	_vdp_setRegister
  2818  0a8b  f1                	pop	af
  2819  0a8c  1800              	jr	l_vdp_init_00110
  2820                          l_vdp_init_00109:
  2821  0a8e  110000            	ld	de,0x9f03
  2822  0a91  d5                	push	de
  2823  0a92  cd0000            	call	_vdp_setRegister
  2824  0a95  f1                	pop	af
  2825                          l_vdp_init_00110:
  2826  0a96  210000            	ld	hl,0x2000
  2827  0a99  220000            	ld	(__vdpColorTableAddr), hl
  2828  0a9c  110000            	ld	de,0x3605
  2829  0a9f  d5                	push	de
  2830  0aa0  cd0000            	call	_vdp_setRegister
  2831  0aa3  f1                	pop	af
  2832  0aa4  210000            	ld	hl,0x1b00
  2833  0aa7  220000            	ld	(__vdpSpriteAttributeTableAddr), hl
  2834  0aaa  110000            	ld	de,0x0706
  2835  0aad  d5                	push	de
  2836  0aae  cd0000            	call	_vdp_setRegister
  2837  0ab1  f1                	pop	af
  2838  0ab2  210000            	ld	hl,0x3800
  2839  0ab5  220000            	ld	(__vdpSpriteGeneratorTableAddr), hl
  2840  0ab8  dd7e00            	ld	a,(ix+5)
  2841  0abb  87                	add	a, a
  2842  0abc  87                	add	a, a
  2843  0abd  87                	add	a, a
  2844  0abe  87                	add	a, a
  2845  0abf  4f                	ld	c, a
  2846  0ac0  dd7e00            	ld	a,(ix+6)
  2847  0ac3  e600              	and	a,0x0f
  2848  0ac5  b1                	or	a, c
  2849  0ac6  57                	ld	d,a
  2850  0ac7  1e00              	ld	e,0x07
  2851  0ac9  d5                	push	de
  2852  0aca  cd0000            	call	_vdp_setRegister
  2853  0acd  f1                	pop	af
  2854  0ace  dde1              	pop	ix
  2855  0ad0  c30000            	jp	_vdp_clearScreen
  2856                          	SECTION code_compiler
  2857                          ;	---------------------------------
  2858                          ; Function vdp_clearVRAM
  2859                          ; ---------------------------------
  2860                          _vdp_clearVRAM:
  2861  0ad3  210000            	ld	hl,0x0000
  2862  0ad6  e5                	push	hl
  2863  0ad7  cd0000            	call	_vdp_setWriteAddress
  2864  0ada  f1                	pop	af
  2865  0adb  010000            	ld	bc,0x0000
  2866                          l_vdp_clearVRAM_00103:
  2867  0ade  79                	ld	a, c
  2868  0adf  d600              	sub	a,0xff
  2869  0ae1  78                	ld	a, b
  2870  0ae2  de00              	sbc	a,0x3f
  2871  0ae4  d0                	ret	NC
  2872  0ae5  3e00              	ld	a,0x00
  2873  0ae7  d300              	out	(_IO_VDPDATA), a
  2874  0ae9  03                	inc	bc
  2875  0aea  1800              	jr	l_vdp_clearVRAM_00103
  2876                          	SECTION code_compiler
  2877                          ;	---------------------------------
  2878                          ; Function vdp_initMSXMode
  2879                          ; ---------------------------------
  2880                          _vdp_initMSXMode:
  2881  0aec  3e00              	ld	a,0x02
  2882  0aee  f5                	push	af
  2883  0aef  33                	inc	sp
  2884  0af0  af                	xor	a, a
  2885  0af1  f5                	push	af
  2886  0af2  33                	inc	sp
  2887  0af3  cd0000            	call	_vdp_setRegister
  2888  0af6  f1                	pop	af
  2889  0af7  110000            	ld	de,0xc001
  2890  0afa  d5                	push	de
  2891  0afb  cd0000            	call	_vdp_setRegister
  2892  0afe  f1                	pop	af
  2893  0aff  110000            	ld	de,0x0602
  2894  0b02  d5                	push	de
  2895  0b03  cd0000            	call	_vdp_setRegister
  2896  0b06  f1                	pop	af
  2897  0b07  110000            	ld	de,0xff03
  2898  0b0a  d5                	push	de
  2899  0b0b  cd0000            	call	_vdp_setRegister
  2900  0b0e  f1                	pop	af
  2901  0b0f  110000            	ld	de,0x0304
  2902  0b12  d5                	push	de
  2903  0b13  cd0000            	call	_vdp_setRegister
  2904  0b16  f1                	pop	af
  2905  0b17  110000            	ld	de,0x3605
  2906  0b1a  d5                	push	de
  2907  0b1b  cd0000            	call	_vdp_setRegister
  2908  0b1e  f1                	pop	af
  2909  0b1f  110000            	ld	de,0x0706
  2910  0b22  d5                	push	de
  2911  0b23  cd0000            	call	_vdp_setRegister
  2912  0b26  f1                	pop	af
  2913  0b27  210000            	ld	hl,2+0
  2914  0b2a  39                	add	hl, sp
  2915  0b2b  7e                	ld	a, (hl)
  2916  0b2c  e600              	and	a,0x0f
  2917  0b2e  57                	ld	d,a
  2918  0b2f  1e00              	ld	e,0x07
  2919  0b31  d5                	push	de
  2920  0b32  cd0000            	call	_vdp_setRegister
  2921  0b35  f1                	pop	af
  2922  0b36  c9                	ret
  2923                          	SECTION code_compiler
  2924                          ;	---------------------------------
  2925                          ; Function vdp_initTextMode
  2926                          ; ---------------------------------
  2927                          _vdp_initTextMode:
  2928  0b37  af                	xor	a, a
  2929  0b38  f5                	push	af
  2930  0b39  33                	inc	sp
  2931  0b3a  fd210000          	ld	iy,5
  2932  0b3e  fd39              	add	iy, sp
  2933  0b40  fd7e00            	ld	a,(iy+0)
  2934  0b43  f5                	push	af
  2935  0b44  33                	inc	sp
  2936  0b45  af                	xor	a, a
  2937  0b46  f5                	push	af
  2938  0b47  33                	inc	sp
  2939  0b48  af                	xor	a, a
  2940  0b49  f5                	push	af
  2941  0b4a  33                	inc	sp
  2942  0b4b  fd2b              	dec	iy
  2943  0b4d  fd7e00            	ld	a,(iy+0)
  2944  0b50  f5                	push	af
  2945  0b51  33                	inc	sp
  2946  0b52  fd2b              	dec	iy
  2947  0b54  fd5600            	ld	d,(iy+0)
  2948  0b57  1e00              	ld	e,0x03
  2949  0b59  d5                	push	de
  2950  0b5a  cd0000            	call	_vdp_init
  2951  0b5d  210000            	ld	hl,7
  2952  0b60  39                	add	hl, sp
  2953  0b61  f9                	ld	sp, hl
  2954  0b62  c9                	ret
  2955                          	SECTION code_compiler
  2956                          ;	---------------------------------
  2957                          ; Function vdp_initG2Mode
  2958                          ; ---------------------------------
  2959                          _vdp_initG2Mode:
  2960  0b63  fd210000          	ld	iy,6
  2961  0b67  fd39              	add	iy, sp
  2962  0b69  fd7e00            	ld	a,(iy+0)
  2963  0b6c  f5                	push	af
  2964  0b6d  33                	inc	sp
  2965  0b6e  fd2b              	dec	iy
  2966  0b70  fd7e00            	ld	a,(iy+0)
  2967  0b73  f5                	push	af
  2968  0b74  33                	inc	sp
  2969  0b75  fd2b              	dec	iy
  2970  0b77  fd7e00            	ld	a,(iy+0)
  2971  0b7a  f5                	push	af
  2972  0b7b  33                	inc	sp
  2973  0b7c  fd2b              	dec	iy
  2974  0b7e  fd7e00            	ld	a,(iy+0)
  2975  0b81  f5                	push	af
  2976  0b82  33                	inc	sp
  2977  0b83  fd2b              	dec	iy
  2978  0b85  fd7e00            	ld	a,(iy+0)
  2979  0b88  f5                	push	af
  2980  0b89  33                	inc	sp
  2981  0b8a  af                	xor	a, a
  2982  0b8b  57                	ld	d,a
  2983  0b8c  1e00              	ld	e,0x01
  2984  0b8e  d5                	push	de
  2985  0b8f  cd0000            	call	_vdp_init
  2986  0b92  210000            	ld	hl,7
  2987  0b95  39                	add	hl, sp
  2988  0b96  f9                	ld	sp, hl
  2989  0b97  c9                	ret
  2990                          	SECTION code_compiler
  2991                          ;	---------------------------------
  2992                          ; Function vdp_initMultiColorMode
  2993                          ; ---------------------------------
  2994                          _vdp_initMultiColorMode:
  2995  0b98  af                	xor	a, a
  2996  0b99  f5                	push	af
  2997  0b9a  33                	inc	sp
  2998  0b9b  af                	xor	a, a
  2999  0b9c  f5                	push	af
  3000  0b9d  33                	inc	sp
  3001  0b9e  af                	xor	a, a
  3002  0b9f  f5                	push	af
  3003  0ba0  33                	inc	sp
  3004  0ba1  af                	xor	a, a
  3005  0ba2  f5                	push	af
  3006  0ba3  33                	inc	sp
  3007  0ba4  af                	xor	a, a
  3008  0ba5  f5                	push	af
  3009  0ba6  33                	inc	sp
  3010  0ba7  af                	xor	a, a
  3011  0ba8  57                	ld	d,a
  3012  0ba9  1e00              	ld	e,0x02
  3013  0bab  d5                	push	de
  3014  0bac  cd0000            	call	_vdp_init
  3015  0baf  210000            	ld	hl,7
  3016  0bb2  39                	add	hl, sp
  3017  0bb3  f9                	ld	sp, hl
  3018  0bb4  c9                	ret
  3019                          	SECTION code_compiler
  3020                          ;	---------------------------------
  3021                          ; Function vdp_clearScreen
  3022                          ; ---------------------------------
  3023                          _vdp_clearScreen:
  3024  0bb5  2a0000            	ld	hl, (__vdpPatternNameTableAddr)
  3025  0bb8  e5                	push	hl
  3026  0bb9  cd0000            	call	_vdp_setWriteAddress
  3027  0bbc  f1                	pop	af
  3028  0bbd  3a0000            	ld	a, (__vdpCursorMaxXFull+0)
  3029  0bc0  4f                	ld	c, a
  3030  0bc1  0600              	ld	b,0x00
  3031  0bc3  69                	ld	l, c
  3032  0bc4  60                	ld	h, b
  3033  0bc5  29                	add	hl, hl
  3034  0bc6  09                	add	hl, bc
  3035  0bc7  29                	add	hl, hl
  3036  0bc8  29                	add	hl, hl
  3037  0bc9  29                	add	hl, hl
  3038  0bca  110000            	ld	de,__vdp_textBuffer
  3039  0bcd  19                	add	hl, de
  3040  0bce  eb                	ex	de, hl
  3041  0bcf  0e00              	ld	c,0x00
  3042  0bd1  3a0000            	ld	a, (__vdpMode+0)
  3043  0bd4  d600              	sub	a,0x03
  3044  0bd6  2000              	jr	NZ,l_vdp_clearScreen_00109
  3045  0bd8  0e00              	ld	c,0x20
  3046                          l_vdp_clearScreen_00109:
  3047  0bda  210000            	ld	hl,__vdp_textBuffer
  3048                          l_vdp_clearScreen_00103:
  3049  0bdd  79                	ld	a, c
  3050  0bde  d300              	out	(_IO_VDPDATA), a
  3051  0be0  3600              	ld	(hl),0x20
  3052  0be2  23                	inc	hl
  3053  0be3  7d                	ld	a, l
  3054  0be4  93                	sub	a, e
  3055  0be5  2000              	jr	NZ,l_vdp_clearScreen_00103
  3056  0be7  7c                	ld	a, h
  3057  0be8  92                	sub	a, d
  3058  0be9  2000              	jr	NZ,l_vdp_clearScreen_00103
  3059  0beb  c9                	ret
  3060                          	SECTION code_compiler
  3061                          ;	---------------------------------
  3062                          ; Function vdp_fillScreen
  3063                          ; ---------------------------------
  3064                          _vdp_fillScreen:
  3065  0bec  dde5              	push	ix
  3066  0bee  dd210000          	ld	ix,0
  3067  0bf2  dd39              	add	ix,sp
  3068  0bf4  2a0000            	ld	hl, (__vdpPatternNameTableAddr)
  3069  0bf7  e5                	push	hl
  3070  0bf8  cd0000            	call	_vdp_setWriteAddress
  3071  0bfb  f1                	pop	af
  3072  0bfc  010000            	ld	bc,__vdp_textBuffer+0
  3073  0bff  3a0000            	ld	a, (__vdpCursorMaxXFull+0)
  3074  0c02  5f                	ld	e, a
  3075  0c03  1600              	ld	d,0x00
  3076  0c05  6b                	ld	l, e
  3077  0c06  62                	ld	h, d
  3078  0c07  29                	add	hl, hl
  3079  0c08  19                	add	hl, de
  3080  0c09  29                	add	hl, hl
  3081  0c0a  29                	add	hl, hl
  3082  0c0b  29                	add	hl, hl
  3083  0c0c  09                	add	hl, bc
  3084  0c0d  eb                	ex	de, hl
  3085                          l_vdp_fillScreen_00101:
  3086  0c0e  dd7e00            	ld	a,(ix+4)
  3087  0c11  d300              	out	(_IO_VDPDATA), a
  3088  0c13  dd7e00            	ld	a,(ix+4)
  3089  0c16  02                	ld	(bc), a
  3090  0c17  03                	inc	bc
  3091  0c18  69                	ld	l, c
  3092  0c19  60                	ld	h, b
  3093  0c1a  bf                	cp	a, a
  3094  0c1b  ed52              	sbc	hl, de
  3095  0c1d  2000              	jr	NZ,l_vdp_fillScreen_00101
  3096  0c1f  dde1              	pop	ix
  3097  0c21  c9                	ret
  3098                          	SECTION code_compiler
  3099                          ;	---------------------------------
  3100                          ; Function vdp_clearRows
  3101                          ; ---------------------------------
  3102                          _vdp_clearRows:
  3103  0c22  dde5              	push	ix
  3104  0c24  dd210000          	ld	ix,0
  3105  0c28  dd39              	add	ix,sp
  3106  0c2a  210000            	ld	hl,__vdpCursorMaxXFull + 0
  3107  0c2d  5e                	ld	e, (hl)
  3108  0c2e  dd6600            	ld	h,(ix+4)
  3109  0c31  2e00              	ld	l,0x00
  3110  0c33  55                	ld	d, l
  3111  0c34  0600              	ld	b,0x08
  3112                          l_vdp_clearRows_00112:
  3113  0c36  29                	add	hl, hl
  3114  0c37  3000              	jr	NC,l_vdp_clearRows_00113
  3115  0c39  19                	add	hl, de
  3116                          l_vdp_clearRows_00113:
  3117  0c3a  1000              	djnz	l_vdp_clearRows_00112
  3118  0c3c  eb                	ex	de, hl
  3119  0c3d  2a0000            	ld	hl, (__vdpPatternNameTableAddr)
  3120  0c40  19                	add	hl, de
  3121  0c41  e5                	push	hl
  3122  0c42  cd0000            	call	_vdp_setWriteAddress
  3123  0c45  f1                	pop	af
  3124  0c46  fd210000          	ld	iy,__vdpCursorMaxXFull
  3125  0c4a  fd5e00            	ld	e,(iy+0)
  3126  0c4d  dd6600            	ld	h,(ix+4)
  3127  0c50  2e00              	ld	l,0x00
  3128  0c52  55                	ld	d, l
  3129  0c53  0600              	ld	b,0x08
  3130                          l_vdp_clearRows_00114:
  3131  0c55  29                	add	hl, hl
  3132  0c56  3000              	jr	NC,l_vdp_clearRows_00115
  3133  0c58  19                	add	hl, de
  3134                          l_vdp_clearRows_00115:
  3135  0c59  1000              	djnz	l_vdp_clearRows_00114
  3136  0c5b  110000            	ld	de,__vdp_textBuffer
  3137  0c5e  19                	add	hl, de
  3138  0c5f  e5                	push	hl
  3139  0c60  fd5e00            	ld	e,(iy+0)
  3140  0c63  dd6600            	ld	h,(ix+5)
  3141  0c66  2e00              	ld	l,0x00
  3142  0c68  55                	ld	d, l
  3143  0c69  0600              	ld	b,0x08
  3144                          l_vdp_clearRows_00116:
  3145  0c6b  29                	add	hl, hl
  3146  0c6c  3000              	jr	NC,l_vdp_clearRows_00117
  3147  0c6e  19                	add	hl, de
  3148                          l_vdp_clearRows_00117:
  3149  0c6f  1000              	djnz	l_vdp_clearRows_00116
  3150  0c71  c1                	pop	bc
  3151  0c72  110000            	ld	de,__vdp_textBuffer
  3152  0c75  19                	add	hl, de
  3153  0c76  eb                	ex	de, hl
  3154                          l_vdp_clearRows_00101:
  3155  0c77  3e00              	ld	a,0x20
  3156  0c79  d300              	out	(_IO_VDPDATA), a
  3157  0c7b  3e00              	ld	a,0x20
  3158  0c7d  02                	ld	(bc), a
  3159  0c7e  03                	inc	bc
  3160  0c7f  6b                	ld	l, e
  3161  0c80  62                	ld	h, d
  3162  0c81  bf                	cp	a, a
  3163  0c82  ed42              	sbc	hl, bc
  3164  0c84  2000              	jr	NZ,l_vdp_clearRows_00101
  3165  0c86  dde1              	pop	ix
  3166  0c88  c9                	ret
  3167                          	SECTION code_compiler
  3168                          ;	---------------------------------
  3169                          ; Function vdp_loadASCIIFont
  3170                          ; ---------------------------------
  3171                          _vdp_loadASCIIFont:
  3172  0c89  dde5              	push	ix
  3173  0c8b  dd210000          	ld	ix,0
  3174  0c8f  dd39              	add	ix,sp
  3175  0c91  2a0000            	ld	hl, (__vdpPatternGeneratorTableAddr)
  3176  0c94  110000            	ld	de,0x0100
  3177  0c97  19                	add	hl, de
  3178  0c98  e5                	push	hl
  3179  0c99  cd0000            	call	_vdp_setWriteAddress
  3180  0c9c  f1                	pop	af
  3181  0c9d  dd4e00            	ld	c,(ix+4)
  3182  0ca0  dd4600            	ld	b,(ix+5)
  3183  0ca3  210000            	ld	hl,0x0300
  3184  0ca6  09                	add	hl, bc
  3185  0ca7  eb                	ex	de, hl
  3186                          l_vdp_loadASCIIFont_00101:
  3187  0ca8  0a                	ld	a, (bc)
  3188  0ca9  d300              	out	(_IO_VDPDATA), a
  3189  0cab  03                	inc	bc
  3190  0cac  69                	ld	l, c
  3191  0cad  60                	ld	h, b
  3192  0cae  bf                	cp	a, a
  3193  0caf  ed52              	sbc	hl, de
  3194  0cb1  2000              	jr	NZ,l_vdp_loadASCIIFont_00101
  3195  0cb3  dde1              	pop	ix
  3196  0cb5  c9                	ret
  3197                          	SECTION code_compiler
  3198                          ;	---------------------------------
  3199                          ; Function vdp_loadASCIIFontWithInverse
  3200                          ; ---------------------------------
  3201                          _vdp_loadASCIIFontWithInverse:
  3202  0cb6  dde5              	push	ix
  3203  0cb8  dd210000          	ld	ix,0
  3204  0cbc  dd39              	add	ix,sp
  3205  0cbe  2a0000            	ld	hl, (__vdpPatternGeneratorTableAddr)
  3206  0cc1  110000            	ld	de,0x0100
  3207  0cc4  19                	add	hl, de
  3208  0cc5  e5                	push	hl
  3209  0cc6  cd0000            	call	_vdp_setWriteAddress
  3210  0cc9  f1                	pop	af
  3211  0cca  dd4e00            	ld	c,(ix+4)
  3212  0ccd  dd4600            	ld	b,(ix+5)
  3213  0cd0  210000            	ld	hl,0x0300
  3214  0cd3  09                	add	hl, bc
  3215  0cd4  eb                	ex	de, hl
  3216                          l_vdp_loadASCIIFontWithInverse_00101:
  3217  0cd5  0a                	ld	a, (bc)
  3218  0cd6  d300              	out	(_IO_VDPDATA), a
  3219  0cd8  03                	inc	bc
  3220  0cd9  69                	ld	l, c
  3221  0cda  60                	ld	h, b
  3222  0cdb  bf                	cp	a, a
  3223  0cdc  ed52              	sbc	hl, de
  3224  0cde  2000              	jr	NZ,l_vdp_loadASCIIFontWithInverse_00101
  3225  0ce0  dd4e00            	ld	c,(ix+4)
  3226  0ce3  dd4600            	ld	b,(ix+5)
  3227                          l_vdp_loadASCIIFontWithInverse_00104:
  3228  0ce6  0a                	ld	a, (bc)
  3229  0ce7  2f                	cpl
  3230  0ce8  d300              	out	(_IO_VDPDATA), a
  3231  0cea  03                	inc	bc
  3232  0ceb  69                	ld	l, c
  3233  0cec  60                	ld	h, b
  3234  0ced  bf                	cp	a, a
  3235  0cee  ed52              	sbc	hl, de
  3236  0cf0  2000              	jr	NZ,l_vdp_loadASCIIFontWithInverse_00104
  3237  0cf2  dde1              	pop	ix
  3238  0cf4  c9                	ret
  3239                          	SECTION code_compiler
  3240                          ;	---------------------------------
  3241                          ; Function vdp_putPattern
  3242                          ; ---------------------------------
  3243                          _vdp_putPattern:
  3244  0cf5  dde5              	push	ix
  3245  0cf7  dd210000          	ld	ix,0
  3246  0cfb  dd39              	add	ix,sp
  3247  0cfd  210000            	ld	hl,__vdpCursorMaxXFull + 0
  3248  0d00  5e                	ld	e, (hl)
  3249  0d01  dd6600            	ld	h,(ix+5)
  3250  0d04  2e00              	ld	l,0x00
  3251  0d06  55                	ld	d, l
  3252  0d07  0600              	ld	b,0x08
  3253                          l_vdp_putPattern_00103:
  3254  0d09  29                	add	hl, hl
  3255  0d0a  3000              	jr	NC,l_vdp_putPattern_00104
  3256  0d0c  19                	add	hl, de
  3257                          l_vdp_putPattern_00104:
  3258  0d0d  1000              	djnz	l_vdp_putPattern_00103
  3259  0d0f  dd4e00            	ld	c,(ix+4)
  3260  0d12  0600              	ld	b,0x00
  3261  0d14  09                	add	hl, bc
  3262  0d15  eb                	ex	de, hl
  3263  0d16  2a0000            	ld	hl, (__vdpPatternNameTableAddr)
  3264  0d19  19                	add	hl, de
  3265  0d1a  d5                	push	de
  3266  0d1b  e5                	push	hl
  3267  0d1c  cd0000            	call	_vdp_setWriteAddress
  3268  0d1f  f1                	pop	af
  3269  0d20  d1                	pop	de
  3270  0d21  210000            	ld	hl,__vdp_textBuffer+0
  3271  0d24  19                	add	hl, de
  3272  0d25  dd7e00            	ld	a,(ix+6)
  3273  0d28  77                	ld	(hl), a
  3274  0d29  dd7e00            	ld	a,(ix+6)
  3275  0d2c  d300              	out	(_IO_VDPDATA), a
  3276  0d2e  dde1              	pop	ix
  3277  0d30  c9                	ret
  3278                          	SECTION code_compiler
  3279                          ;	---------------------------------
  3280                          ; Function vdp_loadPatternTable
  3281                          ; ---------------------------------
  3282                          _vdp_loadPatternTable:
  3283  0d31  dde5              	push	ix
  3284  0d33  dd210000          	ld	ix,0
  3285  0d37  dd39              	add	ix,sp
  3286  0d39  dd5e00            	ld	e,(ix+4)
  3287  0d3c  dd5600            	ld	d,(ix+5)
  3288  0d3f  dd6e00            	ld	l,(ix+6)
  3289  0d42  dd6600            	ld	h,(ix+7)
  3290  0d45  19                	add	hl, de
  3291  0d46  e5                	push	hl
  3292  0d47  d5                	push	de
  3293  0d48  2a0000            	ld	hl, (__vdpPatternGeneratorTableAddr)
  3294  0d4b  e5                	push	hl
  3295  0d4c  cd0000            	call	_vdp_setWriteAddress
  3296  0d4f  f1                	pop	af
  3297  0d50  d1                	pop	de
  3298  0d51  c1                	pop	bc
  3299                          l_vdp_loadPatternTable_00101:
  3300  0d52  1a                	ld	a, (de)
  3301  0d53  d300              	out	(_IO_VDPDATA), a
  3302  0d55  13                	inc	de
  3303  0d56  69                	ld	l, c
  3304  0d57  60                	ld	h, b
  3305  0d58  bf                	cp	a, a
  3306  0d59  ed52              	sbc	hl, de
  3307  0d5b  2000              	jr	NZ,l_vdp_loadPatternTable_00101
  3308  0d5d  3a0000            	ld	a, (__vdpSplitThirds+0)
  3309  0d60  b7                	or	a, a
  3310  0d61  2800              	jr	Z,l_vdp_loadPatternTable_00112
  3311  0d63  2a0000            	ld	hl, (__vdpPatternGeneratorTableAddr)
  3312  0d66  110000            	ld	de,0x0800
  3313  0d69  19                	add	hl, de
  3314  0d6a  c5                	push	bc
  3315  0d6b  e5                	push	hl
  3316  0d6c  cd0000            	call	_vdp_setWriteAddress
  3317  0d6f  f1                	pop	af
  3318  0d70  c1                	pop	bc
  3319  0d71  dd5e00            	ld	e,(ix+4)
  3320  0d74  dd5600            	ld	d,(ix+5)
  3321                          l_vdp_loadPatternTable_00104:
  3322  0d77  1a                	ld	a, (de)
  3323  0d78  d300              	out	(_IO_VDPDATA), a
  3324  0d7a  13                	inc	de
  3325  0d7b  6b                	ld	l, e
  3326  0d7c  62                	ld	h, d
  3327  0d7d  bf                	cp	a, a
  3328  0d7e  ed42              	sbc	hl, bc
  3329  0d80  2000              	jr	NZ,l_vdp_loadPatternTable_00104
  3330  0d82  2a0000            	ld	hl, (__vdpPatternGeneratorTableAddr)
  3331  0d85  110000            	ld	de,0x1000
  3332  0d88  19                	add	hl, de
  3333  0d89  c5                	push	bc
  3334  0d8a  e5                	push	hl
  3335  0d8b  cd0000            	call	_vdp_setWriteAddress
  3336  0d8e  f1                	pop	af
  3337  0d8f  c1                	pop	bc
  3338  0d90  dd5e00            	ld	e,(ix+4)
  3339  0d93  dd5600            	ld	d,(ix+5)
  3340                          l_vdp_loadPatternTable_00107:
  3341  0d96  1a                	ld	a, (de)
  3342  0d97  d300              	out	(_IO_VDPDATA), a
  3343  0d99  13                	inc	de
  3344  0d9a  6b                	ld	l, e
  3345  0d9b  62                	ld	h, d
  3346  0d9c  bf                	cp	a, a
  3347  0d9d  ed42              	sbc	hl, bc
  3348  0d9f  2000              	jr	NZ,l_vdp_loadPatternTable_00107
  3349                          l_vdp_loadPatternTable_00112:
  3350  0da1  dde1              	pop	ix
  3351  0da3  c9                	ret
  3352                          	SECTION code_compiler
  3353                          ;	---------------------------------
  3354                          ; Function vdp_loadColorTable
  3355                          ; ---------------------------------
  3356                          _vdp_loadColorTable:
  3357  0da4  dde5              	push	ix
  3358  0da6  dd210000          	ld	ix,0
  3359  0daa  dd39              	add	ix,sp
  3360  0dac  dd5e00            	ld	e,(ix+4)
  3361  0daf  dd5600            	ld	d,(ix+5)
  3362  0db2  dd6e00            	ld	l,(ix+6)
  3363  0db5  dd6600            	ld	h,(ix+7)
  3364  0db8  19                	add	hl, de
  3365  0db9  e5                	push	hl
  3366  0dba  d5                	push	de
  3367  0dbb  2a0000            	ld	hl, (__vdpColorTableAddr)
  3368  0dbe  e5                	push	hl
  3369  0dbf  cd0000            	call	_vdp_setWriteAddress
  3370  0dc2  f1                	pop	af
  3371  0dc3  d1                	pop	de
  3372  0dc4  c1                	pop	bc
  3373                          l_vdp_loadColorTable_00101:
  3374  0dc5  1a                	ld	a, (de)
  3375  0dc6  d300              	out	(_IO_VDPDATA), a
  3376  0dc8  13                	inc	de
  3377  0dc9  69                	ld	l, c
  3378  0dca  60                	ld	h, b
  3379  0dcb  bf                	cp	a, a
  3380  0dcc  ed52              	sbc	hl, de
  3381  0dce  2000              	jr	NZ,l_vdp_loadColorTable_00101
  3382  0dd0  3a0000            	ld	a, (__vdpSplitThirds+0)
  3383  0dd3  b7                	or	a, a
  3384  0dd4  2800              	jr	Z,l_vdp_loadColorTable_00112
  3385  0dd6  2a0000            	ld	hl, (__vdpColorTableAddr)
  3386  0dd9  110000            	ld	de,0x0800
  3387  0ddc  19                	add	hl, de
  3388  0ddd  c5                	push	bc
  3389  0dde  e5                	push	hl
  3390  0ddf  cd0000            	call	_vdp_setWriteAddress
  3391  0de2  f1                	pop	af
  3392  0de3  c1                	pop	bc
  3393  0de4  dd5e00            	ld	e,(ix+4)
  3394  0de7  dd5600            	ld	d,(ix+5)
  3395                          l_vdp_loadColorTable_00104:
  3396  0dea  1a                	ld	a, (de)
  3397  0deb  d300              	out	(_IO_VDPDATA), a
  3398  0ded  13                	inc	de
  3399  0dee  6b                	ld	l, e
  3400  0def  62                	ld	h, d
  3401  0df0  bf                	cp	a, a
  3402  0df1  ed42              	sbc	hl, bc
  3403  0df3  2000              	jr	NZ,l_vdp_loadColorTable_00104
  3404  0df5  2a0000            	ld	hl, (__vdpColorTableAddr)
  3405  0df8  110000            	ld	de,0x1000
  3406  0dfb  19                	add	hl, de
  3407  0dfc  c5                	push	bc
  3408  0dfd  e5                	push	hl
  3409  0dfe  cd0000            	call	_vdp_setWriteAddress
  3410  0e01  f1                	pop	af
  3411  0e02  c1                	pop	bc
  3412  0e03  dd5e00            	ld	e,(ix+4)
  3413  0e06  dd5600            	ld	d,(ix+5)
  3414                          l_vdp_loadColorTable_00107:
  3415  0e09  1a                	ld	a, (de)
  3416  0e0a  d300              	out	(_IO_VDPDATA), a
  3417  0e0c  13                	inc	de
  3418  0e0d  6b                	ld	l, e
  3419  0e0e  62                	ld	h, d
  3420  0e0f  bf                	cp	a, a
  3421  0e10  ed42              	sbc	hl, bc
  3422  0e12  2000              	jr	NZ,l_vdp_loadColorTable_00107
  3423                          l_vdp_loadColorTable_00112:
  3424  0e14  dde1              	pop	ix
  3425  0e16  c9                	ret
  3426                          	SECTION code_compiler
  3427                          ;	---------------------------------
  3428                          ; Function vdp_colorizePattern
  3429                          ; ---------------------------------
  3430                          _vdp_colorizePattern:
  3431  0e17  dde5              	push	ix
  3432  0e19  dd210000          	ld	ix,0
  3433  0e1d  dd39              	add	ix,sp
  3434  0e1f  3b                	dec	sp
  3435  0e20  dd6e00            	ld	l,(ix+4)
  3436  0e23  2600              	ld	h,0x00
  3437  0e25  29                	add	hl, hl
  3438  0e26  29                	add	hl, hl
  3439  0e27  29                	add	hl, hl
  3440  0e28  4d                	ld	c, l
  3441  0e29  44                	ld	b, h
  3442  0e2a  dd7e00            	ld	a,(ix+5)
  3443  0e2d  87                	add	a, a
  3444  0e2e  87                	add	a, a
  3445  0e2f  87                	add	a, a
  3446  0e30  87                	add	a, a
  3447  0e31  dd5e00            	ld	e,(ix+6)
  3448  0e34  83                	add	a, e
  3449  0e35  dd7700            	ld	(ix-1),a
  3450  0e38  2a0000            	ld	hl, (__vdpColorTableAddr)
  3451  0e3b  09                	add	hl, bc
  3452  0e3c  c5                	push	bc
  3453  0e3d  e5                	push	hl
  3454  0e3e  cd0000            	call	_vdp_setWriteAddress
  3455  0e41  f1                	pop	af
  3456  0e42  c1                	pop	bc
  3457  0e43  1e00              	ld	e,0x00
  3458                          l_vdp_colorizePattern_00107:
  3459  0e45  7b                	ld	a, e
  3460  0e46  d600              	sub	a,0x08
  3461  0e48  3000              	jr	NC,l_vdp_colorizePattern_00101
  3462  0e4a  dd7e00            	ld	a,(ix-1)
  3463  0e4d  d300              	out	(_IO_VDPDATA), a
  3464  0e4f  1c                	inc	e
  3465  0e50  1800              	jr	l_vdp_colorizePattern_00107
  3466                          l_vdp_colorizePattern_00101:
  3467  0e52  3a0000            	ld	a, (__vdpSplitThirds+0)
  3468  0e55  b7                	or	a, a
  3469  0e56  2800              	jr	Z,l_vdp_colorizePattern_00115
  3470  0e58  2a0000            	ld	hl, (__vdpColorTableAddr)
  3471  0e5b  110000            	ld	de,0x0800
  3472  0e5e  19                	add	hl, de
  3473  0e5f  09                	add	hl, bc
  3474  0e60  c5                	push	bc
  3475  0e61  e5                	push	hl
  3476  0e62  cd0000            	call	_vdp_setWriteAddress
  3477  0e65  f1                	pop	af
  3478  0e66  c1                	pop	bc
  3479  0e67  1e00              	ld	e,0x00
  3480                          l_vdp_colorizePattern_00110:
  3481  0e69  7b                	ld	a, e
  3482  0e6a  d600              	sub	a,0x08
  3483  0e6c  3000              	jr	NC,l_vdp_colorizePattern_00102
  3484  0e6e  dd7e00            	ld	a,(ix-1)
  3485  0e71  d300              	out	(_IO_VDPDATA), a
  3486  0e73  1c                	inc	e
  3487  0e74  1800              	jr	l_vdp_colorizePattern_00110
  3488                          l_vdp_colorizePattern_00102:
  3489  0e76  2a0000            	ld	hl, (__vdpColorTableAddr)
  3490  0e79  110000            	ld	de,0x1000
  3491  0e7c  19                	add	hl, de
  3492  0e7d  09                	add	hl, bc
  3493  0e7e  e5                	push	hl
  3494  0e7f  cd0000            	call	_vdp_setWriteAddress
  3495  0e82  f1                	pop	af
  3496  0e83  0e00              	ld	c,0x00
  3497                          l_vdp_colorizePattern_00113:
  3498  0e85  79                	ld	a, c
  3499  0e86  d600              	sub	a,0x08
  3500  0e88  3000              	jr	NC,l_vdp_colorizePattern_00115
  3501  0e8a  dd7e00            	ld	a,(ix-1)
  3502  0e8d  d300              	out	(_IO_VDPDATA), a
  3503  0e8f  0c                	inc	c
  3504  0e90  1800              	jr	l_vdp_colorizePattern_00113
  3505                          l_vdp_colorizePattern_00115:
  3506  0e92  33                	inc	sp
  3507  0e93  dde1              	pop	ix
  3508  0e95  c9                	ret
  3509                          	SECTION code_compiler
  3510                          ;	---------------------------------
  3511                          ; Function vdp_plotHires
  3512                          ; ---------------------------------
  3513                          _vdp_plotHires:
  3514  0e96  dde5              	push	ix
  3515  0e98  dd210000          	ld	ix,0
  3516  0e9c  dd39              	add	ix,sp
  3517  0e9e  f5                	push	af
  3518  0e9f  3b                	dec	sp
  3519  0ea0  dd7e00            	ld	a,(ix+4)
  3520  0ea3  dd7700            	ld	(ix-3),a
  3521  0ea6  dd360000          	ld	(ix-2),0x00
  3522  0eaa  e1                	pop	hl
  3523  0eab  e5                	push	hl
  3524  0eac  ddcb007e          	bit	7,(ix-2)
  3525  0eb0  2800              	jr	Z,l_vdp_plotHires_00106
  3526  0eb2  e1                	pop	hl
  3527  0eb3  e5                	push	hl
  3528  0eb4  110000            	ld	de,0x0007
  3529  0eb7  19                	add	hl, de
  3530                          l_vdp_plotHires_00106:
  3531  0eb8  cb2c              	sra	h
  3532  0eba  cb1d              	rr	l
  3533  0ebc  cb2c              	sra	h
  3534  0ebe  cb1d              	rr	l
  3535  0ec0  cb2c              	sra	h
  3536  0ec2  cb1d              	rr	l
  3537  0ec4  29                	add	hl, hl
  3538  0ec5  29                	add	hl, hl
  3539  0ec6  29                	add	hl, hl
  3540  0ec7  dd4e00            	ld	c,(ix+5)
  3541  0eca  0600              	ld	b,0x00
  3542  0ecc  79                	ld	a, c
  3543  0ecd  e600              	and	a,0x07
  3544  0ecf  5f                	ld	e, a
  3545  0ed0  1600              	ld	d,0x00
  3546  0ed2  19                	add	hl, de
  3547  0ed3  eb                	ex	de, hl
  3548  0ed4  69                	ld	l, c
  3549  0ed5  60                	ld	h, b
  3550  0ed6  cb78              	bit	7, b
  3551  0ed8  2800              	jr	Z,l_vdp_plotHires_00107
  3552  0eda  210000            	ld	hl,0x0007
  3553  0edd  09                	add	hl, bc
  3554                          l_vdp_plotHires_00107:
  3555  0ede  cb2c              	sra	h
  3556  0ee0  cb1d              	rr	l
  3557  0ee2  cb2c              	sra	h
  3558  0ee4  cb1d              	rr	l
  3559  0ee6  cb2c              	sra	h
  3560  0ee8  cb1d              	rr	l
  3561  0eea  65                	ld	h, l
  3562  0eeb  2e00              	ld	l,0x00
  3563  0eed  19                	add	hl, de
  3564  0eee  eb                	ex	de, hl
  3565  0eef  2a0000            	ld	hl, (__vdpPatternGeneratorTableAddr)
  3566  0ef2  19                	add	hl, de
  3567  0ef3  d5                	push	de
  3568  0ef4  e5                	push	hl
  3569  0ef5  cd0000            	call	_vdp_setReadAddress
  3570  0ef8  f1                	pop	af
  3571  0ef9  d1                	pop	de
  3572  0efa  db00              	in	a, (_IO_VDPDATA)
  3573  0efc  dd7700            	ld	(ix-1),a
  3574  0eff  2a0000            	ld	hl, (__vdpColorTableAddr)
  3575  0f02  19                	add	hl, de
  3576  0f03  d5                	push	de
  3577  0f04  e5                	push	hl
  3578  0f05  cd0000            	call	_vdp_setReadAddress
  3579  0f08  f1                	pop	af
  3580  0f09  d1                	pop	de
  3581  0f0a  db00              	in	a, (_IO_VDPDATA)
  3582  0f0c  6f                	ld	l, a
  3583  0f0d  dd7e00            	ld	a,(ix-3)
  3584  0f10  e600              	and	a,0x07
  3585  0f12  f5                	push	af
  3586  0f13  010000            	ld	bc,0x0080
  3587  0f16  f1                	pop	af
  3588  0f17  3c                	inc	a
  3589  0f18  1800              	jr	l_vdp_plotHires_00124
  3590                          l_vdp_plotHires_00123:
  3591  0f1a  cb28              	sra	b
  3592  0f1c  cb19              	rr	c
  3593                          l_vdp_plotHires_00124:
  3594  0f1e  3d                	dec	a
  3595  0f1f  2000              	jr	NZ, l_vdp_plotHires_00123
  3596  0f21  dd7e00            	ld	a,(ix+6)
  3597  0f24  b7                	or	a, a
  3598  0f25  2800              	jr	Z,l_vdp_plotHires_00102
  3599  0f27  79                	ld	a, c
  3600  0f28  ddb600            	or	a,(ix-1)
  3601  0f2b  4f                	ld	c, a
  3602  0f2c  7d                	ld	a, l
  3603  0f2d  e600              	and	a,0x0f
  3604  0f2f  6f                	ld	l, a
  3605  0f30  dd7e00            	ld	a,(ix+6)
  3606  0f33  87                	add	a, a
  3607  0f34  87                	add	a, a
  3608  0f35  87                	add	a, a
  3609  0f36  87                	add	a, a
  3610  0f37  b5                	or	a, l
  3611  0f38  47                	ld	b, a
  3612  0f39  1800              	jr	l_vdp_plotHires_00103
  3613                          l_vdp_plotHires_00102:
  3614  0f3b  79                	ld	a, c
  3615  0f3c  2f                	cpl
  3616  0f3d  dda600            	and	a,(ix-1)
  3617  0f40  4f                	ld	c, a
  3618  0f41  7d                	ld	a, l
  3619  0f42  e600              	and	a,0xf0
  3620  0f44  6f                	ld	l, a
  3621  0f45  dd7e00            	ld	a,(ix+7)
  3622  0f48  e600              	and	a,0x0f
  3623  0f4a  b5                	or	a, l
  3624  0f4b  47                	ld	b, a
  3625                          l_vdp_plotHires_00103:
  3626  0f4c  fd2a0000          	ld	iy, (__vdpPatternGeneratorTableAddr)
  3627  0f50  fd19              	add	iy, de
  3628  0f52  c5                	push	bc
  3629  0f53  d5                	push	de
  3630  0f54  fde5              	push	iy
  3631  0f56  cd0000            	call	_vdp_setWriteAddress
  3632  0f59  f1                	pop	af
  3633  0f5a  d1                	pop	de
  3634  0f5b  c1                	pop	bc
  3635  0f5c  79                	ld	a, c
  3636  0f5d  d300              	out	(_IO_VDPDATA), a
  3637  0f5f  fd2a0000          	ld	iy, (__vdpColorTableAddr)
  3638  0f63  fd19              	add	iy, de
  3639  0f65  c5                	push	bc
  3640  0f66  fde5              	push	iy
  3641  0f68  cd0000            	call	_vdp_setWriteAddress
  3642  0f6b  f1                	pop	af
  3643  0f6c  c1                	pop	bc
  3644  0f6d  78                	ld	a, b
  3645  0f6e  d300              	out	(_IO_VDPDATA), a
  3646  0f70  ddf9              	ld	sp, ix
  3647  0f72  dde1              	pop	ix
  3648  0f74  c9                	ret
  3649                          	SECTION code_compiler
  3650                          ;	---------------------------------
  3651                          ; Function vdp_plotColor
  3652                          ; ---------------------------------
  3653                          _vdp_plotColor:
  3654  0f75  dde5              	push	ix
  3655  0f77  dd210000          	ld	ix,0
  3656  0f7b  dd39              	add	ix,sp
  3657  0f7d  3b                	dec	sp
  3658  0f7e  3a0000            	ld	a, (__vdpMode+0)
  3659  0f81  d600              	sub	a,0x02
  3660  0f83  2000              	jr	NZ,l_vdp_plotColor_00110
  3661  0f85  dd5e00            	ld	e,(ix+4)
  3662  0f88  1600              	ld	d,0x00
  3663  0f8a  6b                	ld	l, e
  3664  0f8b  62                	ld	h, d
  3665  0f8c  cb7a              	bit	7, d
  3666  0f8e  2800              	jr	Z,l_vdp_plotColor_00114
  3667  0f90  eb                	ex	de, hl
  3668  0f91  23                	inc	hl
  3669                          l_vdp_plotColor_00114:
  3670  0f92  cb2c              	sra	h
  3671  0f94  cb1d              	rr	l
  3672  0f96  29                	add	hl, hl
  3673  0f97  29                	add	hl, hl
  3674  0f98  29                	add	hl, hl
  3675  0f99  eb                	ex	de, hl
  3676  0f9a  2a0000            	ld	hl, (__vdpPatternGeneratorTableAddr)
  3677  0f9d  19                	add	hl, de
  3678  0f9e  dd4e00            	ld	c,(ix+5)
  3679  0fa1  0600              	ld	b,0x00
  3680  0fa3  79                	ld	a, c
  3681  0fa4  e600              	and	a,0x07
  3682  0fa6  5f                	ld	e, a
  3683  0fa7  1600              	ld	d,0x00
  3684  0fa9  19                	add	hl, de
  3685  0faa  eb                	ex	de, hl
  3686  0fab  69                	ld	l, c
  3687  0fac  60                	ld	h, b
  3688  0fad  cb78              	bit	7, b
  3689  0faf  2800              	jr	Z,l_vdp_plotColor_00115
  3690  0fb1  210000            	ld	hl,0x0007
  3691  0fb4  09                	add	hl, bc
  3692                          l_vdp_plotColor_00115:
  3693  0fb5  cb2c              	sra	h
  3694  0fb7  cb1d              	rr	l
  3695  0fb9  cb2c              	sra	h
  3696  0fbb  cb1d              	rr	l
  3697  0fbd  cb2c              	sra	h
  3698  0fbf  cb1d              	rr	l
  3699  0fc1  65                	ld	h, l
  3700  0fc2  2e00              	ld	l,0x00
  3701  0fc4  19                	add	hl, de
  3702  0fc5  e5                	push	hl
  3703  0fc6  e5                	push	hl
  3704  0fc7  cd0000            	call	_vdp_setReadAddress
  3705  0fca  f1                	pop	af
  3706  0fcb  e1                	pop	hl
  3707  0fcc  db00              	in	a, (_IO_VDPDATA)
  3708  0fce  47                	ld	b, a
  3709  0fcf  c5                	push	bc
  3710  0fd0  e5                	push	hl
  3711  0fd1  cd0000            	call	_vdp_setWriteAddress
  3712  0fd4  f1                	pop	af
  3713  0fd5  c1                	pop	bc
  3714  0fd6  dd4e00            	ld	c,(ix+4)
  3715  0fd9  78                	ld	a, b
  3716  0fda  cb41              	bit	0, c
  3717  0fdc  2800              	jr	Z,l_vdp_plotColor_00102
  3718  0fde  e600              	and	a,0xf0
  3719  0fe0  4f                	ld	c, a
  3720  0fe1  dd7e00            	ld	a,(ix+6)
  3721  0fe4  e600              	and	a,0x0f
  3722  0fe6  81                	add	a, c
  3723  0fe7  d300              	out	(_IO_VDPDATA), a
  3724  0fe9  c30000            	jp	l_vdp_plotColor_00112
  3725                          l_vdp_plotColor_00102:
  3726  0fec  e600              	and	a,0x0f
  3727  0fee  4f                	ld	c, a
  3728  0fef  dd7e00            	ld	a,(ix+6)
  3729  0ff2  87                	add	a, a
  3730  0ff3  87                	add	a, a
  3731  0ff4  87                	add	a, a
  3732  0ff5  87                	add	a, a
  3733  0ff6  81                	add	a, c
  3734  0ff7  d300              	out	(_IO_VDPDATA), a
  3735  0ff9  c30000            	jp	l_vdp_plotColor_00112
  3736                          l_vdp_plotColor_00110:
  3737  0ffc  3a0000            	ld	a, (__vdpMode+0)
  3738  0fff  3d                	dec	a
  3739  1000  c20000            	jp	NZ,l_vdp_plotColor_00112
  3740  1003  dd5e00            	ld	e,(ix+4)
  3741  1006  1600              	ld	d,0x00
  3742  1008  6b                	ld	l, e
  3743  1009  62                	ld	h, d
  3744  100a  cb7a              	bit	7, d
  3745  100c  2800              	jr	Z,l_vdp_plotColor_00116
  3746  100e  eb                	ex	de, hl
  3747  100f  23                	inc	hl
  3748                          l_vdp_plotColor_00116:
  3749  1010  cb2c              	sra	h
  3750  1012  cb1d              	rr	l
  3751  1014  29                	add	hl, hl
  3752  1015  29                	add	hl, hl
  3753  1016  29                	add	hl, hl
  3754  1017  dd4e00            	ld	c,(ix+5)
  3755  101a  0600              	ld	b,0x00
  3756  101c  79                	ld	a, c
  3757  101d  e600              	and	a,0x07
  3758  101f  5f                	ld	e, a
  3759  1020  1600              	ld	d,0x00
  3760  1022  19                	add	hl, de
  3761  1023  eb                	ex	de, hl
  3762  1024  69                	ld	l, c
  3763  1025  60                	ld	h, b
  3764  1026  cb78              	bit	7, b
  3765  1028  2800              	jr	Z,l_vdp_plotColor_00117
  3766  102a  210000            	ld	hl,0x0007
  3767  102d  09                	add	hl, bc
  3768                          l_vdp_plotColor_00117:
  3769  102e  cb2c              	sra	h
  3770  1030  cb1d              	rr	l
  3771  1032  cb2c              	sra	h
  3772  1034  cb1d              	rr	l
  3773  1036  cb2c              	sra	h
  3774  1038  cb1d              	rr	l
  3775  103a  65                	ld	h, l
  3776  103b  2e00              	ld	l,0x00
  3777  103d  19                	add	hl, de
  3778  103e  eb                	ex	de, hl
  3779  103f  2a0000            	ld	hl, (__vdpColorTableAddr)
  3780  1042  19                	add	hl, de
  3781  1043  d5                	push	de
  3782  1044  e5                	push	hl
  3783  1045  cd0000            	call	_vdp_setReadAddress
  3784  1048  f1                	pop	af
  3785  1049  d1                	pop	de
  3786  104a  db00              	in	a, (_IO_VDPDATA)
  3787  104c  dd4e00            	ld	c,(ix+4)
  3788  104f  cb41              	bit	0, c
  3789  1051  2000              	jr	NZ,l_vdp_plotColor_00105
  3790  1053  e600              	and	a,0x0f
  3791  1055  4f                	ld	c, a
  3792  1056  dd7e00            	ld	a,(ix+6)
  3793  1059  87                	add	a, a
  3794  105a  87                	add	a, a
  3795  105b  87                	add	a, a
  3796  105c  87                	add	a, a
  3797  105d  b1                	or	a, c
  3798  105e  dd7700            	ld	(ix-1),a
  3799  1061  1800              	jr	l_vdp_plotColor_00106
  3800                          l_vdp_plotColor_00105:
  3801  1063  e600              	and	a,0xf0
  3802  1065  4f                	ld	c, a
  3803  1066  dd7e00            	ld	a,(ix+6)
  3804  1069  e600              	and	a,0x0f
  3805  106b  b1                	or	a, c
  3806  106c  dd7700            	ld	(ix-1),a
  3807                          l_vdp_plotColor_00106:
  3808  106f  2a0000            	ld	hl, (__vdpPatternGeneratorTableAddr)
  3809  1072  19                	add	hl, de
  3810  1073  d5                	push	de
  3811  1074  e5                	push	hl
  3812  1075  cd0000            	call	_vdp_setWriteAddress
  3813  1078  f1                	pop	af
  3814  1079  d1                	pop	de
  3815  107a  3e00              	ld	a,0xf0
  3816  107c  d300              	out	(_IO_VDPDATA), a
  3817  107e  2a0000            	ld	hl, (__vdpColorTableAddr)
  3818  1081  19                	add	hl, de
  3819  1082  e5                	push	hl
  3820  1083  cd0000            	call	_vdp_setWriteAddress
  3821  1086  f1                	pop	af
  3822  1087  dd7e00            	ld	a,(ix-1)
  3823  108a  d300              	out	(_IO_VDPDATA), a
  3824                          l_vdp_plotColor_00112:
  3825  108c  33                	inc	sp
  3826  108d  dde1              	pop	ix
  3827  108f  c9                	ret
  3828                          	SECTION code_compiler
  3829                          ;	---------------------------------
  3830                          ; Function vdp_disableSprite
  3831                          ; ---------------------------------
  3832                          _vdp_disableSprite:
  3833  1090  fd210000          	ld	iy,2
  3834  1094  fd39              	add	iy, sp
  3835  1096  fd6e00            	ld	l,(iy+0)
  3836  1099  2600              	ld	h,0x00
  3837  109b  29                	add	hl, hl
  3838  109c  29                	add	hl, hl
  3839  109d  eb                	ex	de, hl
  3840  109e  2a0000            	ld	hl, (__vdpSpriteAttributeTableAddr)
  3841  10a1  19                	add	hl, de
  3842  10a2  e5                	push	hl
  3843  10a3  cd0000            	call	_vdp_setWriteAddress
  3844  10a6  f1                	pop	af
  3845  10a7  3e00              	ld	a,0xc0
  3846  10a9  d300              	out	(_IO_VDPDATA), a
  3847  10ab  3e00              	ld	a,0x00
  3848  10ad  d300              	out	(_IO_VDPDATA), a
  3849  10af  3e00              	ld	a,0x00
  3850  10b1  d300              	out	(_IO_VDPDATA), a
  3851  10b3  3e00              	ld	a,0x80
  3852  10b5  d300              	out	(_IO_VDPDATA), a
  3853  10b7  c9                	ret
  3854                          	SECTION code_compiler
  3855                          ;	---------------------------------
  3856                          ; Function vdp_loadSpritePatternNameTable
  3857                          ; ---------------------------------
  3858                          _vdp_loadSpritePatternNameTable:
  3859  10b8  dde5              	push	ix
  3860  10ba  dd210000          	ld	ix,0
  3861  10be  dd39              	add	ix,sp
  3862  10c0  0600              	ld	b,0x00
  3863                          l_vdp_loadSpritePatternNameTable_00108:
  3864  10c2  78                	ld	a, b
  3865  10c3  d600              	sub	a,0x20
  3866  10c5  3000              	jr	NC,l_vdp_loadSpritePatternNameTable_00101
  3867  10c7  c5                	push	bc
  3868  10c8  c5                	push	bc
  3869  10c9  33                	inc	sp
  3870  10ca  cd0000            	call	_vdp_disableSprite
  3871  10cd  33                	inc	sp
  3872  10ce  c1                	pop	bc
  3873  10cf  04                	inc	b
  3874  10d0  1800              	jr	l_vdp_loadSpritePatternNameTable_00108
  3875                          l_vdp_loadSpritePatternNameTable_00101:
  3876  10d2  3a0000            	ld	a, (__vdpSpriteSizeSelected+0)
  3877  10d5  b7                	or	a, a
  3878  10d6  2800              	jr	Z,l_vdp_loadSpritePatternNameTable_00105
  3879  10d8  2a0000            	ld	hl, (__vdpSpriteGeneratorTableAddr)
  3880  10db  e5                	push	hl
  3881  10dc  cd0000            	call	_vdp_setWriteAddress
  3882  10df  f1                	pop	af
  3883  10e0  dd6e00            	ld	l,(ix+4)
  3884  10e3  dd6600            	ld	h,(ix+5)
  3885  10e6  29                	add	hl, hl
  3886  10e7  29                	add	hl, hl
  3887  10e8  29                	add	hl, hl
  3888  10e9  29                	add	hl, hl
  3889  10ea  29                	add	hl, hl
  3890  10eb  eb                	ex	de,hl
  3891  10ec  010000            	ld	bc,0x0000
  3892                          l_vdp_loadSpritePatternNameTable_00111:
  3893  10ef  79                	ld	a, c
  3894  10f0  93                	sub	a, e
  3895  10f1  78                	ld	a, b
  3896  10f2  9a                	sbc	a, d
  3897  10f3  3000              	jr	NC,l_vdp_loadSpritePatternNameTable_00116
  3898  10f5  dd6e00            	ld	l,(ix+6)
  3899  10f8  dd6600            	ld	h,(ix+7)
  3900  10fb  09                	add	hl, bc
  3901  10fc  7e                	ld	a, (hl)
  3902  10fd  d300              	out	(_IO_VDPDATA), a
  3903  10ff  03                	inc	bc
  3904  1100  1800              	jr	l_vdp_loadSpritePatternNameTable_00111
  3905                          l_vdp_loadSpritePatternNameTable_00105:
  3906  1102  2a0000            	ld	hl, (__vdpSpriteGeneratorTableAddr)
  3907  1105  e5                	push	hl
  3908  1106  cd0000            	call	_vdp_setWriteAddress
  3909  1109  f1                	pop	af
  3910  110a  dd6e00            	ld	l,(ix+4)
  3911  110d  dd6600            	ld	h,(ix+5)
  3912  1110  29                	add	hl, hl
  3913  1111  29                	add	hl, hl
  3914  1112  29                	add	hl, hl
  3915  1113  eb                	ex	de,hl
  3916  1114  010000            	ld	bc,0x0000
  3917                          l_vdp_loadSpritePatternNameTable_00114:
  3918  1117  79                	ld	a, c
  3919  1118  93                	sub	a, e
  3920  1119  78                	ld	a, b
  3921  111a  9a                	sbc	a, d
  3922  111b  3000              	jr	NC,l_vdp_loadSpritePatternNameTable_00116
  3923  111d  dd6e00            	ld	l,(ix+6)
  3924  1120  dd6600            	ld	h,(ix+7)
  3925  1123  09                	add	hl, bc
  3926  1124  7e                	ld	a, (hl)
  3927  1125  d300              	out	(_IO_VDPDATA), a
  3928  1127  03                	inc	bc
  3929  1128  1800              	jr	l_vdp_loadSpritePatternNameTable_00114
  3930                          l_vdp_loadSpritePatternNameTable_00116:
  3931  112a  dde1              	pop	ix
  3932  112c  c9                	ret
  3933                          	SECTION code_compiler
  3934                          ;	---------------------------------
  3935                          ; Function vdp_spriteInit
  3936                          ; ---------------------------------
  3937                          _vdp_spriteInit:
  3938  112d  dde5              	push	ix
  3939  112f  dd210000          	ld	ix,0
  3940  1133  dd39              	add	ix,sp
  3941  1135  dd6e00            	ld	l,(ix+4)
  3942  1138  2600              	ld	h,0x00
  3943  113a  29                	add	hl, hl
  3944  113b  29                	add	hl, hl
  3945  113c  eb                	ex	de, hl
  3946  113d  2a0000            	ld	hl, (__vdpSpriteAttributeTableAddr)
  3947  1140  19                	add	hl, de
  3948  1141  e5                	push	hl
  3949  1142  cd0000            	call	_vdp_setWriteAddress
  3950  1145  f1                	pop	af
  3951  1146  dd7e00            	ld	a,(ix+7)
  3952  1149  d300              	out	(_IO_VDPDATA), a
  3953  114b  dd7e00            	ld	a,(ix+6)
  3954  114e  d300              	out	(_IO_VDPDATA), a
  3955  1150  dd4e00            	ld	c,(ix+5)
  3956  1153  3a0000            	ld	a, (__vdpSpriteSizeSelected+0)
  3957  1156  b7                	or	a, a
  3958  1157  2800              	jr	Z,l_vdp_spriteInit_00102
  3959  1159  79                	ld	a, c
  3960  115a  87                	add	a, a
  3961  115b  87                	add	a, a
  3962  115c  d300              	out	(_IO_VDPDATA), a
  3963  115e  1800              	jr	l_vdp_spriteInit_00103
  3964                          l_vdp_spriteInit_00102:
  3965  1160  79                	ld	a, c
  3966  1161  d300              	out	(_IO_VDPDATA), a
  3967                          l_vdp_spriteInit_00103:
  3968  1163  dd7e00            	ld	a,(ix+8)
  3969  1166  e600              	and	a,0x0f
  3970  1168  d300              	out	(_IO_VDPDATA), a
  3971  116a  dd6e00            	ld	l,(ix+4)
  3972  116d  dde1              	pop	ix
  3973  116f  c9                	ret
  3974                          	SECTION code_compiler
  3975                          ;	---------------------------------
  3976                          ; Function vdp_setSpriteColor
  3977                          ; ---------------------------------
  3978                          _vdp_setSpriteColor:
  3979  1170  fd210000          	ld	iy,2
  3980  1174  fd39              	add	iy, sp
  3981  1176  fd6e00            	ld	l,(iy+0)
  3982  1179  2600              	ld	h,0x00
  3983  117b  29                	add	hl, hl
  3984  117c  29                	add	hl, hl
  3985  117d  eb                	ex	de, hl
  3986  117e  2a0000            	ld	hl, (__vdpSpriteAttributeTableAddr)
  3987  1181  19                	add	hl, de
  3988  1182  23                	inc	hl
  3989  1183  23                	inc	hl
  3990  1184  23                	inc	hl
  3991  1185  e5                	push	hl
  3992  1186  cd0000            	call	_vdp_setWriteAddress
  3993  1189  f1                	pop	af
  3994  118a  210000            	ld	hl,3+0
  3995  118d  39                	add	hl, sp
  3996  118e  7e                	ld	a, (hl)
  3997  118f  e600              	and	a,0x0f
  3998  1191  d300              	out	(_IO_VDPDATA), a
  3999  1193  c9                	ret
  4000                          	SECTION code_compiler
  4001                          ;	---------------------------------
  4002                          ; Function vdp_setSpritePosition
  4003                          ; ---------------------------------
  4004                          _vdp_setSpritePosition:
  4005  1194  fd210000          	ld	iy,2
  4006  1198  fd39              	add	iy, sp
  4007  119a  fd6e00            	ld	l,(iy+0)
  4008  119d  2600              	ld	h,0x00
  4009  119f  29                	add	hl, hl
  4010  11a0  29                	add	hl, hl
  4011  11a1  eb                	ex	de, hl
  4012  11a2  2a0000            	ld	hl, (__vdpSpriteAttributeTableAddr)
  4013  11a5  19                	add	hl, de
  4014  11a6  e5                	push	hl
  4015  11a7  cd0000            	call	_vdp_setWriteAddress
  4016  11aa  f1                	pop	af
  4017  11ab  fd210000          	ld	iy,4
  4018  11af  fd39              	add	iy, sp
  4019  11b1  fd7e00            	ld	a,(iy+0)
  4020  11b4  d300              	out	(_IO_VDPDATA), a
  4021  11b6  fd2b              	dec	iy
  4022  11b8  fd7e00            	ld	a,(iy+0)
  4023  11bb  d300              	out	(_IO_VDPDATA), a
  4024  11bd  c9                	ret
  4025                          	SECTION code_compiler
  4026                          ;	---------------------------------
  4027                          ; Function vdp_setSpritePositionAndColor
  4028                          ; ---------------------------------
  4029                          _vdp_setSpritePositionAndColor:
  4030  11be  fd210000          	ld	iy,2
  4031  11c2  fd39              	add	iy, sp
  4032  11c4  fd6e00            	ld	l,(iy+0)
  4033  11c7  2600              	ld	h,0x00
  4034  11c9  29                	add	hl, hl
  4035  11ca  29                	add	hl, hl
  4036  11cb  eb                	ex	de, hl
  4037  11cc  2a0000            	ld	hl, (__vdpSpriteAttributeTableAddr)
  4038  11cf  19                	add	hl, de
  4039  11d0  e5                	push	hl
  4040  11d1  cd0000            	call	_vdp_setWriteAddress
  4041  11d4  f1                	pop	af
  4042  11d5  fd210000          	ld	iy,4
  4043  11d9  fd39              	add	iy, sp
  4044  11db  fd7e00            	ld	a,(iy+0)
  4045  11de  d300              	out	(_IO_VDPDATA), a
  4046  11e0  fd2b              	dec	iy
  4047  11e2  fd7e00            	ld	a,(iy+0)
  4048  11e5  d300              	out	(_IO_VDPDATA), a
  4049  11e7  fd2b              	dec	iy
  4050  11e9  fd7e00            	ld	a,(iy+0)
  4051  11ec  d300              	out	(_IO_VDPDATA), a
  4052  11ee  fd7e00            	ld	a,(iy+0+1+1+1)
  4053  11f1  e600              	and	a,0x0f
  4054  11f3  d300              	out	(_IO_VDPDATA), a
  4055  11f5  c9                	ret
  4056                          	SECTION code_compiler
  4057                          ;	---------------------------------
  4058                          ; Function vdp_getSpritePosition
  4059                          ; ---------------------------------
  4060                          _vdp_getSpritePosition:
  4061  11f6  fd210000          	ld	iy,2
  4062  11fa  fd39              	add	iy, sp
  4063  11fc  fd6e00            	ld	l,(iy+0)
  4064  11ff  2600              	ld	h,0x00
  4065  1201  29                	add	hl, hl
  4066  1202  29                	add	hl, hl
  4067  1203  eb                	ex	de, hl
  4068  1204  2a0000            	ld	hl, (__vdpSpriteAttributeTableAddr)
  4069  1207  19                	add	hl, de
  4070  1208  e5                	push	hl
  4071  1209  cd0000            	call	_vdp_setReadAddress
  4072  120c  f1                	pop	af
  4073  120d  fd210000          	ld	iy,5
  4074  1211  fd39              	add	iy, sp
  4075  1213  fd4e00            	ld	c,(iy+0)
  4076  1216  fd4600            	ld	b,(iy+1)
  4077  1219  db00              	in	a, (_IO_VDPDATA)
  4078  121b  02                	ld	(bc), a
  4079  121c  fd2b              	dec	iy
  4080  121e  fd2b              	dec	iy
  4081  1220  fd4e00            	ld	c,(iy+0)
  4082  1223  fd4600            	ld	b,(iy+1)
  4083  1226  db00              	in	a, (_IO_VDPDATA)
  4084  1228  02                	ld	(bc), a
  4085  1229  c9                	ret
  4086                          	SECTION code_compiler
  4087                          ;	---------------------------------
  4088                          ; Function vdp_print
  4089                          ; ---------------------------------
  4090                          _vdp_print:
  4091  122a  210000            	ld	hl,2
  4092  122d  39                	add	hl, sp
  4093  122e  4e                	ld	c, (hl)
  4094  122f  23                	inc	hl
  4095  1230  46                	ld	b, (hl)
  4096                          l_vdp_print_00101:
  4097  1231  0a                	ld	a, (bc)
  4098  1232  b7                	or	a, a
  4099  1233  c8                	ret	Z
  4100  1234  c5                	push	bc
  4101  1235  f5                	push	af
  4102  1236  33                	inc	sp
  4103  1237  cd0000            	call	_vdp_write
  4104  123a  33                	inc	sp
  4105  123b  c1                	pop	bc
  4106  123c  03                	inc	bc
  4107  123d  1800              	jr	l_vdp_print_00101
  4108                          	SECTION code_compiler
  4109                          ;	---------------------------------
  4110                          ; Function vdp_printColorized
  4111                          ; ---------------------------------
  4112                          _vdp_printColorized:
  4113  123f  fd210000          	ld	iy,2
  4114  1243  fd39              	add	iy, sp
  4115  1245  fd4e00            	ld	c,(iy+0)
  4116  1248  fd4600            	ld	b,(iy+1)
  4117                          l_vdp_printColorized_00101:
  4118  124b  0a                	ld	a, (bc)
  4119  124c  b7                	or	a, a
  4120  124d  c8                	ret	Z
  4121  124e  c5                	push	bc
  4122  124f  fd210000          	ld	iy,7
  4123  1253  fd39              	add	iy, sp
  4124  1255  fd6600            	ld	h,(iy+0)
  4125  1258  e5                	push	hl
  4126  1259  33                	inc	sp
  4127  125a  fd2b              	dec	iy
  4128  125c  fd6600            	ld	h,(iy+0)
  4129  125f  e5                	push	hl
  4130  1260  33                	inc	sp
  4131  1261  f5                	push	af
  4132  1262  33                	inc	sp
  4133  1263  cd0000            	call	_vdp_colorizePattern
  4134  1266  f1                	pop	af
  4135  1267  33                	inc	sp
  4136  1268  c1                	pop	bc
  4137  1269  0a                	ld	a, (bc)
  4138  126a  c5                	push	bc
  4139  126b  f5                	push	af
  4140  126c  33                	inc	sp
  4141  126d  cd0000            	call	_vdp_write
  4142  1270  33                	inc	sp
  4143  1271  c1                	pop	bc
  4144  1272  03                	inc	bc
  4145  1273  1800              	jr	l_vdp_printColorized_00101
  4146                          	SECTION code_compiler
  4147                          ;	---------------------------------
  4148                          ; Function vdp_printPart
  4149                          ; ---------------------------------
  4150                          _vdp_printPart:
  4151  1275  dde5              	push	ix
  4152  1277  dd210000          	ld	ix,0
  4153  127b  dd39              	add	ix,sp
  4154  127d  dd7e00            	ld	a,(ix+8)
  4155  1280  dd8600            	add	a,(ix+4)
  4156  1283  4f                	ld	c, a
  4157  1284  dd7e00            	ld	a,(ix+9)
  4158  1287  dd8e00            	adc	a,(ix+5)
  4159  128a  47                	ld	b, a
  4160  128b  dd6e00            	ld	l,(ix+6)
  4161  128e  dd6600            	ld	h,(ix+7)
  4162  1291  09                	add	hl, bc
  4163  1292  eb                	ex	de, hl
  4164                          l_vdp_printPart_00101:
  4165  1293  69                	ld	l, c
  4166  1294  60                	ld	h, b
  4167  1295  bf                	cp	a, a
  4168  1296  ed52              	sbc	hl, de
  4169  1298  2800              	jr	Z,l_vdp_printPart_00104
  4170  129a  0a                	ld	a, (bc)
  4171  129b  c5                	push	bc
  4172  129c  d5                	push	de
  4173  129d  f5                	push	af
  4174  129e  33                	inc	sp
  4175  129f  cd0000            	call	_vdp_write
  4176  12a2  33                	inc	sp
  4177  12a3  d1                	pop	de
  4178  12a4  c1                	pop	bc
  4179  12a5  03                	inc	bc
  4180  12a6  1800              	jr	l_vdp_printPart_00101
  4181                          l_vdp_printPart_00104:
  4182  12a8  dde1              	pop	ix
  4183  12aa  c9                	ret
  4184                          	SECTION code_compiler
  4185                          ;	---------------------------------
  4186                          ; Function vdp_newLine
  4187                          ; ---------------------------------
  4188                          _vdp_newLine:
  4189  12ab  210000            	ld	hl,_vdp_cursor + 1
  4190  12ae  4e                	ld	c, (hl)
  4191  12af  79                	ld	a, c
  4192  12b0  d600              	sub	a,0x17
  4193  12b2  2000              	jr	NZ,l_vdp_newLine_00104
  4194  12b4  3a0000            	ld	a, (__autoScroll+0)
  4195  12b7  b7                	or	a, a
  4196  12b8  2800              	jr	Z,l_vdp_newLine_00102
  4197  12ba  3e00              	ld	a,0x17
  4198  12bc  f5                	push	af
  4199  12bd  33                	inc	sp
  4200  12be  af                	xor	a, a
  4201  12bf  f5                	push	af
  4202  12c0  33                	inc	sp
  4203  12c1  cd0000            	call	_vdp_scrollTextUp
  4204  12c4  f1                	pop	af
  4205                          l_vdp_newLine_00102:
  4206  12c5  210000            	ld	hl,_vdp_cursor
  4207  12c8  3600              	ld	(hl),0x00
  4208  12ca  1800              	jr	l_vdp_newLine_00106
  4209                          l_vdp_newLine_00104:
  4210  12cc  79                	ld	a, c
  4211  12cd  3c                	inc	a
  4212  12ce  77                	ld	(hl), a
  4213  12cf  f5                	push	af
  4214  12d0  33                	inc	sp
  4215  12d1  af                	xor	a, a
  4216  12d2  f5                	push	af
  4217  12d3  33                	inc	sp
  4218  12d4  cd0000            	call	_vdp_setCursor2
  4219  12d7  f1                	pop	af
  4220                          l_vdp_newLine_00106:
  4221  12d8  c9                	ret
  4222                          	SECTION code_compiler
  4223                          ;	---------------------------------
  4224                          ; Function vdp_setBackDropColor
  4225                          ; ---------------------------------
  4226                          _vdp_setBackDropColor:
  4227  12d9  210000            	ld	hl,2+0
  4228  12dc  39                	add	hl, sp
  4229  12dd  56                	ld	d, (hl)
  4230  12de  1e00              	ld	e,0x07
  4231  12e0  d5                	push	de
  4232  12e1  cd0000            	call	_vdp_setRegister
  4233  12e4  f1                	pop	af
  4234  12e5  c9                	ret
  4235                          	SECTION code_compiler
  4236                          ;	---------------------------------
  4237                          ; Function vdp_setCursor2
  4238                          ; ---------------------------------
  4239                          _vdp_setCursor2:
  4240  12e6  dde5              	push	ix
  4241  12e8  dd210000          	ld	ix,0
  4242  12ec  dd39              	add	ix,sp
  4243  12ee  3a0000            	ld	a,(__vdpCursorMaxX)
  4244  12f1  dd9600            	sub	a,(ix+4)
  4245  12f4  3000              	jr	NC,l_vdp_setCursor2_00102
  4246  12f6  dd360000          	ld	(ix+4),0x00
  4247  12fa  dd3400            	inc	(ix+5)
  4248                          l_vdp_setCursor2_00102:
  4249  12fd  3a0000            	ld	a, (__vdpCursorMaxY+0)
  4250  1300  dd9600            	sub	a,(ix+5)
  4251  1303  3000              	jr	NC,l_vdp_setCursor2_00104
  4252  1305  dd360000          	ld	(ix+5),0x00
  4253                          l_vdp_setCursor2_00104:
  4254  1309  210000            	ld	hl,_vdp_cursor
  4255  130c  dd7e00            	ld	a,(ix+4)
  4256  130f  77                	ld	(hl), a
  4257  1310  210000            	ld	hl, +(_vdp_cursor + 1)
  4258  1313  dd7e00            	ld	a,(ix+5)
  4259  1316  77                	ld	(hl), a
  4260  1317  dde1              	pop	ix
  4261  1319  c9                	ret
  4262                          	SECTION code_compiler
  4263                          ;	---------------------------------
  4264                          ; Function vdp_setCursor
  4265                          ; ---------------------------------
  4266                          _vdp_setCursor:
  4267  131a  fd210000          	ld	iy,2
  4268  131e  fd39              	add	iy, sp
  4269  1320  fd7e00            	ld	a,(iy+0)
  4270  1323  b7                	or	a, a
  4271  1324  2800              	jr	Z,l_vdp_setCursor_00101
  4272  1326  fd7e00            	ld	a,(iy+0)
  4273  1329  3d                	dec	a
  4274  132a  2800              	jr	Z,l_vdp_setCursor_00102
  4275  132c  fd7e00            	ld	a,(iy+0)
  4276  132f  d600              	sub	a,0x02
  4277  1331  2800              	jr	Z,l_vdp_setCursor_00103
  4278  1333  fd7e00            	ld	a,(iy+0)
  4279  1336  d600              	sub	a,0x03
  4280  1338  2800              	jr	Z,l_vdp_setCursor_00104
  4281  133a  1800              	jr	l_vdp_setCursor_00106
  4282                          l_vdp_setCursor_00101:
  4283  133c  3a0000            	ld	a, (_vdp_cursor + 1)
  4284  133f  3d                	dec	a
  4285  1340  210000            	ld	hl,_vdp_cursor + 0
  4286  1343  46                	ld	b, (hl)
  4287  1344  f5                	push	af
  4288  1345  33                	inc	sp
  4289  1346  c5                	push	bc
  4290  1347  33                	inc	sp
  4291  1348  cd0000            	call	_vdp_setCursor2
  4292  134b  f1                	pop	af
  4293  134c  1800              	jr	l_vdp_setCursor_00106
  4294                          l_vdp_setCursor_00102:
  4295  134e  3a0000            	ld	a, (_vdp_cursor + 1)
  4296  1351  3c                	inc	a
  4297  1352  210000            	ld	hl,_vdp_cursor + 0
  4298  1355  46                	ld	b, (hl)
  4299  1356  f5                	push	af
  4300  1357  33                	inc	sp
  4301  1358  c5                	push	bc
  4302  1359  33                	inc	sp
  4303  135a  cd0000            	call	_vdp_setCursor2
  4304  135d  f1                	pop	af
  4305  135e  1800              	jr	l_vdp_setCursor_00106
  4306                          l_vdp_setCursor_00103:
  4307  1360  210000            	ld	hl,_vdp_cursor + 1
  4308  1363  46                	ld	b, (hl)
  4309  1364  3a0000            	ld	a, (_vdp_cursor + 0)
  4310  1367  3d                	dec	a
  4311  1368  c5                	push	bc
  4312  1369  33                	inc	sp
  4313  136a  f5                	push	af
  4314  136b  33                	inc	sp
  4315  136c  cd0000            	call	_vdp_setCursor2
  4316  136f  f1                	pop	af
  4317  1370  1800              	jr	l_vdp_setCursor_00106
  4318                          l_vdp_setCursor_00104:
  4319  1372  210000            	ld	hl,_vdp_cursor + 1
  4320  1375  46                	ld	b, (hl)
  4321  1376  3a0000            	ld	a, (_vdp_cursor + 0)
  4322  1379  3c                	inc	a
  4323  137a  c5                	push	bc
  4324  137b  33                	inc	sp
  4325  137c  f5                	push	af
  4326  137d  33                	inc	sp
  4327  137e  cd0000            	call	_vdp_setCursor2
  4328  1381  f1                	pop	af
  4329                          l_vdp_setCursor_00106:
  4330  1382  c9                	ret
  4331                          	SECTION code_compiler
  4332                          ;	---------------------------------
  4333                          ; Function vdp_setTextColor
  4334                          ; ---------------------------------
  4335                          _vdp_setTextColor:
  4336  1383  fd210000          	ld	iy,2
  4337  1387  fd39              	add	iy, sp
  4338  1389  fd7e00            	ld	a,(iy+0)
  4339  138c  87                	add	a, a
  4340  138d  87                	add	a, a
  4341  138e  87                	add	a, a
  4342  138f  87                	add	a, a
  4343  1390  fd4e00            	ld	c,(iy+0+1)
  4344  1393  81                	add	a, c
  4345  1394  57                	ld	d,a
  4346  1395  1e00              	ld	e,0x07
  4347  1397  d5                	push	de
  4348  1398  cd0000            	call	_vdp_setRegister
  4349  139b  f1                	pop	af
  4350  139c  c9                	ret
  4351                          	SECTION code_compiler
  4352                          ;	---------------------------------
  4353                          ; Function vdp_write
  4354                          ; ---------------------------------
  4355                          _vdp_write:
  4356  139d  dde5              	push	ix
  4357  139f  dd210000          	ld	ix,0
  4358  13a3  dd39              	add	ix,sp
  4359  13a5  210000            	ld	hl, +(_vdp_cursor + 1) + 0
  4360  13a8  5e                	ld	e, (hl)
  4361  13a9  210000            	ld	hl,__vdpCursorMaxXFull + 0
  4362  13ac  66                	ld	h, (hl)
  4363  13ad  2e00              	ld	l,0x00
  4364  13af  55                	ld	d, l
  4365  13b0  0600              	ld	b,0x08
  4366                          l_vdp_write_00122:
  4367  13b2  29                	add	hl, hl
  4368  13b3  3000              	jr	NC,l_vdp_write_00123
  4369  13b5  19                	add	hl, de
  4370                          l_vdp_write_00123:
  4371  13b6  1000              	djnz	l_vdp_write_00122
  4372  13b8  eb                	ex	de, hl
  4373  13b9  3a0000            	ld	a, (_vdp_cursor + 0)
  4374  13bc  2600              	ld	h,0x00
  4375  13be  6f                	ld	l, a
  4376  13bf  19                	add	hl, de
  4377  13c0  eb                	ex	de, hl
  4378  13c1  2a0000            	ld	hl, (__vdpPatternNameTableAddr)
  4379  13c4  19                	add	hl, de
  4380  13c5  d5                	push	de
  4381  13c6  e5                	push	hl
  4382  13c7  cd0000            	call	_vdp_setWriteAddress
  4383  13ca  f1                	pop	af
  4384  13cb  d1                	pop	de
  4385  13cc  dd7e00            	ld	a,(ix+4)
  4386  13cf  d300              	out	(_IO_VDPDATA), a
  4387  13d1  210000            	ld	hl,__vdp_textBuffer
  4388  13d4  19                	add	hl, de
  4389  13d5  dd7e00            	ld	a,(ix+4)
  4390  13d8  77                	ld	(hl), a
  4391  13d9  3a0000            	ld	a, (__autoScroll+0)
  4392  13dc  b7                	or	a, a
  4393  13dd  2800              	jr	Z,l_vdp_write_00102
  4394  13df  210000            	ld	hl,_vdp_cursor + 0
  4395  13e2  46                	ld	b, (hl)
  4396  13e3  3a0000            	ld	a, (__vdpCursorMaxX+0)
  4397  13e6  90                	sub	a, b
  4398  13e7  2000              	jr	NZ,l_vdp_write_00102
  4399  13e9  3a0000            	ld	a, ((_vdp_cursor + 1) + 0)
  4400  13ec  d600              	sub	a,0x17
  4401  13ee  2000              	jr	NZ,l_vdp_write_00102
  4402  13f0  3e00              	ld	a,0x17
  4403  13f2  f5                	push	af
  4404  13f3  33                	inc	sp
  4405  13f4  af                	xor	a, a
  4406  13f5  f5                	push	af
  4407  13f6  33                	inc	sp
  4408  13f7  cd0000            	call	_vdp_scrollTextUp
  4409  13fa  f1                	pop	af
  4410  13fb  210000            	ld	hl,_vdp_cursor
  4411  13fe  3600              	ld	(hl),0x00
  4412                          l_vdp_write_00102:
  4413  1400  3a0000            	ld	a, ((_vdp_cursor + 1) + 0)
  4414  1403  210000            	ld	hl,_vdp_cursor + 0
  4415  1406  4e                	ld	c, (hl)
  4416  1407  0c                	inc	c
  4417  1408  f5                	push	af
  4418  1409  33                	inc	sp
  4419  140a  79                	ld	a, c
  4420  140b  f5                	push	af
  4421  140c  33                	inc	sp
  4422  140d  cd0000            	call	_vdp_setCursor2
  4423  1410  f1                	pop	af
  4424  1411  dde1              	pop	ix
  4425  1413  c9                	ret
  4426                          	SECTION code_compiler
  4427                          ;	---------------------------------
  4428                          ; Function vdp_writeCharAtLocation
  4429                          ; ---------------------------------
  4430                          _vdp_writeCharAtLocation:
  4431  1414  dde5              	push	ix
  4432  1416  dd210000          	ld	ix,0
  4433  141a  dd39              	add	ix,sp
  4434  141c  210000            	ld	hl,__vdpCursorMaxXFull + 0
  4435  141f  5e                	ld	e, (hl)
  4436  1420  dd6600            	ld	h,(ix+5)
  4437  1423  2e00              	ld	l,0x00
  4438  1425  55                	ld	d, l
  4439  1426  0600              	ld	b,0x08
  4440                          l_vdp_writeCharAtLocation_00103:
  4441  1428  29                	add	hl, hl
  4442  1429  3000              	jr	NC,l_vdp_writeCharAtLocation_00104
  4443  142b  19                	add	hl, de
  4444                          l_vdp_writeCharAtLocation_00104:
  4445  142c  1000              	djnz	l_vdp_writeCharAtLocation_00103
  4446  142e  dd4e00            	ld	c,(ix+4)
  4447  1431  0600              	ld	b,0x00
  4448  1433  09                	add	hl, bc
  4449  1434  eb                	ex	de, hl
  4450  1435  210000            	ld	hl,__vdp_textBuffer+0
  4451  1438  19                	add	hl, de
  4452  1439  dd7e00            	ld	a,(ix+6)
  4453  143c  77                	ld	(hl), a
  4454  143d  2a0000            	ld	hl, (__vdpPatternNameTableAddr)
  4455  1440  19                	add	hl, de
  4456  1441  e5                	push	hl
  4457  1442  cd0000            	call	_vdp_setWriteAddress
  4458  1445  f1                	pop	af
  4459  1446  dd7e00            	ld	a,(ix+6)
  4460  1449  d300              	out	(_IO_VDPDATA), a
  4461  144b  dde1              	pop	ix
  4462  144d  c9                	ret
  4463                          	SECTION code_compiler
  4464                          ;	---------------------------------
  4465                          ; Function vdp_getCharAtLocationVRAM
  4466                          ; ---------------------------------
  4467                          _vdp_getCharAtLocationVRAM:
  4468  144e  dde5              	push	ix
  4469  1450  dd210000          	ld	ix,0
  4470  1454  dd39              	add	ix,sp
  4471  1456  210000            	ld	hl,__vdpCursorMaxXFull + 0
  4472  1459  5e                	ld	e, (hl)
  4473  145a  dd6600            	ld	h,(ix+5)
  4474  145d  2e00              	ld	l,0x00
  4475  145f  55                	ld	d, l
  4476  1460  0600              	ld	b,0x08
  4477                          l_vdp_getCharAtLocationVRAM_00103:
  4478  1462  29                	add	hl, hl
  4479  1463  3000              	jr	NC,l_vdp_getCharAtLocationVRAM_00104
  4480  1465  19                	add	hl, de
  4481                          l_vdp_getCharAtLocationVRAM_00104:
  4482  1466  1000              	djnz	l_vdp_getCharAtLocationVRAM_00103
  4483  1468  dd4e00            	ld	c,(ix+4)
  4484  146b  0600              	ld	b,0x00
  4485  146d  09                	add	hl, bc
  4486  146e  eb                	ex	de, hl
  4487  146f  2a0000            	ld	hl, (__vdpPatternNameTableAddr)
  4488  1472  19                	add	hl, de
  4489  1473  e5                	push	hl
  4490  1474  cd0000            	call	_vdp_setReadAddress
  4491  1477  f1                	pop	af
  4492  1478  db00              	in	a, (_IO_VDPDATA)
  4493  147a  6f                	ld	l, a
  4494  147b  dde1              	pop	ix
  4495  147d  c9                	ret
  4496                          	SECTION code_compiler
  4497                          ;	---------------------------------
  4498                          ; Function vdp_getCharAtLocationBuf
  4499                          ; ---------------------------------
  4500                          _vdp_getCharAtLocationBuf:
  4501  147e  dde5              	push	ix
  4502  1480  dd210000          	ld	ix,0
  4503  1484  dd39              	add	ix,sp
  4504  1486  210000            	ld	hl,__vdpCursorMaxXFull + 0
  4505  1489  5e                	ld	e, (hl)
  4506  148a  dd6600            	ld	h,(ix+5)
  4507  148d  2e00              	ld	l,0x00
  4508  148f  55                	ld	d, l
  4509  1490  0600              	ld	b,0x08
  4510                          l_vdp_getCharAtLocationBuf_00103:
  4511  1492  29                	add	hl, hl
  4512  1493  3000              	jr	NC,l_vdp_getCharAtLocationBuf_00104
  4513  1495  19                	add	hl, de
  4514                          l_vdp_getCharAtLocationBuf_00104:
  4515  1496  1000              	djnz	l_vdp_getCharAtLocationBuf_00103
  4516  1498  dd4e00            	ld	c,(ix+4)
  4517  149b  0600              	ld	b,0x00
  4518  149d  09                	add	hl, bc
  4519  149e  110000            	ld	de,__vdp_textBuffer
  4520  14a1  19                	add	hl, de
  4521  14a2  6e                	ld	l, (hl)
  4522  14a3  dde1              	pop	ix
  4523  14a5  c9                	ret
  4524                          	SECTION code_compiler
  4525                          ;	---------------------------------
  4526                          ; Function vdp_setCharAtLocationBuf
  4527                          ; ---------------------------------
  4528                          _vdp_setCharAtLocationBuf:
  4529  14a6  dde5              	push	ix
  4530  14a8  dd210000          	ld	ix,0
  4531  14ac  dd39              	add	ix,sp
  4532  14ae  210000            	ld	hl,__vdpCursorMaxXFull + 0
  4533  14b1  5e                	ld	e, (hl)
  4534  14b2  dd6600            	ld	h,(ix+5)
  4535  14b5  2e00              	ld	l,0x00
  4536  14b7  55                	ld	d, l
  4537  14b8  0600              	ld	b,0x08
  4538                          l_vdp_setCharAtLocationBuf_00103:
  4539  14ba  29                	add	hl, hl
  4540  14bb  3000              	jr	NC,l_vdp_setCharAtLocationBuf_00104
  4541  14bd  19                	add	hl, de
  4542                          l_vdp_setCharAtLocationBuf_00104:
  4543  14be  1000              	djnz	l_vdp_setCharAtLocationBuf_00103
  4544  14c0  dd4e00            	ld	c,(ix+4)
  4545  14c3  0600              	ld	b,0x00
  4546  14c5  09                	add	hl, bc
  4547  14c6  110000            	ld	de,__vdp_textBuffer
  4548  14c9  19                	add	hl, de
  4549  14ca  dd7e00            	ld	a,(ix+6)
  4550  14cd  77                	ld	(hl), a
  4551  14ce  dde1              	pop	ix
  4552  14d0  c9                	ret
  4553                          	SECTION code_compiler
  4554                          ;	---------------------------------
  4555                          ; Function vdp_scrollTextUp
  4556                          ; ---------------------------------
  4557                          _vdp_scrollTextUp:
  4558  14d1  dde5              	push	ix
  4559  14d3  dd210000          	ld	ix,0
  4560  14d7  dd39              	add	ix,sp
  4561  14d9  210000            	ld	hl,__vdpCursorMaxXFull + 0
  4562  14dc  5e                	ld	e, (hl)
  4563  14dd  dd6600            	ld	h,(ix+4)
  4564  14e0  2e00              	ld	l,0x00
  4565  14e2  55                	ld	d, l
  4566  14e3  0600              	ld	b,0x08
  4567                          l_vdp_scrollTextUp_00125:
  4568  14e5  29                	add	hl, hl
  4569  14e6  3000              	jr	NC,l_vdp_scrollTextUp_00126
  4570  14e8  19                	add	hl, de
  4571                          l_vdp_scrollTextUp_00126:
  4572  14e9  1000              	djnz	l_vdp_scrollTextUp_00125
  4573  14eb  eb                	ex	de, hl
  4574  14ec  2a0000            	ld	hl, (__vdpPatternNameTableAddr)
  4575  14ef  19                	add	hl, de
  4576  14f0  e5                	push	hl
  4577  14f1  cd0000            	call	_vdp_setWriteAddress
  4578  14f4  f1                	pop	af
  4579  14f5  210000            	ld	hl,__vdpCursorMaxXFull + 0
  4580  14f8  5e                	ld	e, (hl)
  4581  14f9  dd6600            	ld	h,(ix+4)
  4582  14fc  2e00              	ld	l,0x00
  4583  14fe  55                	ld	d, l
  4584  14ff  0600              	ld	b,0x08
  4585                          l_vdp_scrollTextUp_00127:
  4586  1501  29                	add	hl, hl
  4587  1502  3000              	jr	NC,l_vdp_scrollTextUp_00128
  4588  1504  19                	add	hl, de
  4589                          l_vdp_scrollTextUp_00128:
  4590  1505  1000              	djnz	l_vdp_scrollTextUp_00127
  4591  1507  110000            	ld	de,__vdp_textBuffer
  4592  150a  19                	add	hl, de
  4593  150b  eb                	ex	de, hl
  4594  150c  2a0000            	ld	hl, (__vdpCursorMaxXFull)
  4595  150f  2600              	ld	h,0x00
  4596  1511  19                	add	hl, de
  4597  1512  e5                	push	hl
  4598  1513  fde1              	pop	iy
  4599  1515  dd4e00            	ld	c,(ix+5)
  4600  1518  0600              	ld	b,0x00
  4601  151a  03                	inc	bc
  4602  151b  3a0000            	ld	a, (__vdpCursorMaxXFull+0)
  4603  151e  2600              	ld	h,0x00
  4604  1520  d5                	push	de
  4605  1521  fde5              	push	iy
  4606  1523  6f                	ld	l, a
  4607  1524  e5                	push	hl
  4608  1525  c5                	push	bc
  4609  1526  cd0000            	call	__mulint_callee
  4610  1529  fde1              	pop	iy
  4611  152b  d1                	pop	de
  4612  152c  010000            	ld	bc,__vdp_textBuffer
  4613  152f  09                	add	hl, bc
  4614  1530  4d                	ld	c, l
  4615  1531  44                	ld	b, h
  4616  1532  eb                	ex	de, hl
  4617  1533  fde5              	push	iy
  4618  1535  d1                	pop	de
  4619                          l_vdp_scrollTextUp_00101:
  4620  1536  1a                	ld	a, (de)
  4621  1537  77                	ld	(hl), a
  4622  1538  d300              	out	(_IO_VDPDATA), a
  4623  153a  23                	inc	hl
  4624  153b  13                	inc	de
  4625  153c  7b                	ld	a, e
  4626  153d  91                	sub	a, c
  4627  153e  2000              	jr	NZ,l_vdp_scrollTextUp_00101
  4628  1540  7a                	ld	a, d
  4629  1541  90                	sub	a, b
  4630  1542  2000              	jr	NZ,l_vdp_scrollTextUp_00101
  4631  1544  eb                	ex	de, hl
  4632                          l_vdp_scrollTextUp_00104:
  4633  1545  3e00              	ld	a,0x20
  4634  1547  12                	ld	(de),a
  4635  1548  d300              	out	(_IO_VDPDATA), a
  4636  154a  13                	inc	de
  4637  154b  6b                	ld	l, e
  4638  154c  62                	ld	h, d
  4639  154d  bf                	cp	a, a
  4640  154e  ed42              	sbc	hl, bc
  4641  1550  2000              	jr	NZ,l_vdp_scrollTextUp_00104
  4642  1552  dde1              	pop	ix
  4643  1554  c9                	ret
  4644                          	SECTION code_compiler
  4645                          ;	---------------------------------
  4646                          ; Function vdp_scrollTextDown
  4647                          ; ---------------------------------
  4648                          _vdp_scrollTextDown:
  4649  1555  dde5              	push	ix
  4650  1557  dd210000          	ld	ix,0
  4651  155b  dd39              	add	ix,sp
  4652  155d  f5                	push	af
  4653  155e  fd210000          	ld	iy,__vdpCursorMaxXFull
  4654  1562  fd5e00            	ld	e,(iy+0)
  4655  1565  dd6600            	ld	h,(ix+5)
  4656  1568  2e00              	ld	l,0x00
  4657  156a  55                	ld	d, l
  4658  156b  0600              	ld	b,0x08
  4659                          l_vdp_scrollTextDown_00139:
  4660  156d  29                	add	hl, hl
  4661  156e  3000              	jr	NC,l_vdp_scrollTextDown_00140
  4662  1570  19                	add	hl, de
  4663                          l_vdp_scrollTextDown_00140:
  4664  1571  1000              	djnz	l_vdp_scrollTextDown_00139
  4665  1573  110000            	ld	de,__vdp_textBuffer
  4666  1576  19                	add	hl, de
  4667  1577  2b                	dec	hl
  4668  1578  eb                	ex	de, hl
  4669  1579  3a0000            	ld	a, (__vdpCursorMaxXFull+0)
  4670  157c  83                	add	a, e
  4671  157d  4f                	ld	c, a
  4672  157e  3e00              	ld	a,0x00
  4673  1580  8a                	adc	a, d
  4674  1581  47                	ld	b, a
  4675  1582  d5                	push	de
  4676  1583  c5                	push	bc
  4677  1584  fd5e00            	ld	e,(iy+0)
  4678  1587  dd6600            	ld	h,(ix+4)
  4679  158a  2e00              	ld	l,0x00
  4680  158c  55                	ld	d, l
  4681  158d  0600              	ld	b,0x08
  4682                          l_vdp_scrollTextDown_00141:
  4683  158f  29                	add	hl, hl
  4684  1590  3000              	jr	NC,l_vdp_scrollTextDown_00142
  4685  1592  19                	add	hl, de
  4686                          l_vdp_scrollTextDown_00142:
  4687  1593  1000              	djnz	l_vdp_scrollTextDown_00141
  4688  1595  c1                	pop	bc
  4689  1596  d1                	pop	de
  4690  1597  3e00              	ld	a, +((__vdp_textBuffer - 1) & 0xFF)
  4691  1599  85                	add	a, l
  4692  159a  6f                	ld	l, a
  4693  159b  3e00              	ld	a, +((__vdp_textBuffer - 1) / 256)
  4694  159d  8c                	adc	a, h
  4695  159e  67                	ld	h, a
  4696  159f  e3                	ex	(sp), hl
  4697                          l_vdp_scrollTextDown_00101:
  4698  15a0  1a                	ld	a, (de)
  4699  15a1  02                	ld	(bc), a
  4700  15a2  0b                	dec	bc
  4701  15a3  1b                	dec	de
  4702  15a4  e1                	pop	hl
  4703  15a5  e5                	push	hl
  4704  15a6  bf                	cp	a, a
  4705  15a7  ed52              	sbc	hl, de
  4706  15a9  2000              	jr	NZ,l_vdp_scrollTextDown_00101
  4707                          l_vdp_scrollTextDown_00104:
  4708  15ab  3e00              	ld	a,0x20
  4709  15ad  02                	ld	(bc), a
  4710  15ae  0b                	dec	bc
  4711  15af  e1                	pop	hl
  4712  15b0  e5                	push	hl
  4713  15b1  bf                	cp	a, a
  4714  15b2  ed42              	sbc	hl, bc
  4715  15b4  2000              	jr	NZ,l_vdp_scrollTextDown_00104
  4716  15b6  210000            	ld	hl,__vdpCursorMaxXFull + 0
  4717  15b9  5e                	ld	e, (hl)
  4718  15ba  dd6600            	ld	h,(ix+4)
  4719  15bd  2e00              	ld	l,0x00
  4720  15bf  55                	ld	d, l
  4721  15c0  0600              	ld	b,0x08
  4722                          l_vdp_scrollTextDown_00147:
  4723  15c2  29                	add	hl, hl
  4724  15c3  3000              	jr	NC,l_vdp_scrollTextDown_00148
  4725  15c5  19                	add	hl, de
  4726                          l_vdp_scrollTextDown_00148:
  4727  15c6  1000              	djnz	l_vdp_scrollTextDown_00147
  4728  15c8  eb                	ex	de, hl
  4729  15c9  2a0000            	ld	hl, (__vdpPatternNameTableAddr)
  4730  15cc  19                	add	hl, de
  4731  15cd  e5                	push	hl
  4732  15ce  cd0000            	call	_vdp_setWriteAddress
  4733  15d1  f1                	pop	af
  4734  15d2  210000            	ld	hl,__vdpCursorMaxXFull + 0
  4735  15d5  5e                	ld	e, (hl)
  4736  15d6  dd6600            	ld	h,(ix+4)
  4737  15d9  2e00              	ld	l,0x00
  4738  15db  55                	ld	d, l
  4739  15dc  0600              	ld	b,0x08
  4740                          l_vdp_scrollTextDown_00149:
  4741  15de  29                	add	hl, hl
  4742  15df  3000              	jr	NC,l_vdp_scrollTextDown_00150
  4743  15e1  19                	add	hl, de
  4744                          l_vdp_scrollTextDown_00150:
  4745  15e2  1000              	djnz	l_vdp_scrollTextDown_00149
  4746  15e4  110000            	ld	de,__vdp_textBuffer
  4747  15e7  19                	add	hl, de
  4748  15e8  eb                	ex	de, hl
  4749  15e9  dd4e00            	ld	c,(ix+5)
  4750  15ec  0600              	ld	b,0x00
  4751  15ee  03                	inc	bc
  4752  15ef  3a0000            	ld	a, (__vdpCursorMaxXFull+0)
  4753  15f2  2600              	ld	h,0x00
  4754  15f4  d5                	push	de
  4755  15f5  6f                	ld	l, a
  4756  15f6  e5                	push	hl
  4757  15f7  c5                	push	bc
  4758  15f8  cd0000            	call	__mulint_callee
  4759  15fb  d1                	pop	de
  4760  15fc  010000            	ld	bc,__vdp_textBuffer
  4761  15ff  09                	add	hl, bc
  4762  1600  4d                	ld	c, l
  4763  1601  44                	ld	b, h
  4764                          l_vdp_scrollTextDown_00107:
  4765  1602  1a                	ld	a, (de)
  4766  1603  d300              	out	(_IO_VDPDATA), a
  4767  1605  13                	inc	de
  4768  1606  6b                	ld	l, e
  4769  1607  62                	ld	h, d
  4770  1608  bf                	cp	a, a
  4771  1609  ed42              	sbc	hl, bc
  4772  160b  2000              	jr	NZ,l_vdp_scrollTextDown_00107
  4773  160d  ddf9              	ld	sp, ix
  4774  160f  dde1              	pop	ix
  4775  1611  c9                	ret
  4776                          	SECTION code_compiler
  4777                          ;	---------------------------------
  4778                          ; Function vdp_writeUInt32
  4779                          ; ---------------------------------
  4780                          _vdp_writeUInt32:
  4781  1612  dde5              	push	ix
  4782  1614  dd210000          	ld	ix,0
  4783  1618  dd39              	add	ix,sp
  4784  161a  210000            	ld	hl, -11
  4785  161d  39                	add	hl, sp
  4786  161e  f9                	ld	sp, hl
  4787  161f  dd6e00            	ld	l,(ix+6)
  4788  1622  dd6600            	ld	h,(ix+7)
  4789  1625  e5                	push	hl
  4790  1626  dd6e00            	ld	l,(ix+4)
  4791  1629  dd6600            	ld	h,(ix+5)
  4792  162c  e5                	push	hl
  4793  162d  210000            	ld	hl,___str_20
  4794  1630  e5                	push	hl
  4795  1631  210000            	ld	hl,6
  4796  1634  39                	add	hl, sp
  4797  1635  e5                	push	hl
  4798  1636  cd0000            	call	_sprintf
  4799  1639  210000            	ld	hl,8
  4800  163c  39                	add	hl, sp
  4801  163d  f9                	ld	sp, hl
  4802  163e  210000            	ld	hl,0
  4803  1641  39                	add	hl, sp
  4804  1642  e5                	push	hl
  4805  1643  cd0000            	call	_vdp_print
  4806  1646  ddf9              	ld	sp,ix
  4807  1648  dde1              	pop	ix
  4808  164a  c9                	ret
  4809                          	SECTION rodata_compiler
  4810                          ___str_20:
  4811  00e1  2575              	DEFM "%u"
  4812  00e3  00                	DEFB 0x00
  4813                          	SECTION code_compiler
  4814                          ;	---------------------------------
  4815                          ; Function vdp_writeInt32
  4816                          ; ---------------------------------
  4817                          _vdp_writeInt32:
  4818  164b  dde5              	push	ix
  4819  164d  dd210000          	ld	ix,0
  4820  1651  dd39              	add	ix,sp
  4821  1653  210000            	ld	hl, -12
  4822  1656  39                	add	hl, sp
  4823  1657  f9                	ld	sp, hl
  4824  1658  dd6e00            	ld	l,(ix+6)
  4825  165b  dd6600            	ld	h,(ix+7)
  4826  165e  e5                	push	hl
  4827  165f  dd6e00            	ld	l,(ix+4)
  4828  1662  dd6600            	ld	h,(ix+5)
  4829  1665  e5                	push	hl
  4830  1666  210000            	ld	hl,___str_21
  4831  1669  e5                	push	hl
  4832  166a  210000            	ld	hl,6
  4833  166d  39                	add	hl, sp
  4834  166e  e5                	push	hl
  4835  166f  cd0000            	call	_sprintf
  4836  1672  210000            	ld	hl,8
  4837  1675  39                	add	hl, sp
  4838  1676  f9                	ld	sp, hl
  4839  1677  210000            	ld	hl,0
  4840  167a  39                	add	hl, sp
  4841  167b  e5                	push	hl
  4842  167c  cd0000            	call	_vdp_print
  4843  167f  ddf9              	ld	sp,ix
  4844  1681  dde1              	pop	ix
  4845  1683  c9                	ret
  4846                          	SECTION rodata_compiler
  4847                          ___str_21:
  4848  00e4  2564              	DEFM "%d"
  4849  00e6  00                	DEFB 0x00
  4850                          	SECTION code_compiler
  4851                          ;	---------------------------------
  4852                          ; Function vdp_writeUInt16
  4853                          ; ---------------------------------
  4854                          _vdp_writeUInt16:
  4855  1684  dde5              	push	ix
  4856  1686  dd210000          	ld	ix,0
  4857  168a  dd39              	add	ix,sp
  4858  168c  210000            	ld	hl, -6
  4859  168f  39                	add	hl, sp
  4860  1690  f9                	ld	sp, hl
  4861  1691  dd6e00            	ld	l,(ix+4)
  4862  1694  dd6600            	ld	h,(ix+5)
  4863  1697  e5                	push	hl
  4864  1698  210000            	ld	hl,___str_22
  4865  169b  e5                	push	hl
  4866  169c  210000            	ld	hl,4
  4867  169f  39                	add	hl, sp
  4868  16a0  e5                	push	hl
  4869  16a1  cd0000            	call	_sprintf
  4870  16a4  210000            	ld	hl,6
  4871  16a7  39                	add	hl, sp
  4872  16a8  f9                	ld	sp, hl
  4873  16a9  210000            	ld	hl,0
  4874  16ac  39                	add	hl, sp
  4875  16ad  e5                	push	hl
  4876  16ae  cd0000            	call	_vdp_print
  4877  16b1  ddf9              	ld	sp,ix
  4878  16b3  dde1              	pop	ix
  4879  16b5  c9                	ret
  4880                          	SECTION rodata_compiler
  4881                          ___str_22:
  4882  00e7  2575              	DEFM "%u"
  4883  00e9  00                	DEFB 0x00
  4884                          	SECTION code_compiler
  4885                          ;	---------------------------------
  4886                          ; Function vdp_writeInt16
  4887                          ; ---------------------------------
  4888                          _vdp_writeInt16:
  4889  16b6  dde5              	push	ix
  4890  16b8  dd210000          	ld	ix,0
  4891  16bc  dd39              	add	ix,sp
  4892  16be  210000            	ld	hl, -7
  4893  16c1  39                	add	hl, sp
  4894  16c2  f9                	ld	sp, hl
  4895  16c3  dd6e00            	ld	l,(ix+4)
  4896  16c6  dd6600            	ld	h,(ix+5)
  4897  16c9  e5                	push	hl
  4898  16ca  210000            	ld	hl,___str_23
  4899  16cd  e5                	push	hl
  4900  16ce  210000            	ld	hl,4
  4901  16d1  39                	add	hl, sp
  4902  16d2  e5                	push	hl
  4903  16d3  cd0000            	call	_sprintf
  4904  16d6  210000            	ld	hl,6
  4905  16d9  39                	add	hl, sp
  4906  16da  f9                	ld	sp, hl
  4907  16db  210000            	ld	hl,0
  4908  16de  39                	add	hl, sp
  4909  16df  e5                	push	hl
  4910  16e0  cd0000            	call	_vdp_print
  4911  16e3  ddf9              	ld	sp,ix
  4912  16e5  dde1              	pop	ix
  4913  16e7  c9                	ret
  4914                          	SECTION rodata_compiler
  4915                          ___str_23:
  4916  00ea  2564              	DEFM "%d"
  4917  00ec  00                	DEFB 0x00
  4918                          	SECTION code_compiler
  4919                          ;	---------------------------------
  4920                          ; Function vdp_writeUInt8
  4921                          ; ---------------------------------
  4922                          _vdp_writeUInt8:
  4923  16e8  dde5              	push	ix
  4924  16ea  dd210000          	ld	ix,0
  4925  16ee  dd39              	add	ix,sp
  4926  16f0  f5                	push	af
  4927  16f1  f5                	push	af
  4928  16f2  dd4e00            	ld	c,(ix+4)
  4929  16f5  0600              	ld	b,0x00
  4930  16f7  c5                	push	bc
  4931  16f8  210000            	ld	hl,___str_24
  4932  16fb  e5                	push	hl
  4933  16fc  210000            	ld	hl,4
  4934  16ff  39                	add	hl, sp
  4935  1700  e5                	push	hl
  4936  1701  cd0000            	call	_sprintf
  4937  1704  210000            	ld	hl,6
  4938  1707  39                	add	hl, sp
  4939  1708  f9                	ld	sp, hl
  4940  1709  210000            	ld	hl,0
  4941  170c  39                	add	hl, sp
  4942  170d  e5                	push	hl
  4943  170e  cd0000            	call	_vdp_print
  4944  1711  ddf9              	ld	sp,ix
  4945  1713  dde1              	pop	ix
  4946  1715  c9                	ret
  4947                          	SECTION rodata_compiler
  4948                          ___str_24:
  4949  00ed  2575              	DEFM "%u"
  4950  00ef  00                	DEFB 0x00
  4951                          	SECTION code_compiler
  4952                          ;	---------------------------------
  4953                          ; Function vdp_writeInt8
  4954                          ; ---------------------------------
  4955                          _vdp_writeInt8:
  4956  1716  dde5              	push	ix
  4957  1718  dd210000          	ld	ix,0
  4958  171c  dd39              	add	ix,sp
  4959  171e  210000            	ld	hl, -5
  4960  1721  39                	add	hl, sp
  4961  1722  f9                	ld	sp, hl
  4962  1723  dd7e00            	ld	a,(ix+4)
  4963  1726  4f                	ld	c, a
  4964  1727  07                	rlca
  4965  1728  9f                	sbc	a, a
  4966  1729  47                	ld	b, a
  4967  172a  c5                	push	bc
  4968  172b  210000            	ld	hl,___str_25
  4969  172e  e5                	push	hl
  4970  172f  210000            	ld	hl,4
  4971  1732  39                	add	hl, sp
  4972  1733  e5                	push	hl
  4973  1734  cd0000            	call	_sprintf
  4974  1737  210000            	ld	hl,6
  4975  173a  39                	add	hl, sp
  4976  173b  f9                	ld	sp, hl
  4977  173c  210000            	ld	hl,0
  4978  173f  39                	add	hl, sp
  4979  1740  e5                	push	hl
  4980  1741  cd0000            	call	_vdp_print
  4981  1744  ddf9              	ld	sp,ix
  4982  1746  dde1              	pop	ix
  4983  1748  c9                	ret
  4984                          	SECTION rodata_compiler
  4985                          ___str_25:
  4986  00f0  2564              	DEFM "%d"
  4987  00f2  00                	DEFB 0x00
  4988                          	SECTION code_compiler
  4989                          ;	---------------------------------
  4990                          ; Function vdp_writeUInt8ToBinary
  4991                          ; ---------------------------------
  4992                          _vdp_writeUInt8ToBinary:
  4993  1749  dde5              	push	ix
  4994  174b  dd210000          	ld	ix,0
  4995  174f  dd39              	add	ix,sp
  4996  1751  21f7ff            	ld	hl, -9
  4997  1754  39                	add	hl, sp
  4998  1755  f9                	ld	sp, hl
  4999  1756  0e00              	ld	c,0x00
  5000                          l_vdp_writeUInt8ToBinary_00106:
  5001  1758  79                	ld	a, c
  5002  1759  d608              	sub	a,0x08
  5003  175b  302a              	jr	NC,l_vdp_writeUInt8ToBinary_00104
  5004  175d  41                	ld	b, c
  5005  175e  dd6e04            	ld	l,(ix+4)
  5006  1761  04                	inc	b
  5007  1762  1802              	jr	l_vdp_writeUInt8ToBinary_00127
  5008                          l_vdp_writeUInt8ToBinary_00126:
  5009  1764  cb3d              	srl	l
  5010                          l_vdp_writeUInt8ToBinary_00127:
  5011  1766  10fc              	djnz	l_vdp_writeUInt8ToBinary_00126
  5012  1768  59                	ld	e, c
  5013  1769  3e07              	ld	a,0x07
  5014  176b  93                	sub	a, e
  5015  176c  5f                	ld	e, a
  5016  176d  07                	rlca
  5017  176e  9f                	sbc	a, a
  5018  176f  57                	ld	d, a
  5019  1770  cb45              	bit	0, l
  5020  1772  2809              	jr	Z,l_vdp_writeUInt8ToBinary_00102
  5021  1774  210000            	ld	hl,0
  5022  1777  39                	add	hl, sp
  5023  1778  19                	add	hl, de
  5024  1779  3631              	ld	(hl),0x31
  5025  177b  1807              	jr	l_vdp_writeUInt8ToBinary_00107
  5026                          l_vdp_writeUInt8ToBinary_00102:
  5027  177d  210000            	ld	hl,0
  5028  1780  39                	add	hl, sp
  5029  1781  19                	add	hl, de
  5030  1782  3630              	ld	(hl),0x30
  5031                          l_vdp_writeUInt8ToBinary_00107:
  5032  1784  0c                	inc	c
  5033  1785  18d1              	jr	l_vdp_writeUInt8ToBinary_00106
  5034                          l_vdp_writeUInt8ToBinary_00104:
  5035  1787  dd36ff00          	ld	(ix-1),0x00
  5036  178b  210000            	ld	hl,0
  5037  178e  39                	add	hl, sp
  5038  178f  e5                	push	hl
  5039  1790  cd2a12            	call	_vdp_print
  5040  1793  ddf9              	ld	sp,ix
  5041  1795  dde1              	pop	ix
  5042  1797  c9                	ret
  5043                          	SECTION code_compiler
  5044                          ;	---------------------------------
  5045                          ; Function vdp_writeUInt16ToBinary
  5046                          ; ---------------------------------
  5047                          _vdp_writeUInt16ToBinary:
  5048  1798  dde5              	push	ix
  5049  179a  dd210000          	ld	ix,0
  5050  179e  dd39              	add	ix,sp
  5051  17a0  21edff            	ld	hl, -19
  5052  17a3  39                	add	hl, sp
  5053  17a4  f9                	ld	sp, hl
  5054  17a5  0e00              	ld	c,0x00
  5055                          l_vdp_writeUInt16ToBinary_00106:
  5056  17a7  79                	ld	a, c
  5057  17a8  d610              	sub	a,0x10
  5058  17aa  303f              	jr	NC,l_vdp_writeUInt16ToBinary_00104
  5059  17ac  41                	ld	b, c
  5060  17ad  dd5e04            	ld	e,(ix+4)
  5061  17b0  dd5605            	ld	d,(ix+5)
  5062  17b3  04                	inc	b
  5063  17b4  1804              	jr	l_vdp_writeUInt16ToBinary_00127
  5064                          l_vdp_writeUInt16ToBinary_00126:
  5065  17b6  cb3a              	srl	d
  5066  17b8  cb1b              	rr	e
  5067                          l_vdp_writeUInt16ToBinary_00127:
  5068  17ba  10fa              	djnz	l_vdp_writeUInt16ToBinary_00126
  5069  17bc  41                	ld	b, c
  5070  17bd  3e0f              	ld	a,0x0f
  5071  17bf  90                	sub	a, b
  5072  17c0  dd77fe            	ld	(ix-2),a
  5073  17c3  07                	rlca
  5074  17c4  9f                	sbc	a, a
  5075  17c5  dd77ff            	ld	(ix-1),a
  5076  17c8  cb43              	bit	0, e
  5077  17ca  280f              	jr	Z,l_vdp_writeUInt16ToBinary_00102
  5078  17cc  dd5efe            	ld	e,(ix-2)
  5079  17cf  dd56ff            	ld	d,(ix-1)
  5080  17d2  210000            	ld	hl,0
  5081  17d5  39                	add	hl, sp
  5082  17d6  19                	add	hl, de
  5083  17d7  3631              	ld	(hl),0x31
  5084  17d9  180d              	jr	l_vdp_writeUInt16ToBinary_00107
  5085                          l_vdp_writeUInt16ToBinary_00102:
  5086  17db  dd5efe            	ld	e,(ix-2)
  5087  17de  dd56ff            	ld	d,(ix-1)
  5088  17e1  210000            	ld	hl,0
  5089  17e4  39                	add	hl, sp
  5090  17e5  19                	add	hl, de
  5091  17e6  3630              	ld	(hl),0x30
  5092                          l_vdp_writeUInt16ToBinary_00107:
  5093  17e8  0c                	inc	c
  5094  17e9  18bc              	jr	l_vdp_writeUInt16ToBinary_00106
  5095                          l_vdp_writeUInt16ToBinary_00104:
  5096  17eb  dd36fd00          	ld	(ix-3),0x00
  5097  17ef  210000            	ld	hl,0
  5098  17f2  39                	add	hl, sp
  5099  17f3  e5                	push	hl
  5100  17f4  cd2a12            	call	_vdp_print
  5101  17f7  ddf9              	ld	sp,ix
  5102  17f9  dde1              	pop	ix
  5103  17fb  c9                	ret
  5104                          	SECTION code_compiler
  5105                          ;	---------------------------------
  5106                          ; Function vdp_writeUInt32ToBinary
  5107                          ; ---------------------------------
  5108                          _vdp_writeUInt32ToBinary:
  5109  17fc  dde5              	push	ix
  5110  17fe  dd210000          	ld	ix,0
  5111  1802  dd39              	add	ix,sp
  5112  1804  21daff            	ld	hl, -38
  5113  1807  39                	add	hl, sp
  5114  1808  f9                	ld	sp, hl
  5115  1809  dd36ff00          	ld	(ix-1),0x00
  5116                          l_vdp_writeUInt32ToBinary_00106:
  5117  180d  dd7eff            	ld	a,(ix-1)
  5118  1810  d620              	sub	a,0x20
  5119  1812  3067              	jr	NC,l_vdp_writeUInt32ToBinary_00104
  5120  1814  dd46ff            	ld	b,(ix-1)
  5121  1817  dd4e04            	ld	c,(ix+4)
  5122  181a  dd5e05            	ld	e,(ix+5)
  5123  181d  dd6e06            	ld	l,(ix+6)
  5124  1820  dd6607            	ld	h,(ix+7)
  5125  1823  04                	inc	b
  5126  1824  1808              	jr	l_vdp_writeUInt32ToBinary_00127
  5127                          l_vdp_writeUInt32ToBinary_00126:
  5128  1826  cb3c              	srl	h
  5129  1828  cb1d              	rr	l
  5130  182a  cb1b              	rr	e
  5131  182c  cb19              	rr	c
  5132                          l_vdp_writeUInt32ToBinary_00127:
  5133  182e  10f6              	djnz	l_vdp_writeUInt32ToBinary_00126
  5134  1830  dd46ff            	ld	b,(ix-1)
  5135  1833  3e1f              	ld	a,0x1f
  5136  1835  90                	sub	a, b
  5137  1836  dd77fb            	ld	(ix-5),a
  5138  1839  07                	rlca
  5139  183a  9f                	sbc	a, a
  5140  183b  dd77fc            	ld	(ix-4),a
  5141  183e  cb41              	bit	0, c
  5142  1840  281b              	jr	Z,l_vdp_writeUInt32ToBinary_00102
  5143  1842  dd5efb            	ld	e,(ix-5)
  5144  1845  dd56fc            	ld	d,(ix-4)
  5145  1848  210000            	ld	hl,0
  5146  184b  39                	add	hl, sp
  5147  184c  19                	add	hl, de
  5148  184d  dd75fd            	ld	(ix-3),l
  5149  1850  dd74fe            	ld	(ix-2),h
  5150  1853  dd6efd            	ld	l,(ix-3)
  5151  1856  dd66fe            	ld	h,(ix-2)
  5152  1859  3631              	ld	(hl),0x31
  5153  185b  1819              	jr	l_vdp_writeUInt32ToBinary_00107
  5154                          l_vdp_writeUInt32ToBinary_00102:
  5155  185d  dd5efb            	ld	e,(ix-5)
  5156  1860  dd56fc            	ld	d,(ix-4)
  5157  1863  210000            	ld	hl,0
  5158  1866  39                	add	hl, sp
  5159  1867  19                	add	hl, de
  5160  1868  dd75fd            	ld	(ix-3),l
  5161  186b  dd74fe            	ld	(ix-2),h
  5162  186e  dd6efd            	ld	l,(ix-3)
  5163  1871  dd66fe            	ld	h,(ix-2)
  5164  1874  3630              	ld	(hl),0x30
  5165                          l_vdp_writeUInt32ToBinary_00107:
  5166  1876  dd34ff            	inc	(ix-1)
  5167  1879  1892              	jr	l_vdp_writeUInt32ToBinary_00106
  5168                          l_vdp_writeUInt32ToBinary_00104:
  5169  187b  dd36fa00          	ld	(ix-6),0x00
  5170  187f  210000            	ld	hl,0
  5171  1882  39                	add	hl, sp
  5172  1883  e5                	push	hl
  5173  1884  cd2a12            	call	_vdp_print
  5174  1887  ddf9              	ld	sp,ix
  5175  1889  dde1              	pop	ix
  5176  188b  c9                	ret
  5177                          	SECTION code_compiler
  5178                          ;	---------------------------------
  5179                          ; Function hcca_DiFocusInterrupts
  5180                          ; ---------------------------------
  5181                          _hcca_DiFocusInterrupts:
  5182  188c  cd8200            	call	_NABU_DisableInterrupts
  5183  188f  110e80            	ld	de,0x800e
  5184  1892  d5                	push	de
  5185  1893  cdbc03            	call	_ayWrite
  5186  1896  f1                	pop	af
  5187  1897  c9                	ret
  5188                          	SECTION code_compiler
  5189                          ;	---------------------------------
  5190                          ; Function hcca_DiRestoreInterrupts
  5191                          ; ---------------------------------
  5192                          _hcca_DiRestoreInterrupts:
  5193  1898  3a0a00            	ld	a, (__ORIGINAL_INT_MASK+0)
  5194  189b  57                	ld	d,a
  5195  189c  1e0e              	ld	e,0x0e
  5196  189e  d5                	push	de
  5197  189f  cdbc03            	call	_ayWrite
  5198  18a2  f1                	pop	af
  5199  18a3  c38400            	jp	_NABU_EnableInterrupts
  5200                          	SECTION code_compiler
  5201                          ;	---------------------------------
  5202                          ; Function hcca_DiWriteByte
  5203                          ; ---------------------------------
  5204                          _hcca_DiWriteByte:
  5205  18a6  110e40            	ld	de,0x400e
  5206  18a9  d5                	push	de
  5207  18aa  cdbc03            	call	_ayWrite
  5208  18ad  f1                	pop	af
  5209  18ae  3e0f              	ld	a,0x0f
  5210  18b0  d341              	out	(_IO_AYLATCH), a
  5211                          l_hcca_DiWriteByte_00101:
  5212  18b2  db40              	in	a, (_IO_AYDATA)
  5213  18b4  cb57              	bit	2, a
  5214  18b6  20fa              	jr	NZ,l_hcca_DiWriteByte_00101
  5215  18b8  210200            	ld	hl,2+0
  5216  18bb  39                	add	hl, sp
  5217  18bc  7e                	ld	a, (hl)
  5218  18bd  d380              	out	(_IO_HCCA), a
  5219  18bf  110e80            	ld	de,0x800e
  5220  18c2  d5                	push	de
  5221  18c3  cdbc03            	call	_ayWrite
  5222  18c6  f1                	pop	af
  5223  18c7  c9                	ret
  5224                          	SECTION code_compiler
  5225                          ;	---------------------------------
  5226                          ; Function hcca_DiWriteUInt32
  5227                          ; ---------------------------------
  5228                          _hcca_DiWriteUInt32:
  5229  18c8  210200            	ld	hl,2+0
  5230  18cb  39                	add	hl, sp
  5231  18cc  7e                	ld	a, (hl)
  5232  18cd  f5                	push	af
  5233  18ce  33                	inc	sp
  5234  18cf  cda618            	call	_hcca_DiWriteByte
  5235  18d2  33                	inc	sp
  5236  18d3  210300            	ld	hl,2+1
  5237  18d6  39                	add	hl, sp
  5238  18d7  7e                	ld	a, (hl)
  5239  18d8  f5                	push	af
  5240  18d9  33                	inc	sp
  5241  18da  cda618            	call	_hcca_DiWriteByte
  5242  18dd  33                	inc	sp
  5243  18de  210400            	ld	hl,2+2
  5244  18e1  39                	add	hl, sp
  5245  18e2  7e                	ld	a, (hl)
  5246  18e3  f5                	push	af
  5247  18e4  33                	inc	sp
  5248  18e5  cda618            	call	_hcca_DiWriteByte
  5249  18e8  33                	inc	sp
  5250  18e9  210500            	ld	hl,2+3
  5251  18ec  39                	add	hl, sp
  5252  18ed  7e                	ld	a, (hl)
  5253  18ee  f5                	push	af
  5254  18ef  33                	inc	sp
  5255  18f0  cda618            	call	_hcca_DiWriteByte
  5256  18f3  33                	inc	sp
  5257  18f4  c9                	ret
  5258                          	SECTION code_compiler
  5259                          ;	---------------------------------
  5260                          ; Function hcca_DiWriteInt32
  5261                          ; ---------------------------------
  5262                          _hcca_DiWriteInt32:
  5263  18f5  210200            	ld	hl,2+0
  5264  18f8  39                	add	hl, sp
  5265  18f9  7e                	ld	a, (hl)
  5266  18fa  f5                	push	af
  5267  18fb  33                	inc	sp
  5268  18fc  cda618            	call	_hcca_DiWriteByte
  5269  18ff  33                	inc	sp
  5270  1900  210300            	ld	hl,2+1
  5271  1903  39                	add	hl, sp
  5272  1904  7e                	ld	a, (hl)
  5273  1905  f5                	push	af
  5274  1906  33                	inc	sp
  5275  1907  cda618            	call	_hcca_DiWriteByte
  5276  190a  33                	inc	sp
  5277  190b  210400            	ld	hl,2+2
  5278  190e  39                	add	hl, sp
  5279  190f  7e                	ld	a, (hl)
  5280  1910  f5                	push	af
  5281  1911  33                	inc	sp
  5282  1912  cda618            	call	_hcca_DiWriteByte
  5283  1915  33                	inc	sp
  5284  1916  210500            	ld	hl,2+3
  5285  1919  39                	add	hl, sp
  5286  191a  7e                	ld	a, (hl)
  5287  191b  f5                	push	af
  5288  191c  33                	inc	sp
  5289  191d  cda618            	call	_hcca_DiWriteByte
  5290  1920  33                	inc	sp
  5291  1921  c9                	ret
  5292                          	SECTION code_compiler
  5293                          ;	---------------------------------
  5294                          ; Function hcca_DiWriteUInt16
  5295                          ; ---------------------------------
  5296                          _hcca_DiWriteUInt16:
  5297  1922  210200            	ld	hl,2+0
  5298  1925  39                	add	hl, sp
  5299  1926  7e                	ld	a, (hl)
  5300  1927  f5                	push	af
  5301  1928  33                	inc	sp
  5302  1929  cda618            	call	_hcca_DiWriteByte
  5303  192c  33                	inc	sp
  5304  192d  210300            	ld	hl,2+1
  5305  1930  39                	add	hl, sp
  5306  1931  7e                	ld	a, (hl)
  5307  1932  f5                	push	af
  5308  1933  33                	inc	sp
  5309  1934  cda618            	call	_hcca_DiWriteByte
  5310  1937  33                	inc	sp
  5311  1938  c9                	ret
  5312                          	SECTION code_compiler
  5313                          ;	---------------------------------
  5314                          ; Function hcca_DiWriteInt16
  5315                          ; ---------------------------------
  5316                          _hcca_DiWriteInt16:
  5317  1939  210200            	ld	hl,2+0
  5318  193c  39                	add	hl, sp
  5319  193d  7e                	ld	a, (hl)
  5320  193e  f5                	push	af
  5321  193f  33                	inc	sp
  5322  1940  cda618            	call	_hcca_DiWriteByte
  5323  1943  33                	inc	sp
  5324  1944  210300            	ld	hl,2+1
  5325  1947  39                	add	hl, sp
  5326  1948  7e                	ld	a, (hl)
  5327  1949  f5                	push	af
  5328  194a  33                	inc	sp
  5329  194b  cda618            	call	_hcca_DiWriteByte
  5330  194e  33                	inc	sp
  5331  194f  c9                	ret
  5332                          	SECTION code_compiler
  5333                          ;	---------------------------------
  5334                          ; Function hcca_DiWriteString
  5335                          ; ---------------------------------
  5336                          _hcca_DiWriteString:
  5337  1950  210200            	ld	hl,2
  5338  1953  39                	add	hl, sp
  5339  1954  4e                	ld	c, (hl)
  5340  1955  23                	inc	hl
  5341  1956  46                	ld	b, (hl)
  5342                          l_hcca_DiWriteString_00103:
  5343  1957  0a                	ld	a, (bc)
  5344  1958  b7                	or	a, a
  5345  1959  c8                	ret	Z
  5346  195a  c5                	push	bc
  5347  195b  f5                	push	af
  5348  195c  33                	inc	sp
  5349  195d  cda618            	call	_hcca_DiWriteByte
  5350  1960  33                	inc	sp
  5351  1961  c1                	pop	bc
  5352  1962  03                	inc	bc
  5353  1963  18f2              	jr	l_hcca_DiWriteString_00103
  5354                          	SECTION code_compiler
  5355                          ;	---------------------------------
  5356                          ; Function hcca_DiWriteBytes
  5357                          ; ---------------------------------
  5358                          _hcca_DiWriteBytes:
  5359  1965  dde5              	push	ix
  5360  1967  dd210000          	ld	ix,0
  5361  196b  dd39              	add	ix,sp
  5362  196d  dd7e08            	ld	a,(ix+8)
  5363  1970  dd8604            	add	a,(ix+4)
  5364  1973  4f                	ld	c, a
  5365  1974  dd7e09            	ld	a,(ix+9)
  5366  1977  dd8e05            	adc	a,(ix+5)
  5367  197a  47                	ld	b, a
  5368  197b  dd6e06            	ld	l,(ix+6)
  5369  197e  dd6607            	ld	h,(ix+7)
  5370  1981  09                	add	hl, bc
  5371  1982  eb                	ex	de, hl
  5372                          l_hcca_DiWriteBytes_00101:
  5373  1983  69                	ld	l, c
  5374  1984  60                	ld	h, b
  5375  1985  bf                	cp	a, a
  5376  1986  ed52              	sbc	hl, de
  5377  1988  280e              	jr	Z,l_hcca_DiWriteBytes_00104
  5378  198a  0a                	ld	a, (bc)
  5379  198b  c5                	push	bc
  5380  198c  d5                	push	de
  5381  198d  f5                	push	af
  5382  198e  33                	inc	sp
  5383  198f  cda618            	call	_hcca_DiWriteByte
  5384  1992  33                	inc	sp
  5385  1993  d1                	pop	de
  5386  1994  c1                	pop	bc
  5387  1995  03                	inc	bc
  5388  1996  18eb              	jr	l_hcca_DiWriteBytes_00101
  5389                          l_hcca_DiWriteBytes_00104:
  5390  1998  dde1              	pop	ix
  5391  199a  c9                	ret
  5392                          	SECTION code_compiler
  5393                          ;	---------------------------------
  5394                          ; Function hcca_DiReadUInt16
  5395                          ; ---------------------------------
  5396                          _hcca_DiReadUInt16:
  5397  199b  3e0f              	ld	a,0x0f
  5398  199d  d341              	out	(_IO_AYLATCH), a
  5399                          l_hcca_DiReadUInt16_00101:
  5400  199f  db40              	in	a, (_IO_AYDATA)
  5401  19a1  cb4f              	bit	1, a
  5402  19a3  20fa              	jr	NZ,l_hcca_DiReadUInt16_00101
  5403  19a5  db80              	in	a, (_IO_HCCA)
  5404  19a7  4f                	ld	c, a
  5405  19a8  0600              	ld	b,0x00
  5406  19aa  3e0f              	ld	a,0x0f
  5407  19ac  d341              	out	(_IO_AYLATCH), a
  5408                          l_hcca_DiReadUInt16_00105:
  5409  19ae  db40              	in	a, (_IO_AYDATA)
  5410  19b0  cb4f              	bit	1, a
  5411  19b2  20fa              	jr	NZ,l_hcca_DiReadUInt16_00105
  5412  19b4  db80              	in	a, (_IO_HCCA)
  5413  19b6  5f                	ld	e, a
  5414  19b7  3e00              	ld	a,0x00
  5415  19b9  b1                	or	a, c
  5416  19ba  6f                	ld	l, a
  5417  19bb  7b                	ld	a, e
  5418  19bc  b0                	or	a, b
  5419  19bd  67                	ld	h, a
  5420  19be  c9                	ret
  5421                          	SECTION code_compiler
  5422                          ;	---------------------------------
  5423                          ; Function hcca_DiReadInt16
  5424                          ; ---------------------------------
  5425                          _hcca_DiReadInt16:
  5426  19bf  3e0f              	ld	a,0x0f
  5427  19c1  d341              	out	(_IO_AYLATCH), a
  5428                          l_hcca_DiReadInt16_00101:
  5429  19c3  db40              	in	a, (_IO_AYDATA)
  5430  19c5  cb4f              	bit	1, a
  5431  19c7  20fa              	jr	NZ,l_hcca_DiReadInt16_00101
  5432  19c9  db80              	in	a, (_IO_HCCA)
  5433  19cb  4f                	ld	c, a
  5434  19cc  0600              	ld	b,0x00
  5435  19ce  3e0f              	ld	a,0x0f
  5436  19d0  d341              	out	(_IO_AYLATCH), a
  5437                          l_hcca_DiReadInt16_00105:
  5438  19d2  db40              	in	a, (_IO_AYDATA)
  5439  19d4  cb4f              	bit	1, a
  5440  19d6  20fa              	jr	NZ,l_hcca_DiReadInt16_00105
  5441  19d8  db80              	in	a, (_IO_HCCA)
  5442  19da  5f                	ld	e, a
  5443  19db  3e00              	ld	a,0x00
  5444  19dd  b1                	or	a, c
  5445  19de  6f                	ld	l, a
  5446  19df  7b                	ld	a, e
  5447  19e0  b0                	or	a, b
  5448  19e1  67                	ld	h, a
  5449  19e2  c9                	ret
  5450                          	SECTION code_compiler
  5451                          ;	---------------------------------
  5452                          ; Function hcca_DiReadUInt32
  5453                          ; ---------------------------------
  5454                          _hcca_DiReadUInt32:
  5455  19e3  dde5              	push	ix
  5456  19e5  dd210000          	ld	ix,0
  5457  19e9  dd39              	add	ix,sp
  5458  19eb  f5                	push	af
  5459  19ec  f5                	push	af
  5460  19ed  3e0f              	ld	a,0x0f
  5461  19ef  d341              	out	(_IO_AYLATCH), a
  5462                          l_hcca_DiReadUInt32_00101:
  5463  19f1  db40              	in	a, (_IO_AYDATA)
  5464  19f3  cb4f              	bit	1, a
  5465  19f5  20fa              	jr	NZ,l_hcca_DiReadUInt32_00101
  5466  19f7  db80              	in	a, (_IO_HCCA)
  5467  19f9  dd77fc            	ld	(ix-4),a
  5468  19fc  3e0f              	ld	a,0x0f
  5469  19fe  d341              	out	(_IO_AYLATCH), a
  5470                          l_hcca_DiReadUInt32_00105:
  5471  1a00  db40              	in	a, (_IO_AYDATA)
  5472  1a02  cb4f              	bit	1, a
  5473  1a04  20fa              	jr	NZ,l_hcca_DiReadUInt32_00105
  5474  1a06  db80              	in	a, (_IO_HCCA)
  5475  1a08  dd77fd            	ld	(ix-3),a
  5476  1a0b  3e0f              	ld	a,0x0f
  5477  1a0d  d341              	out	(_IO_AYLATCH), a
  5478                          l_hcca_DiReadUInt32_00109:
  5479  1a0f  db40              	in	a, (_IO_AYDATA)
  5480  1a11  cb4f              	bit	1, a
  5481  1a13  20fa              	jr	NZ,l_hcca_DiReadUInt32_00109
  5482  1a15  db80              	in	a, (_IO_HCCA)
  5483  1a17  dd77fe            	ld	(ix-2),a
  5484  1a1a  3e0f              	ld	a,0x0f
  5485  1a1c  d341              	out	(_IO_AYLATCH), a
  5486                          l_hcca_DiReadUInt32_00113:
  5487  1a1e  db40              	in	a, (_IO_AYDATA)
  5488  1a20  cb4f              	bit	1, a
  5489  1a22  20fa              	jr	NZ,l_hcca_DiReadUInt32_00113
  5490  1a24  db80              	in	a, (_IO_HCCA)
  5491  1a26  dd77ff            	ld	(ix-1),a
  5492  1a29  e1                	pop	hl
  5493  1a2a  e5                	push	hl
  5494  1a2b  dd5efe            	ld	e,(ix-2)
  5495  1a2e  dd56ff            	ld	d,(ix-1)
  5496  1a31  ddf9              	ld	sp, ix
  5497  1a33  dde1              	pop	ix
  5498  1a35  c9                	ret
  5499                          	SECTION code_compiler
  5500                          ;	---------------------------------
  5501                          ; Function hcca_DiReadInt32
  5502                          ; ---------------------------------
  5503                          _hcca_DiReadInt32:
  5504  1a36  dde5              	push	ix
  5505  1a38  dd210000          	ld	ix,0
  5506  1a3c  dd39              	add	ix,sp
  5507  1a3e  f5                	push	af
  5508  1a3f  f5                	push	af
  5509  1a40  3e0f              	ld	a,0x0f
  5510  1a42  d341              	out	(_IO_AYLATCH), a
  5511                          l_hcca_DiReadInt32_00101:
  5512  1a44  db40              	in	a, (_IO_AYDATA)
  5513  1a46  cb4f              	bit	1, a
  5514  1a48  20fa              	jr	NZ,l_hcca_DiReadInt32_00101
  5515  1a4a  db80              	in	a, (_IO_HCCA)
  5516  1a4c  dd77fc            	ld	(ix-4),a
  5517  1a4f  3e0f              	ld	a,0x0f
  5518  1a51  d341              	out	(_IO_AYLATCH), a
  5519                          l_hcca_DiReadInt32_00105:
  5520  1a53  db40              	in	a, (_IO_AYDATA)
  5521  1a55  cb4f              	bit	1, a
  5522  1a57  20fa              	jr	NZ,l_hcca_DiReadInt32_00105
  5523  1a59  db80              	in	a, (_IO_HCCA)
  5524  1a5b  dd77fd            	ld	(ix-3),a
  5525  1a5e  3e0f              	ld	a,0x0f
  5526  1a60  d341              	out	(_IO_AYLATCH), a
  5527                          l_hcca_DiReadInt32_00109:
  5528  1a62  db40              	in	a, (_IO_AYDATA)
  5529  1a64  cb4f              	bit	1, a
  5530  1a66  20fa              	jr	NZ,l_hcca_DiReadInt32_00109
  5531  1a68  db80              	in	a, (_IO_HCCA)
  5532  1a6a  dd77fe            	ld	(ix-2),a
  5533  1a6d  3e0f              	ld	a,0x0f
  5534  1a6f  d341              	out	(_IO_AYLATCH), a
  5535                          l_hcca_DiReadInt32_00113:
  5536  1a71  db40              	in	a, (_IO_AYDATA)
  5537  1a73  cb4f              	bit	1, a
  5538  1a75  20fa              	jr	NZ,l_hcca_DiReadInt32_00113
  5539  1a77  db80              	in	a, (_IO_HCCA)
  5540  1a79  dd77ff            	ld	(ix-1),a
  5541  1a7c  e1                	pop	hl
  5542  1a7d  e5                	push	hl
  5543  1a7e  dd5efe            	ld	e,(ix-2)
  5544  1a81  dd56ff            	ld	d,(ix-1)
  5545  1a84  ddf9              	ld	sp, ix
  5546  1a86  dde1              	pop	ix
  5547  1a88  c9                	ret
  5548                          	SECTION code_compiler
  5549                          ;	---------------------------------
  5550                          ; Function hcca_DiReadBytes
  5551                          ; ---------------------------------
  5552                          _hcca_DiReadBytes:
  5553  1a89  dde5              	push	ix
  5554  1a8b  dd210000          	ld	ix,0
  5555  1a8f  dd39              	add	ix,sp
  5556  1a91  dd7e08            	ld	a,(ix+8)
  5557  1a94  dd8604            	add	a,(ix+4)
  5558  1a97  4f                	ld	c, a
  5559  1a98  dd7e09            	ld	a,(ix+9)
  5560  1a9b  dd8e05            	adc	a,(ix+5)
  5561  1a9e  47                	ld	b, a
  5562  1a9f  dd6e06            	ld	l,(ix+6)
  5563  1aa2  dd6607            	ld	h,(ix+7)
  5564  1aa5  09                	add	hl, bc
  5565  1aa6  eb                	ex	de, hl
  5566  1aa7  3e0f              	ld	a,0x0f
  5567  1aa9  d341              	out	(_IO_AYLATCH), a
  5568                          l_hcca_DiReadBytes_00104:
  5569  1aab  69                	ld	l, c
  5570  1aac  60                	ld	h, b
  5571  1aad  bf                	cp	a, a
  5572  1aae  ed52              	sbc	hl, de
  5573  1ab0  280c              	jr	Z,l_hcca_DiReadBytes_00107
  5574                          l_hcca_DiReadBytes_00101:
  5575  1ab2  db40              	in	a, (_IO_AYDATA)
  5576  1ab4  cb4f              	bit	1, a
  5577  1ab6  20fa              	jr	NZ,l_hcca_DiReadBytes_00101
  5578  1ab8  db80              	in	a, (_IO_HCCA)
  5579  1aba  02                	ld	(bc), a
  5580  1abb  03                	inc	bc
  5581  1abc  18ed              	jr	l_hcca_DiReadBytes_00104
  5582                          l_hcca_DiReadBytes_00107:
  5583  1abe  dde1              	pop	ix
  5584  1ac0  c9                	ret
  5585                          	SECTION code_compiler
  5586                          ;	---------------------------------
  5587                          ; Function rn_fileOpen
  5588                          ; ---------------------------------
  5589                          _rn_fileOpen:
  5590  1ac1  cd8c18            	call	_hcca_DiFocusInterrupts
  5591  1ac4  3ea3              	ld	a,0xa3
  5592  1ac6  f5                	push	af
  5593  1ac7  33                	inc	sp
  5594  1ac8  cda618            	call	_hcca_DiWriteByte
  5595  1acb  33                	inc	sp
  5596  1acc  210200            	ld	hl,2+0
  5597  1acf  39                	add	hl, sp
  5598  1ad0  7e                	ld	a, (hl)
  5599  1ad1  f5                	push	af
  5600  1ad2  33                	inc	sp
  5601  1ad3  cda618            	call	_hcca_DiWriteByte
  5602  1ad6  33                	inc	sp
  5603  1ad7  fd210200          	ld	iy,2
  5604  1adb  fd39              	add	iy, sp
  5605  1add  fd4e00            	ld	c,(iy+0)
  5606  1ae0  0600              	ld	b,0x00
  5607  1ae2  fd23              	inc	iy
  5608  1ae4  fd6e00            	ld	l,(iy+0)
  5609  1ae7  fd6601            	ld	h,(iy+1)
  5610  1aea  e5                	push	hl
  5611  1aeb  c5                	push	bc
  5612  1aec  210000            	ld	hl,0x0000
  5613  1aef  e5                	push	hl
  5614  1af0  cd6519            	call	_hcca_DiWriteBytes
  5615  1af3  210600            	ld	hl,6
  5616  1af6  39                	add	hl, sp
  5617  1af7  f9                	ld	sp, hl
  5618  1af8  210500            	ld	hl,5
  5619  1afb  39                	add	hl, sp
  5620  1afc  4e                	ld	c, (hl)
  5621  1afd  23                	inc	hl
  5622  1afe  46                	ld	b, (hl)
  5623  1aff  c5                	push	bc
  5624  1b00  cd2219            	call	_hcca_DiWriteUInt16
  5625  1b03  f1                	pop	af
  5626  1b04  210700            	ld	hl,7+0
  5627  1b07  39                	add	hl, sp
  5628  1b08  7e                	ld	a, (hl)
  5629  1b09  f5                	push	af
  5630  1b0a  33                	inc	sp
  5631  1b0b  cda618            	call	_hcca_DiWriteByte
  5632  1b0e  33                	inc	sp
  5633  1b0f  3e0f              	ld	a,0x0f
  5634  1b11  d341              	out	(_IO_AYLATCH), a
  5635                          l_rn_fileOpen_00101:
  5636  1b13  db40              	in	a, (_IO_AYDATA)
  5637  1b15  cb4f              	bit	1, a
  5638  1b17  20fa              	jr	NZ,l_rn_fileOpen_00101
  5639  1b19  db80              	in	a, (_IO_HCCA)
  5640  1b1b  6f                	ld	l, a
  5641  1b1c  e5                	push	hl
  5642  1b1d  cd9818            	call	_hcca_DiRestoreInterrupts
  5643  1b20  e1                	pop	hl
  5644  1b21  c9                	ret
  5645                          	SECTION code_compiler
  5646                          ;	---------------------------------
  5647                          ; Function rn_fileHandleClose
  5648                          ; ---------------------------------
  5649                          _rn_fileHandleClose:
  5650  1b22  3ea7              	ld	a,0xa7
  5651  1b24  f5                	push	af
  5652  1b25  33                	inc	sp
  5653  1b26  cd3407            	call	_hcca_writeByte
  5654  1b29  33                	inc	sp
  5655  1b2a  210200            	ld	hl,2+0
  5656  1b2d  39                	add	hl, sp
  5657  1b2e  7e                	ld	a, (hl)
  5658  1b2f  f5                	push	af
  5659  1b30  33                	inc	sp
  5660  1b31  cd3407            	call	_hcca_writeByte
  5661  1b34  33                	inc	sp
  5662  1b35  c9                	ret
  5663                          	SECTION code_compiler
  5664                          ;	---------------------------------
  5665                          ; Function rn_fileSize
  5666                          ; ---------------------------------
  5667                          _rn_fileSize:
  5668  1b36  dde5              	push	ix
  5669  1b38  dd210000          	ld	ix,0
  5670  1b3c  dd39              	add	ix,sp
  5671  1b3e  cd8c18            	call	_hcca_DiFocusInterrupts
  5672  1b41  3ea8              	ld	a,0xa8
  5673  1b43  f5                	push	af
  5674  1b44  33                	inc	sp
  5675  1b45  cda618            	call	_hcca_DiWriteByte
  5676  1b48  33                	inc	sp
  5677  1b49  dd7e04            	ld	a,(ix+4)
  5678  1b4c  f5                	push	af
  5679  1b4d  33                	inc	sp
  5680  1b4e  cda618            	call	_hcca_DiWriteByte
  5681  1b51  33                	inc	sp
  5682  1b52  dd4e04            	ld	c,(ix+4)
  5683  1b55  0600              	ld	b,0x00
  5684  1b57  dd6e05            	ld	l,(ix+5)
  5685  1b5a  dd6606            	ld	h,(ix+6)
  5686  1b5d  e5                	push	hl
  5687  1b5e  c5                	push	bc
  5688  1b5f  210000            	ld	hl,0x0000
  5689  1b62  e5                	push	hl
  5690  1b63  cd6519            	call	_hcca_DiWriteBytes
  5691  1b66  210600            	ld	hl,6
  5692  1b69  39                	add	hl, sp
  5693  1b6a  f9                	ld	sp, hl
  5694  1b6b  cd361a            	call	_hcca_DiReadInt32
  5695  1b6e  e5                	push	hl
  5696  1b6f  d5                	push	de
  5697  1b70  cd9818            	call	_hcca_DiRestoreInterrupts
  5698  1b73  d1                	pop	de
  5699  1b74  e1                	pop	hl
  5700  1b75  dde1              	pop	ix
  5701  1b77  c9                	ret
  5702                          	SECTION code_compiler
  5703                          ;	---------------------------------
  5704                          ; Function rn_fileHandleSize
  5705                          ; ---------------------------------
  5706                          _rn_fileHandleSize:
  5707  1b78  dde5              	push	ix
  5708  1b7a  dd210000          	ld	ix,0
  5709  1b7e  dd39              	add	ix,sp
  5710  1b80  cd8c18            	call	_hcca_DiFocusInterrupts
  5711  1b83  3ea4              	ld	a,0xa4
  5712  1b85  f5                	push	af
  5713  1b86  33                	inc	sp
  5714  1b87  cda618            	call	_hcca_DiWriteByte
  5715  1b8a  33                	inc	sp
  5716  1b8b  dd7e04            	ld	a,(ix+4)
  5717  1b8e  f5                	push	af
  5718  1b8f  33                	inc	sp
  5719  1b90  cda618            	call	_hcca_DiWriteByte
  5720  1b93  33                	inc	sp
  5721  1b94  cd361a            	call	_hcca_DiReadInt32
  5722  1b97  e5                	push	hl
  5723  1b98  d5                	push	de
  5724  1b99  cd9818            	call	_hcca_DiRestoreInterrupts
  5725  1b9c  d1                	pop	de
  5726  1b9d  e1                	pop	hl
  5727  1b9e  dde1              	pop	ix
  5728  1ba0  c9                	ret
  5729                          	SECTION code_compiler
  5730                          ;	---------------------------------
  5731                          ; Function rn_fileHandleRead
  5732                          ; ---------------------------------
  5733                          _rn_fileHandleRead:
  5734  1ba1  dde5              	push	ix
  5735  1ba3  dd210000          	ld	ix,0
  5736  1ba7  dd39              	add	ix,sp
  5737  1ba9  cd8c18            	call	_hcca_DiFocusInterrupts
  5738  1bac  dd7e05            	ld	a,(ix+5)
  5739  1baf  dd8607            	add	a,(ix+7)
  5740  1bb2  6f                	ld	l, a
  5741  1bb3  dd7e06            	ld	a,(ix+6)
  5742  1bb6  dd8e08            	adc	a,(ix+8)
  5743  1bb9  67                	ld	h, a
  5744  1bba  e5                	push	hl
  5745  1bbb  3ea5              	ld	a,0xa5
  5746  1bbd  f5                	push	af
  5747  1bbe  33                	inc	sp
  5748  1bbf  cda618            	call	_hcca_DiWriteByte
  5749  1bc2  33                	inc	sp
  5750  1bc3  dd7e04            	ld	a,(ix+4)
  5751  1bc6  f5                	push	af
  5752  1bc7  33                	inc	sp
  5753  1bc8  cda618            	call	_hcca_DiWriteByte
  5754  1bcb  33                	inc	sp
  5755  1bcc  dd5e0b            	ld	e,(ix+11)
  5756  1bcf  dd560c            	ld	d,(ix+12)
  5757  1bd2  d5                	push	de
  5758  1bd3  dd5e09            	ld	e,(ix+9)
  5759  1bd6  dd560a            	ld	d,(ix+10)
  5760  1bd9  d5                	push	de
  5761  1bda  cdc818            	call	_hcca_DiWriteUInt32
  5762  1bdd  f1                	pop	af
  5763  1bde  f1                	pop	af
  5764  1bdf  dd5e0d            	ld	e,(ix+13)
  5765  1be2  dd560e            	ld	d,(ix+14)
  5766  1be5  d5                	push	de
  5767  1be6  cd2219            	call	_hcca_DiWriteUInt16
  5768  1be9  f1                	pop	af
  5769  1bea  cd9b19            	call	_hcca_DiReadUInt16
  5770  1bed  eb                	ex	de, hl
  5771  1bee  e1                	pop	hl
  5772  1bef  7d                	ld	a, l
  5773  1bf0  83                	add	a, e
  5774  1bf1  4f                	ld	c, a
  5775  1bf2  7c                	ld	a, h
  5776  1bf3  8a                	adc	a, d
  5777  1bf4  47                	ld	b, a
  5778                          l_rn_fileHandleRead_00104:
  5779  1bf5  7d                	ld	a, l
  5780  1bf6  91                	sub	a, c
  5781  1bf7  2004              	jr	NZ,l_rn_fileHandleRead_00125
  5782  1bf9  7c                	ld	a, h
  5783  1bfa  90                	sub	a, b
  5784  1bfb  280c              	jr	Z,l_rn_fileHandleRead_00106
  5785                          l_rn_fileHandleRead_00125:
  5786                          l_rn_fileHandleRead_00101:
  5787  1bfd  db40              	in	a, (_IO_AYDATA)
  5788  1bff  cb4f              	bit	1, a
  5789  1c01  20fa              	jr	NZ,l_rn_fileHandleRead_00101
  5790  1c03  db80              	in	a, (_IO_HCCA)
  5791  1c05  77                	ld	(hl), a
  5792  1c06  23                	inc	hl
  5793  1c07  18ec              	jr	l_rn_fileHandleRead_00104
  5794                          l_rn_fileHandleRead_00106:
  5795  1c09  d5                	push	de
  5796  1c0a  cd9818            	call	_hcca_DiRestoreInterrupts
  5797  1c0d  d1                	pop	de
  5798  1c0e  eb                	ex	de, hl
  5799  1c0f  dde1              	pop	ix
  5800  1c11  c9                	ret
  5801                          	SECTION code_compiler
  5802                          ;	---------------------------------
  5803                          ; Function rn_fileHandleAppend
  5804                          ; ---------------------------------
  5805                          _rn_fileHandleAppend:
  5806  1c12  3ea9              	ld	a,0xa9
  5807  1c14  f5                	push	af
  5808  1c15  33                	inc	sp
  5809  1c16  cd3407            	call	_hcca_writeByte
  5810  1c19  33                	inc	sp
  5811  1c1a  210200            	ld	hl,2+0
  5812  1c1d  39                	add	hl, sp
  5813  1c1e  7e                	ld	a, (hl)
  5814  1c1f  f5                	push	af
  5815  1c20  33                	inc	sp
  5816  1c21  cd3407            	call	_hcca_writeByte
  5817  1c24  33                	inc	sp
  5818  1c25  210500            	ld	hl,5
  5819  1c28  39                	add	hl, sp
  5820  1c29  4e                	ld	c, (hl)
  5821  1c2a  23                	inc	hl
  5822  1c2b  46                	ld	b, (hl)
  5823  1c2c  c5                	push	bc
  5824  1c2d  cdb807            	call	_hcca_writeUInt16
  5825  1c30  f1                	pop	af
  5826  1c31  fd210700          	ld	iy,7
  5827  1c35  fd39              	add	iy, sp
  5828  1c37  fd6e00            	ld	l,(iy+0)
  5829  1c3a  fd6601            	ld	h,(iy+1)
  5830  1c3d  e5                	push	hl
  5831  1c3e  fd2b              	dec	iy
  5832  1c40  fd2b              	dec	iy
  5833  1c42  fd6e00            	ld	l,(iy+0)
  5834  1c45  fd6601            	ld	h,(iy+1)
  5835  1c48  e5                	push	hl
  5836  1c49  fd2b              	dec	iy
  5837  1c4b  fd2b              	dec	iy
  5838  1c4d  fd6e00            	ld	l,(iy+0)
  5839  1c50  fd6601            	ld	h,(iy+1)
  5840  1c53  e5                	push	hl
  5841  1c54  cd0008            	call	_hcca_writeBytes
  5842  1c57  210600            	ld	hl,6
  5843  1c5a  39                	add	hl, sp
  5844  1c5b  f9                	ld	sp, hl
  5845  1c5c  c9                	ret
  5846                          	SECTION code_compiler
  5847                          ;	---------------------------------
  5848                          ; Function rn_fileHandleInsert
  5849                          ; ---------------------------------
  5850                          _rn_fileHandleInsert:
  5851  1c5d  dde5              	push	ix
  5852  1c5f  dd210000          	ld	ix,0
  5853  1c63  dd39              	add	ix,sp
  5854  1c65  3eaa              	ld	a,0xaa
  5855  1c67  f5                	push	af
  5856  1c68  33                	inc	sp
  5857  1c69  cd3407            	call	_hcca_writeByte
  5858  1c6c  33                	inc	sp
  5859  1c6d  dd7e04            	ld	a,(ix+4)
  5860  1c70  f5                	push	af
  5861  1c71  33                	inc	sp
  5862  1c72  cd3407            	call	_hcca_writeByte
  5863  1c75  33                	inc	sp
  5864  1c76  dd6e07            	ld	l,(ix+7)
  5865  1c79  dd6608            	ld	h,(ix+8)
  5866  1c7c  e5                	push	hl
  5867  1c7d  dd6e05            	ld	l,(ix+5)
  5868  1c80  dd6606            	ld	h,(ix+6)
  5869  1c83  e5                	push	hl
  5870  1c84  cd5e07            	call	_hcca_writeUInt32
  5871  1c87  f1                	pop	af
  5872  1c88  f1                	pop	af
  5873  1c89  dd6e0b            	ld	l,(ix+11)
  5874  1c8c  dd660c            	ld	h,(ix+12)
  5875  1c8f  e5                	push	hl
  5876  1c90  cdb807            	call	_hcca_writeUInt16
  5877  1c93  f1                	pop	af
  5878  1c94  dd6e0d            	ld	l,(ix+13)
  5879  1c97  dd660e            	ld	h,(ix+14)
  5880  1c9a  e5                	push	hl
  5881  1c9b  dd6e0b            	ld	l,(ix+11)
  5882  1c9e  dd660c            	ld	h,(ix+12)
  5883  1ca1  e5                	push	hl
  5884  1ca2  dd6e09            	ld	l,(ix+9)
  5885  1ca5  dd660a            	ld	h,(ix+10)
  5886  1ca8  e5                	push	hl
  5887  1ca9  cd0008            	call	_hcca_writeBytes
  5888  1cac  210600            	ld	hl,6
  5889  1caf  39                	add	hl, sp
  5890  1cb0  f9                	ld	sp, hl
  5891  1cb1  dde1              	pop	ix
  5892  1cb3  c9                	ret
  5893                          	SECTION code_compiler
  5894                          ;	---------------------------------
  5895                          ; Function rn_fileHandleDeleteRange
  5896                          ; ---------------------------------
  5897                          _rn_fileHandleDeleteRange:
  5898  1cb4  3eab              	ld	a,0xab
  5899  1cb6  f5                	push	af
  5900  1cb7  33                	inc	sp
  5901  1cb8  cd3407            	call	_hcca_writeByte
  5902  1cbb  33                	inc	sp
  5903  1cbc  210200            	ld	hl,2+0
  5904  1cbf  39                	add	hl, sp
  5905  1cc0  7e                	ld	a, (hl)
  5906  1cc1  f5                	push	af
  5907  1cc2  33                	inc	sp
  5908  1cc3  cd3407            	call	_hcca_writeByte
  5909  1cc6  33                	inc	sp
  5910  1cc7  fd210300          	ld	iy,3
  5911  1ccb  fd39              	add	iy, sp
  5912  1ccd  fd6e02            	ld	l,(iy+2)
  5913  1cd0  fd6603            	ld	h,(iy+3)
  5914  1cd3  e5                	push	hl
  5915  1cd4  fd6e00            	ld	l,(iy+0)
  5916  1cd7  fd6601            	ld	h,(iy+1)
  5917  1cda  e5                	push	hl
  5918  1cdb  cd5e07            	call	_hcca_writeUInt32
  5919  1cde  f1                	pop	af
  5920  1cdf  f1                	pop	af
  5921  1ce0  210700            	ld	hl,7
  5922  1ce3  39                	add	hl, sp
  5923  1ce4  4e                	ld	c, (hl)
  5924  1ce5  23                	inc	hl
  5925  1ce6  46                	ld	b, (hl)
  5926  1ce7  c5                	push	bc
  5927  1ce8  cdb807            	call	_hcca_writeUInt16
  5928  1ceb  f1                	pop	af
  5929  1cec  c9                	ret
  5930                          	SECTION code_compiler
  5931                          ;	---------------------------------
  5932                          ; Function rn_fileHandleEmptyFile
  5933                          ; ---------------------------------
  5934                          _rn_fileHandleEmptyFile:
  5935  1ced  3eb0              	ld	a,0xb0
  5936  1cef  f5                	push	af
  5937  1cf0  33                	inc	sp
  5938  1cf1  cd3407            	call	_hcca_writeByte
  5939  1cf4  33                	inc	sp
  5940  1cf5  210200            	ld	hl,2+0
  5941  1cf8  39                	add	hl, sp
  5942  1cf9  7e                	ld	a, (hl)
  5943  1cfa  f5                	push	af
  5944  1cfb  33                	inc	sp
  5945  1cfc  cd3407            	call	_hcca_writeByte
  5946  1cff  33                	inc	sp
  5947  1d00  c9                	ret
  5948                          	SECTION code_compiler
  5949                          ;	---------------------------------
  5950                          ; Function rn_fileHandleReplace
  5951                          ; ---------------------------------
  5952                          _rn_fileHandleReplace:
  5953  1d01  dde5              	push	ix
  5954  1d03  dd210000          	ld	ix,0
  5955  1d07  dd39              	add	ix,sp
  5956  1d09  3eac              	ld	a,0xac
  5957  1d0b  f5                	push	af
  5958  1d0c  33                	inc	sp
  5959  1d0d  cd3407            	call	_hcca_writeByte
  5960  1d10  33                	inc	sp
  5961  1d11  dd7e04            	ld	a,(ix+4)
  5962  1d14  f5                	push	af
  5963  1d15  33                	inc	sp
  5964  1d16  cd3407            	call	_hcca_writeByte
  5965  1d19  33                	inc	sp
  5966  1d1a  dd6e07            	ld	l,(ix+7)
  5967  1d1d  dd6608            	ld	h,(ix+8)
  5968  1d20  e5                	push	hl
  5969  1d21  dd6e05            	ld	l,(ix+5)
  5970  1d24  dd6606            	ld	h,(ix+6)
  5971  1d27  e5                	push	hl
  5972  1d28  cd5e07            	call	_hcca_writeUInt32
  5973  1d2b  f1                	pop	af
  5974  1d2c  f1                	pop	af
  5975  1d2d  dd6e0b            	ld	l,(ix+11)
  5976  1d30  dd660c            	ld	h,(ix+12)
  5977  1d33  e5                	push	hl
  5978  1d34  cdb807            	call	_hcca_writeUInt16
  5979  1d37  f1                	pop	af
  5980  1d38  dd6e0d            	ld	l,(ix+13)
  5981  1d3b  dd660e            	ld	h,(ix+14)
  5982  1d3e  e5                	push	hl
  5983  1d3f  dd6e0b            	ld	l,(ix+11)
  5984  1d42  dd660c            	ld	h,(ix+12)
  5985  1d45  e5                	push	hl
  5986  1d46  dd6e09            	ld	l,(ix+9)
  5987  1d49  dd660a            	ld	h,(ix+10)
  5988  1d4c  e5                	push	hl
  5989  1d4d  cd0008            	call	_hcca_writeBytes
  5990  1d50  210600            	ld	hl,6
  5991  1d53  39                	add	hl, sp
  5992  1d54  f9                	ld	sp, hl
  5993  1d55  dde1              	pop	ix
  5994  1d57  c9                	ret
  5995                          	SECTION code_compiler
  5996                          ;	---------------------------------
  5997                          ; Function rn_fileDelete
  5998                          ; ---------------------------------
  5999                          _rn_fileDelete:
  6000  1d58  3ead              	ld	a,0xad
  6001  1d5a  f5                	push	af
  6002  1d5b  33                	inc	sp
  6003  1d5c  cd3407            	call	_hcca_writeByte
  6004  1d5f  33                	inc	sp
  6005  1d60  210200            	ld	hl,2+0
  6006  1d63  39                	add	hl, sp
  6007  1d64  7e                	ld	a, (hl)
  6008  1d65  f5                	push	af
  6009  1d66  33                	inc	sp
  6010  1d67  cd3407            	call	_hcca_writeByte
  6011  1d6a  33                	inc	sp
  6012  1d6b  fd210200          	ld	iy,2
  6013  1d6f  fd39              	add	iy, sp
  6014  1d71  fd4e00            	ld	c,(iy+0)
  6015  1d74  0600              	ld	b,0x00
  6016  1d76  fd23              	inc	iy
  6017  1d78  fd6e00            	ld	l,(iy+0)
  6018  1d7b  fd6601            	ld	h,(iy+1)
  6019  1d7e  e5                	push	hl
  6020  1d7f  c5                	push	bc
  6021  1d80  210000            	ld	hl,0x0000
  6022  1d83  e5                	push	hl
  6023  1d84  cd0008            	call	_hcca_writeBytes
  6024  1d87  210600            	ld	hl,6
  6025  1d8a  39                	add	hl, sp
  6026  1d8b  f9                	ld	sp, hl
  6027  1d8c  c9                	ret
  6028                          	SECTION code_compiler
  6029                          ;	---------------------------------
  6030                          ; Function rn_fileHandleCopy
  6031                          ; ---------------------------------
  6032                          _rn_fileHandleCopy:
  6033  1d8d  dde5              	push	ix
  6034  1d8f  dd210000          	ld	ix,0
  6035  1d93  dd39              	add	ix,sp
  6036  1d95  3eae              	ld	a,0xae
  6037  1d97  f5                	push	af
  6038  1d98  33                	inc	sp
  6039  1d99  cd3407            	call	_hcca_writeByte
  6040  1d9c  33                	inc	sp
  6041  1d9d  dd7e04            	ld	a,(ix+4)
  6042  1da0  f5                	push	af
  6043  1da1  33                	inc	sp
  6044  1da2  cd3407            	call	_hcca_writeByte
  6045  1da5  33                	inc	sp
  6046  1da6  dd4e04            	ld	c,(ix+4)
  6047  1da9  0600              	ld	b,0x00
  6048  1dab  dd6e05            	ld	l,(ix+5)
  6049  1dae  dd6606            	ld	h,(ix+6)
  6050  1db1  e5                	push	hl
  6051  1db2  c5                	push	bc
  6052  1db3  210000            	ld	hl,0x0000
  6053  1db6  e5                	push	hl
  6054  1db7  cd0008            	call	_hcca_writeBytes
  6055  1dba  210600            	ld	hl,6
  6056  1dbd  39                	add	hl, sp
  6057  1dbe  f9                	ld	sp, hl
  6058  1dbf  dd7e07            	ld	a,(ix+7)
  6059  1dc2  f5                	push	af
  6060  1dc3  33                	inc	sp
  6061  1dc4  cd3407            	call	_hcca_writeByte
  6062  1dc7  33                	inc	sp
  6063  1dc8  dd4e07            	ld	c,(ix+7)
  6064  1dcb  0600              	ld	b,0x00
  6065  1dcd  dd6e08            	ld	l,(ix+8)
  6066  1dd0  dd6609            	ld	h,(ix+9)
  6067  1dd3  e5                	push	hl
  6068  1dd4  c5                	push	bc
  6069  1dd5  210000            	ld	hl,0x0000
  6070  1dd8  e5                	push	hl
  6071  1dd9  cd0008            	call	_hcca_writeBytes
  6072  1ddc  210600            	ld	hl,6
  6073  1ddf  39                	add	hl, sp
  6074  1de0  f9                	ld	sp, hl
  6075  1de1  dd7e0a            	ld	a,(ix+10)
  6076  1de4  f5                	push	af
  6077  1de5  33                	inc	sp
  6078  1de6  cd3407            	call	_hcca_writeByte
  6079  1de9  33                	inc	sp
  6080  1dea  dde1              	pop	ix
  6081  1dec  c9                	ret
  6082                          	SECTION code_compiler
  6083                          ;	---------------------------------
  6084                          ; Function rn_fileHandleMove
  6085                          ; ---------------------------------
  6086                          _rn_fileHandleMove:
  6087  1ded  dde5              	push	ix
  6088  1def  dd210000          	ld	ix,0
  6089  1df3  dd39              	add	ix,sp
  6090  1df5  3eaf              	ld	a,0xaf
  6091  1df7  f5                	push	af
  6092  1df8  33                	inc	sp
  6093  1df9  cd3407            	call	_hcca_writeByte
  6094  1dfc  33                	inc	sp
  6095  1dfd  dd7e04            	ld	a,(ix+4)
  6096  1e00  f5                	push	af
  6097  1e01  33                	inc	sp
  6098  1e02  cd3407            	call	_hcca_writeByte
  6099  1e05  33                	inc	sp
  6100  1e06  dd4e04            	ld	c,(ix+4)
  6101  1e09  0600              	ld	b,0x00
  6102  1e0b  dd6e05            	ld	l,(ix+5)
  6103  1e0e  dd6606            	ld	h,(ix+6)
  6104  1e11  e5                	push	hl
  6105  1e12  c5                	push	bc
  6106  1e13  210000            	ld	hl,0x0000
  6107  1e16  e5                	push	hl
  6108  1e17  cd0008            	call	_hcca_writeBytes
  6109  1e1a  210600            	ld	hl,6
  6110  1e1d  39                	add	hl, sp
  6111  1e1e  f9                	ld	sp, hl
  6112  1e1f  dd7e07            	ld	a,(ix+7)
  6113  1e22  f5                	push	af
  6114  1e23  33                	inc	sp
  6115  1e24  cd3407            	call	_hcca_writeByte
  6116  1e27  33                	inc	sp
  6117  1e28  dd4e07            	ld	c,(ix+7)
  6118  1e2b  0600              	ld	b,0x00
  6119  1e2d  dd6e08            	ld	l,(ix+8)
  6120  1e30  dd6609            	ld	h,(ix+9)
  6121  1e33  e5                	push	hl
  6122  1e34  c5                	push	bc
  6123  1e35  210000            	ld	hl,0x0000
  6124  1e38  e5                	push	hl
  6125  1e39  cd0008            	call	_hcca_writeBytes
  6126  1e3c  210600            	ld	hl,6
  6127  1e3f  39                	add	hl, sp
  6128  1e40  f9                	ld	sp, hl
  6129  1e41  dd7e0a            	ld	a,(ix+10)
  6130  1e44  f5                	push	af
  6131  1e45  33                	inc	sp
  6132  1e46  cd3407            	call	_hcca_writeByte
  6133  1e49  33                	inc	sp
  6134  1e4a  dde1              	pop	ix
  6135  1e4c  c9                	ret
  6136                          	SECTION code_compiler
  6137                          ;	---------------------------------
  6138                          ; Function rn_fileList
  6139                          ; ---------------------------------
  6140                          _rn_fileList:
  6141  1e4d  dde5              	push	ix
  6142  1e4f  dd210000          	ld	ix,0
  6143  1e53  dd39              	add	ix,sp
  6144  1e55  cd8c18            	call	_hcca_DiFocusInterrupts
  6145  1e58  3eb1              	ld	a,0xb1
  6146  1e5a  f5                	push	af
  6147  1e5b  33                	inc	sp
  6148  1e5c  cda618            	call	_hcca_DiWriteByte
  6149  1e5f  33                	inc	sp
  6150  1e60  dd7e04            	ld	a,(ix+4)
  6151  1e63  f5                	push	af
  6152  1e64  33                	inc	sp
  6153  1e65  cda618            	call	_hcca_DiWriteByte
  6154  1e68  33                	inc	sp
  6155  1e69  dd4e04            	ld	c,(ix+4)
  6156  1e6c  0600              	ld	b,0x00
  6157  1e6e  dd6e05            	ld	l,(ix+5)
  6158  1e71  dd6606            	ld	h,(ix+6)
  6159  1e74  e5                	push	hl
  6160  1e75  c5                	push	bc
  6161  1e76  210000            	ld	hl,0x0000
  6162  1e79  e5                	push	hl
  6163  1e7a  cd6519            	call	_hcca_DiWriteBytes
  6164  1e7d  210600            	ld	hl,6
  6165  1e80  39                	add	hl, sp
  6166  1e81  f9                	ld	sp, hl
  6167  1e82  dd7e07            	ld	a,(ix+7)
  6168  1e85  f5                	push	af
  6169  1e86  33                	inc	sp
  6170  1e87  cda618            	call	_hcca_DiWriteByte
  6171  1e8a  33                	inc	sp
  6172  1e8b  dd4e07            	ld	c,(ix+7)
  6173  1e8e  0600              	ld	b,0x00
  6174  1e90  dd6e08            	ld	l,(ix+8)
  6175  1e93  dd6609            	ld	h,(ix+9)
  6176  1e96  e5                	push	hl
  6177  1e97  c5                	push	bc
  6178  1e98  210000            	ld	hl,0x0000
  6179  1e9b  e5                	push	hl
  6180  1e9c  cd6519            	call	_hcca_DiWriteBytes
  6181  1e9f  210600            	ld	hl,6
  6182  1ea2  39                	add	hl, sp
  6183  1ea3  f9                	ld	sp, hl
  6184  1ea4  dd7e0a            	ld	a,(ix+10)
  6185  1ea7  f5                	push	af
  6186  1ea8  33                	inc	sp
  6187  1ea9  cda618            	call	_hcca_DiWriteByte
  6188  1eac  33                	inc	sp
  6189  1ead  cd9b19            	call	_hcca_DiReadUInt16
  6190  1eb0  e5                	push	hl
  6191  1eb1  cd9818            	call	_hcca_DiRestoreInterrupts
  6192  1eb4  e1                	pop	hl
  6193  1eb5  dde1              	pop	ix
  6194  1eb7  c9                	ret
  6195                          	SECTION code_compiler
  6196                          ;	---------------------------------
  6197                          ; Function rn_fileListItem
  6198                          ; ---------------------------------
  6199                          _rn_fileListItem:
  6200  1eb8  dde5              	push	ix
  6201  1eba  dd210000          	ld	ix,0
  6202  1ebe  dd39              	add	ix,sp
  6203  1ec0  f5                	push	af
  6204  1ec1  f5                	push	af
  6205  1ec2  cd8c18            	call	_hcca_DiFocusInterrupts
  6206  1ec5  3eb2              	ld	a,0xb2
  6207  1ec7  f5                	push	af
  6208  1ec8  33                	inc	sp
  6209  1ec9  cda618            	call	_hcca_DiWriteByte
  6210  1ecc  33                	inc	sp
  6211  1ecd  dd6e04            	ld	l,(ix+4)
  6212  1ed0  dd6605            	ld	h,(ix+5)
  6213  1ed3  e5                	push	hl
  6214  1ed4  cd2219            	call	_hcca_DiWriteUInt16
  6215  1ed7  f1                	pop	af
  6216  1ed8  dd5e06            	ld	e,(ix+6)
  6217  1edb  dd5607            	ld	d,(ix+7)
  6218  1ede  d5                	push	de
  6219  1edf  cd361a            	call	_hcca_DiReadInt32
  6220  1ee2  dd75fc            	ld	(ix-4),l
  6221  1ee5  dd74fd            	ld	(ix-3),h
  6222  1ee8  dd73fe            	ld	(ix-2),e
  6223  1eeb  dd72ff            	ld	(ix-1),d
  6224  1eee  d1                	pop	de
  6225  1eef  d5                	push	de
  6226  1ef0  210200            	ld	hl,2
  6227  1ef3  39                	add	hl, sp
  6228  1ef4  010400            	ld	bc,0x0004
  6229  1ef7  edb0              	ldir
  6230  1ef9  d1                	pop	de
  6231  1efa  210400            	ld	hl,0x0004
  6232  1efd  19                	add	hl, de
  6233  1efe  e5                	push	hl
  6234  1eff  d5                	push	de
  6235  1f00  cd9b19            	call	_hcca_DiReadUInt16
  6236  1f03  4d                	ld	c, l
  6237  1f04  44                	ld	b, h
  6238  1f05  d1                	pop	de
  6239  1f06  e1                	pop	hl
  6240  1f07  71                	ld	(hl), c
  6241  1f08  23                	inc	hl
  6242  1f09  70                	ld	(hl), b
  6243  1f0a  210600            	ld	hl,0x0006
  6244  1f0d  19                	add	hl, de
  6245  1f0e  3e0f              	ld	a,0x0f
  6246  1f10  d341              	out	(_IO_AYLATCH), a
  6247                          l_rn_fileListItem_00101:
  6248  1f12  db40              	in	a, (_IO_AYDATA)
  6249  1f14  cb4f              	bit	1, a
  6250  1f16  20fa              	jr	NZ,l_rn_fileListItem_00101
  6251  1f18  db80              	in	a, (_IO_HCCA)
  6252  1f1a  77                	ld	(hl), a
  6253  1f1b  210700            	ld	hl,0x0007
  6254  1f1e  19                	add	hl, de
  6255  1f1f  3e0f              	ld	a,0x0f
  6256  1f21  d341              	out	(_IO_AYLATCH), a
  6257                          l_rn_fileListItem_00105:
  6258  1f23  db40              	in	a, (_IO_AYDATA)
  6259  1f25  cb4f              	bit	1, a
  6260  1f27  20fa              	jr	NZ,l_rn_fileListItem_00105
  6261  1f29  db80              	in	a, (_IO_HCCA)
  6262  1f2b  77                	ld	(hl), a
  6263  1f2c  210800            	ld	hl,0x0008
  6264  1f2f  19                	add	hl, de
  6265  1f30  3e0f              	ld	a,0x0f
  6266  1f32  d341              	out	(_IO_AYLATCH), a
  6267                          l_rn_fileListItem_00109:
  6268  1f34  db40              	in	a, (_IO_AYDATA)
  6269  1f36  cb4f              	bit	1, a
  6270  1f38  20fa              	jr	NZ,l_rn_fileListItem_00109
  6271  1f3a  db80              	in	a, (_IO_HCCA)
  6272  1f3c  77                	ld	(hl), a
  6273  1f3d  210900            	ld	hl,0x0009
  6274  1f40  19                	add	hl, de
  6275  1f41  3e0f              	ld	a,0x0f
  6276  1f43  d341              	out	(_IO_AYLATCH), a
  6277                          l_rn_fileListItem_00113:
  6278  1f45  db40              	in	a, (_IO_AYDATA)
  6279  1f47  cb4f              	bit	1, a
  6280  1f49  20fa              	jr	NZ,l_rn_fileListItem_00113
  6281  1f4b  db80              	in	a, (_IO_HCCA)
  6282  1f4d  77                	ld	(hl), a
  6283  1f4e  210a00            	ld	hl,0x000a
  6284  1f51  19                	add	hl, de
  6285  1f52  3e0f              	ld	a,0x0f
  6286  1f54  d341              	out	(_IO_AYLATCH), a
  6287                          l_rn_fileListItem_00117:
  6288  1f56  db40              	in	a, (_IO_AYDATA)
  6289  1f58  cb4f              	bit	1, a
  6290  1f5a  20fa              	jr	NZ,l_rn_fileListItem_00117
  6291  1f5c  db80              	in	a, (_IO_HCCA)
  6292  1f5e  77                	ld	(hl), a
  6293  1f5f  210b00            	ld	hl,0x000b
  6294  1f62  19                	add	hl, de
  6295  1f63  e5                	push	hl
  6296  1f64  d5                	push	de
  6297  1f65  cd9b19            	call	_hcca_DiReadUInt16
  6298  1f68  4d                	ld	c, l
  6299  1f69  44                	ld	b, h
  6300  1f6a  d1                	pop	de
  6301  1f6b  e1                	pop	hl
  6302  1f6c  71                	ld	(hl), c
  6303  1f6d  23                	inc	hl
  6304  1f6e  70                	ld	(hl), b
  6305  1f6f  210d00            	ld	hl,0x000d
  6306  1f72  19                	add	hl, de
  6307  1f73  3e0f              	ld	a,0x0f
  6308  1f75  d341              	out	(_IO_AYLATCH), a
  6309                          l_rn_fileListItem_00121:
  6310  1f77  db40              	in	a, (_IO_AYDATA)
  6311  1f79  cb4f              	bit	1, a
  6312  1f7b  20fa              	jr	NZ,l_rn_fileListItem_00121
  6313  1f7d  db80              	in	a, (_IO_HCCA)
  6314  1f7f  77                	ld	(hl), a
  6315  1f80  210e00            	ld	hl,0x000e
  6316  1f83  19                	add	hl, de
  6317  1f84  3e0f              	ld	a,0x0f
  6318  1f86  d341              	out	(_IO_AYLATCH), a
  6319                          l_rn_fileListItem_00125:
  6320  1f88  db40              	in	a, (_IO_AYDATA)
  6321  1f8a  cb4f              	bit	1, a
  6322  1f8c  20fa              	jr	NZ,l_rn_fileListItem_00125
  6323  1f8e  db80              	in	a, (_IO_HCCA)
  6324  1f90  77                	ld	(hl), a
  6325  1f91  210f00            	ld	hl,0x000f
  6326  1f94  19                	add	hl, de
  6327  1f95  3e0f              	ld	a,0x0f
  6328  1f97  d341              	out	(_IO_AYLATCH), a
  6329                          l_rn_fileListItem_00129:
  6330  1f99  db40              	in	a, (_IO_AYDATA)
  6331  1f9b  cb4f              	bit	1, a
  6332  1f9d  20fa              	jr	NZ,l_rn_fileListItem_00129
  6333  1f9f  db80              	in	a, (_IO_HCCA)
  6334  1fa1  77                	ld	(hl), a
  6335  1fa2  211000            	ld	hl,0x0010
  6336  1fa5  19                	add	hl, de
  6337  1fa6  3e0f              	ld	a,0x0f
  6338  1fa8  d341              	out	(_IO_AYLATCH), a
  6339                          l_rn_fileListItem_00133:
  6340  1faa  db40              	in	a, (_IO_AYDATA)
  6341  1fac  cb4f              	bit	1, a
  6342  1fae  20fa              	jr	NZ,l_rn_fileListItem_00133
  6343  1fb0  db80              	in	a, (_IO_HCCA)
  6344  1fb2  77                	ld	(hl), a
  6345  1fb3  211100            	ld	hl,0x0011
  6346  1fb6  19                	add	hl, de
  6347  1fb7  3e0f              	ld	a,0x0f
  6348  1fb9  d341              	out	(_IO_AYLATCH), a
  6349                          l_rn_fileListItem_00137:
  6350  1fbb  db40              	in	a, (_IO_AYDATA)
  6351  1fbd  cb4f              	bit	1, a
  6352  1fbf  20fa              	jr	NZ,l_rn_fileListItem_00137
  6353  1fc1  db80              	in	a, (_IO_HCCA)
  6354  1fc3  77                	ld	(hl), a
  6355  1fc4  211200            	ld	hl,0x0012
  6356  1fc7  19                	add	hl, de
  6357  1fc8  3e0f              	ld	a,0x0f
  6358  1fca  d341              	out	(_IO_AYLATCH), a
  6359                          l_rn_fileListItem_00141:
  6360  1fcc  db40              	in	a, (_IO_AYDATA)
  6361  1fce  cb4f              	bit	1, a
  6362  1fd0  20fa              	jr	NZ,l_rn_fileListItem_00141
  6363  1fd2  db80              	in	a, (_IO_HCCA)
  6364  1fd4  77                	ld	(hl), a
  6365  1fd5  211300            	ld	hl,0x0013
  6366  1fd8  19                	add	hl, de
  6367  1fd9  d5                	push	de
  6368  1fda  e5                	push	hl
  6369  1fdb  214000            	ld	hl,0x0040
  6370  1fde  e5                	push	hl
  6371  1fdf  6c                	ld	l, h
  6372  1fe0  e5                	push	hl
  6373  1fe1  cd891a            	call	_hcca_DiReadBytes
  6374  1fe4  210600            	ld	hl,6
  6375  1fe7  39                	add	hl, sp
  6376  1fe8  f9                	ld	sp, hl
  6377  1fe9  d1                	pop	de
  6378  1fea  215300            	ld	hl,0x0053
  6379  1fed  19                	add	hl, de
  6380  1fee  d5                	push	de
  6381  1fef  e5                	push	hl
  6382  1ff0  210400            	ld	hl,4
  6383  1ff3  39                	add	hl, sp
  6384  1ff4  eb                	ex	de, hl
  6385  1ff5  010400            	ld	bc,0x0004
  6386  1ff8  edb0              	ldir
  6387  1ffa  c1                	pop	bc
  6388  1ffb  d1                	pop	de
  6389  1ffc  dd7eff            	ld	a,(ix-1)
  6390  1fff  07                	rlca
  6391  2000  e601              	and	a,0x01
  6392  2002  ee01              	xor	a,0x01
  6393  2004  02                	ld	(bc), a
  6394  2005  215400            	ld	hl,0x0054
  6395  2008  19                	add	hl, de
  6396  2009  4d                	ld	c, l
  6397  200a  44                	ld	b, h
  6398  200b  eb                	ex	de,hl
  6399  200c  5e                	ld	e, (hl)
  6400  200d  23                	inc	hl
  6401  200e  56                	ld	d, (hl)
  6402  200f  23                	inc	hl
  6403  2010  23                	inc	hl
  6404  2011  7e                	ld	a, (hl)
  6405  2012  2b                	dec	hl
  6406  2013  6e                	ld	l, (hl)
  6407  2014  67                	ld	h, a
  6408  2015  7b                	ld	a, e
  6409  2016  d6fe              	sub	a,0xfe
  6410  2018  200a              	jr	NZ,l_rn_fileListItem_00279
  6411  201a  7a                	ld	a, d
  6412  201b  a5                	and	a, l
  6413  201c  a4                	and	a, h
  6414  201d  3c                	inc	a
  6415  201e  2004              	jr	NZ,l_rn_fileListItem_00279
  6416  2020  3e01              	ld	a,0x01
  6417  2022  1801              	jr	l_rn_fileListItem_00280
  6418                          l_rn_fileListItem_00279:
  6419  2024  af                	xor	a,a
  6420                          l_rn_fileListItem_00280:
  6421  2025  ee01              	xor	a,0x01
  6422  2027  02                	ld	(bc), a
  6423  2028  cd9818            	call	_hcca_DiRestoreInterrupts
  6424  202b  ddf9              	ld	sp, ix
  6425  202d  dde1              	pop	ix
  6426  202f  c9                	ret
  6427                          	SECTION code_compiler
  6428                          ;	---------------------------------
  6429                          ; Function rn_fileDetails
  6430                          ; ---------------------------------
  6431                          _rn_fileDetails:
  6432  2030  dde5              	push	ix
  6433  2032  dd210000          	ld	ix,0
  6434  2036  dd39              	add	ix,sp
  6435  2038  f5                	push	af
  6436  2039  f5                	push	af
  6437  203a  cd8c18            	call	_hcca_DiFocusInterrupts
  6438  203d  3eb3              	ld	a,0xb3
  6439  203f  f5                	push	af
  6440  2040  33                	inc	sp
  6441  2041  cda618            	call	_hcca_DiWriteByte
  6442  2044  33                	inc	sp
  6443  2045  dd7e04            	ld	a,(ix+4)
  6444  2048  f5                	push	af
  6445  2049  33                	inc	sp
  6446  204a  cda618            	call	_hcca_DiWriteByte
  6447  204d  33                	inc	sp
  6448  204e  dd4e04            	ld	c,(ix+4)
  6449  2051  0600              	ld	b,0x00
  6450  2053  dd6e05            	ld	l,(ix+5)
  6451  2056  dd6606            	ld	h,(ix+6)
  6452  2059  e5                	push	hl
  6453  205a  c5                	push	bc
  6454  205b  210000            	ld	hl,0x0000
  6455  205e  e5                	push	hl
  6456  205f  cd6519            	call	_hcca_DiWriteBytes
  6457  2062  210600            	ld	hl,6
  6458  2065  39                	add	hl, sp
  6459  2066  f9                	ld	sp, hl
  6460  2067  dd5e07            	ld	e,(ix+7)
  6461  206a  dd5608            	ld	d,(ix+8)
  6462  206d  d5                	push	de
  6463  206e  cd361a            	call	_hcca_DiReadInt32
  6464  2071  dd75fc            	ld	(ix-4),l
  6465  2074  dd74fd            	ld	(ix-3),h
  6466  2077  dd73fe            	ld	(ix-2),e
  6467  207a  dd72ff            	ld	(ix-1),d
  6468  207d  d1                	pop	de
  6469  207e  d5                	push	de
  6470  207f  210200            	ld	hl,2
  6471  2082  39                	add	hl, sp
  6472  2083  010400            	ld	bc,0x0004
  6473  2086  edb0              	ldir
  6474  2088  d1                	pop	de
  6475  2089  210400            	ld	hl,0x0004
  6476  208c  19                	add	hl, de
  6477  208d  e5                	push	hl
  6478  208e  d5                	push	de
  6479  208f  cd9b19            	call	_hcca_DiReadUInt16
  6480  2092  4d                	ld	c, l
  6481  2093  44                	ld	b, h
  6482  2094  d1                	pop	de
  6483  2095  e1                	pop	hl
  6484  2096  71                	ld	(hl), c
  6485  2097  23                	inc	hl
  6486  2098  70                	ld	(hl), b
  6487  2099  210600            	ld	hl,0x0006
  6488  209c  19                	add	hl, de
  6489  209d  3e0f              	ld	a,0x0f
  6490  209f  d341              	out	(_IO_AYLATCH), a
  6491                          l_rn_fileDetails_00101:
  6492  20a1  db40              	in	a, (_IO_AYDATA)
  6493  20a3  cb4f              	bit	1, a
  6494  20a5  20fa              	jr	NZ,l_rn_fileDetails_00101
  6495  20a7  db80              	in	a, (_IO_HCCA)
  6496  20a9  77                	ld	(hl), a
  6497  20aa  210700            	ld	hl,0x0007
  6498  20ad  19                	add	hl, de
  6499  20ae  3e0f              	ld	a,0x0f
  6500  20b0  d341              	out	(_IO_AYLATCH), a
  6501                          l_rn_fileDetails_00105:
  6502  20b2  db40              	in	a, (_IO_AYDATA)
  6503  20b4  cb4f              	bit	1, a
  6504  20b6  20fa              	jr	NZ,l_rn_fileDetails_00105
  6505  20b8  db80              	in	a, (_IO_HCCA)
  6506  20ba  77                	ld	(hl), a
  6507  20bb  210800            	ld	hl,0x0008
  6508  20be  19                	add	hl, de
  6509  20bf  3e0f              	ld	a,0x0f
  6510  20c1  d341              	out	(_IO_AYLATCH), a
  6511                          l_rn_fileDetails_00109:
  6512  20c3  db40              	in	a, (_IO_AYDATA)
  6513  20c5  cb4f              	bit	1, a
  6514  20c7  20fa              	jr	NZ,l_rn_fileDetails_00109
  6515  20c9  db80              	in	a, (_IO_HCCA)
  6516  20cb  77                	ld	(hl), a
  6517  20cc  210900            	ld	hl,0x0009
  6518  20cf  19                	add	hl, de
  6519  20d0  3e0f              	ld	a,0x0f
  6520  20d2  d341              	out	(_IO_AYLATCH), a
  6521                          l_rn_fileDetails_00113:
  6522  20d4  db40              	in	a, (_IO_AYDATA)
  6523  20d6  cb4f              	bit	1, a
  6524  20d8  20fa              	jr	NZ,l_rn_fileDetails_00113
  6525  20da  db80              	in	a, (_IO_HCCA)
  6526  20dc  77                	ld	(hl), a
  6527  20dd  210a00            	ld	hl,0x000a
  6528  20e0  19                	add	hl, de
  6529  20e1  3e0f              	ld	a,0x0f
  6530  20e3  d341              	out	(_IO_AYLATCH), a
  6531                          l_rn_fileDetails_00117:
  6532  20e5  db40              	in	a, (_IO_AYDATA)
  6533  20e7  cb4f              	bit	1, a
  6534  20e9  20fa              	jr	NZ,l_rn_fileDetails_00117
  6535  20eb  db80              	in	a, (_IO_HCCA)
  6536  20ed  77                	ld	(hl), a
  6537  20ee  210b00            	ld	hl,0x000b
  6538  20f1  19                	add	hl, de
  6539  20f2  e5                	push	hl
  6540  20f3  d5                	push	de
  6541  20f4  cd9b19            	call	_hcca_DiReadUInt16
  6542  20f7  4d                	ld	c, l
  6543  20f8  44                	ld	b, h
  6544  20f9  d1                	pop	de
  6545  20fa  e1                	pop	hl
  6546  20fb  71                	ld	(hl), c
  6547  20fc  23                	inc	hl
  6548  20fd  70                	ld	(hl), b
  6549  20fe  210d00            	ld	hl,0x000d
  6550  2101  19                	add	hl, de
  6551  2102  3e0f              	ld	a,0x0f
  6552  2104  d341              	out	(_IO_AYLATCH), a
  6553                          l_rn_fileDetails_00121:
  6554  2106  db40              	in	a, (_IO_AYDATA)
  6555  2108  cb4f              	bit	1, a
  6556  210a  20fa              	jr	NZ,l_rn_fileDetails_00121
  6557  210c  db80              	in	a, (_IO_HCCA)
  6558  210e  77                	ld	(hl), a
  6559  210f  210e00            	ld	hl,0x000e
  6560  2112  19                	add	hl, de
  6561  2113  3e0f              	ld	a,0x0f
  6562  2115  d341              	out	(_IO_AYLATCH), a
  6563                          l_rn_fileDetails_00125:
  6564  2117  db40              	in	a, (_IO_AYDATA)
  6565  2119  cb4f              	bit	1, a
  6566  211b  20fa              	jr	NZ,l_rn_fileDetails_00125
  6567  211d  db80              	in	a, (_IO_HCCA)
  6568  211f  77                	ld	(hl), a
  6569  2120  210f00            	ld	hl,0x000f
  6570  2123  19                	add	hl, de
  6571  2124  3e0f              	ld	a,0x0f
  6572  2126  d341              	out	(_IO_AYLATCH), a
  6573                          l_rn_fileDetails_00129:
  6574  2128  db40              	in	a, (_IO_AYDATA)
  6575  212a  cb4f              	bit	1, a
  6576  212c  20fa              	jr	NZ,l_rn_fileDetails_00129
  6577  212e  db80              	in	a, (_IO_HCCA)
  6578  2130  77                	ld	(hl), a
  6579  2131  211000            	ld	hl,0x0010
  6580  2134  19                	add	hl, de
  6581  2135  3e0f              	ld	a,0x0f
  6582  2137  d341              	out	(_IO_AYLATCH), a
  6583                          l_rn_fileDetails_00133:
  6584  2139  db40              	in	a, (_IO_AYDATA)
  6585  213b  cb4f              	bit	1, a
  6586  213d  20fa              	jr	NZ,l_rn_fileDetails_00133
  6587  213f  db80              	in	a, (_IO_HCCA)
  6588  2141  77                	ld	(hl), a
  6589  2142  211100            	ld	hl,0x0011
  6590  2145  19                	add	hl, de
  6591  2146  3e0f              	ld	a,0x0f
  6592  2148  d341              	out	(_IO_AYLATCH), a
  6593                          l_rn_fileDetails_00137:
  6594  214a  db40              	in	a, (_IO_AYDATA)
  6595  214c  cb4f              	bit	1, a
  6596  214e  20fa              	jr	NZ,l_rn_fileDetails_00137
  6597  2150  db80              	in	a, (_IO_HCCA)
  6598  2152  77                	ld	(hl), a
  6599  2153  211200            	ld	hl,0x0012
  6600  2156  19                	add	hl, de
  6601  2157  3e0f              	ld	a,0x0f
  6602  2159  d341              	out	(_IO_AYLATCH), a
  6603                          l_rn_fileDetails_00141:
  6604  215b  db40              	in	a, (_IO_AYDATA)
  6605  215d  cb4f              	bit	1, a
  6606  215f  20fa              	jr	NZ,l_rn_fileDetails_00141
  6607  2161  db80              	in	a, (_IO_HCCA)
  6608  2163  77                	ld	(hl), a
  6609  2164  211300            	ld	hl,0x0013
  6610  2167  19                	add	hl, de
  6611  2168  d5                	push	de
  6612  2169  e5                	push	hl
  6613  216a  214000            	ld	hl,0x0040
  6614  216d  e5                	push	hl
  6615  216e  6c                	ld	l, h
  6616  216f  e5                	push	hl
  6617  2170  cd891a            	call	_hcca_DiReadBytes
  6618  2173  210600            	ld	hl,6
  6619  2176  39                	add	hl, sp
  6620  2177  f9                	ld	sp, hl
  6621  2178  d1                	pop	de
  6622  2179  215300            	ld	hl,0x0053
  6623  217c  19                	add	hl, de
  6624  217d  d5                	push	de
  6625  217e  e5                	push	hl
  6626  217f  210400            	ld	hl,4
  6627  2182  39                	add	hl, sp
  6628  2183  eb                	ex	de, hl
  6629  2184  010400            	ld	bc,0x0004
  6630  2187  edb0              	ldir
  6631  2189  c1                	pop	bc
  6632  218a  d1                	pop	de
  6633  218b  dd7eff            	ld	a,(ix-1)
  6634  218e  07                	rlca
  6635  218f  e601              	and	a,0x01
  6636  2191  ee01              	xor	a,0x01
  6637  2193  02                	ld	(bc), a
  6638  2194  215400            	ld	hl,0x0054
  6639  2197  19                	add	hl, de
  6640  2198  4d                	ld	c, l
  6641  2199  44                	ld	b, h
  6642  219a  eb                	ex	de,hl
  6643  219b  5e                	ld	e, (hl)
  6644  219c  23                	inc	hl
  6645  219d  56                	ld	d, (hl)
  6646  219e  23                	inc	hl
  6647  219f  23                	inc	hl
  6648  21a0  7e                	ld	a, (hl)
  6649  21a1  2b                	dec	hl
  6650  21a2  6e                	ld	l, (hl)
  6651  21a3  67                	ld	h, a
  6652  21a4  7b                	ld	a, e
  6653  21a5  d6fe              	sub	a,0xfe
  6654  21a7  200a              	jr	NZ,l_rn_fileDetails_00279
  6655  21a9  7a                	ld	a, d
  6656  21aa  a5                	and	a, l
  6657  21ab  a4                	and	a, h
  6658  21ac  3c                	inc	a
  6659  21ad  2004              	jr	NZ,l_rn_fileDetails_00279
  6660  21af  3e01              	ld	a,0x01
  6661  21b1  1801              	jr	l_rn_fileDetails_00280
  6662                          l_rn_fileDetails_00279:
  6663  21b3  af                	xor	a,a
  6664                          l_rn_fileDetails_00280:
  6665  21b4  ee01              	xor	a,0x01
  6666  21b6  02                	ld	(bc), a
  6667  21b7  cd9818            	call	_hcca_DiRestoreInterrupts
  6668  21ba  ddf9              	ld	sp, ix
  6669  21bc  dde1              	pop	ix
  6670  21be  c9                	ret
  6671                          	SECTION code_compiler
  6672                          ;	---------------------------------
  6673                          ; Function rn_fileHandleDetails
  6674                          ; ---------------------------------
  6675                          _rn_fileHandleDetails:
  6676  21bf  dde5              	push	ix
  6677  21c1  dd210000          	ld	ix,0
  6678  21c5  dd39              	add	ix,sp
  6679  21c7  f5                	push	af
  6680  21c8  f5                	push	af
  6681  21c9  cd8c18            	call	_hcca_DiFocusInterrupts
  6682  21cc  3eb4              	ld	a,0xb4
  6683  21ce  f5                	push	af
  6684  21cf  33                	inc	sp
  6685  21d0  cda618            	call	_hcca_DiWriteByte
  6686  21d3  33                	inc	sp
  6687  21d4  dd7e04            	ld	a,(ix+4)
  6688  21d7  f5                	push	af
  6689  21d8  33                	inc	sp
  6690  21d9  cda618            	call	_hcca_DiWriteByte
  6691  21dc  33                	inc	sp
  6692  21dd  dd5e05            	ld	e,(ix+5)
  6693  21e0  dd5606            	ld	d,(ix+6)
  6694  21e3  d5                	push	de
  6695  21e4  cd361a            	call	_hcca_DiReadInt32
  6696  21e7  dd75fc            	ld	(ix-4),l
  6697  21ea  dd74fd            	ld	(ix-3),h
  6698  21ed  dd73fe            	ld	(ix-2),e
  6699  21f0  dd72ff            	ld	(ix-1),d
  6700  21f3  d1                	pop	de
  6701  21f4  d5                	push	de
  6702  21f5  210200            	ld	hl,2
  6703  21f8  39                	add	hl, sp
  6704  21f9  010400            	ld	bc,0x0004
  6705  21fc  edb0              	ldir
  6706  21fe  d1                	pop	de
  6707  21ff  210400            	ld	hl,0x0004
  6708  2202  19                	add	hl, de
  6709  2203  e5                	push	hl
  6710  2204  d5                	push	de
  6711  2205  cd9b19            	call	_hcca_DiReadUInt16
  6712  2208  4d                	ld	c, l
  6713  2209  44                	ld	b, h
  6714  220a  d1                	pop	de
  6715  220b  e1                	pop	hl
  6716  220c  71                	ld	(hl), c
  6717  220d  23                	inc	hl
  6718  220e  70                	ld	(hl), b
  6719  220f  210600            	ld	hl,0x0006
  6720  2212  19                	add	hl, de
  6721  2213  3e0f              	ld	a,0x0f
  6722  2215  d341              	out	(_IO_AYLATCH), a
  6723                          l_rn_fileHandleDetails_00101:
  6724  2217  db40              	in	a, (_IO_AYDATA)
  6725  2219  cb4f              	bit	1, a
  6726  221b  20fa              	jr	NZ,l_rn_fileHandleDetails_00101
  6727  221d  db80              	in	a, (_IO_HCCA)
  6728  221f  77                	ld	(hl), a
  6729  2220  210700            	ld	hl,0x0007
  6730  2223  19                	add	hl, de
  6731  2224  3e0f              	ld	a,0x0f
  6732  2226  d341              	out	(_IO_AYLATCH), a
  6733                          l_rn_fileHandleDetails_00105:
  6734  2228  db40              	in	a, (_IO_AYDATA)
  6735  222a  cb4f              	bit	1, a
  6736  222c  20fa              	jr	NZ,l_rn_fileHandleDetails_00105
  6737  222e  db80              	in	a, (_IO_HCCA)
  6738  2230  77                	ld	(hl), a
  6739  2231  210800            	ld	hl,0x0008
  6740  2234  19                	add	hl, de
  6741  2235  3e0f              	ld	a,0x0f
  6742  2237  d341              	out	(_IO_AYLATCH), a
  6743                          l_rn_fileHandleDetails_00109:
  6744  2239  db40              	in	a, (_IO_AYDATA)
  6745  223b  cb4f              	bit	1, a
  6746  223d  20fa              	jr	NZ,l_rn_fileHandleDetails_00109
  6747  223f  db80              	in	a, (_IO_HCCA)
  6748  2241  77                	ld	(hl), a
  6749  2242  210900            	ld	hl,0x0009
  6750  2245  19                	add	hl, de
  6751  2246  3e0f              	ld	a,0x0f
  6752  2248  d341              	out	(_IO_AYLATCH), a
  6753                          l_rn_fileHandleDetails_00113:
  6754  224a  db40              	in	a, (_IO_AYDATA)
  6755  224c  cb4f              	bit	1, a
  6756  224e  20fa              	jr	NZ,l_rn_fileHandleDetails_00113
  6757  2250  db80              	in	a, (_IO_HCCA)
  6758  2252  77                	ld	(hl), a
  6759  2253  210a00            	ld	hl,0x000a
  6760  2256  19                	add	hl, de
  6761  2257  3e0f              	ld	a,0x0f
  6762  2259  d341              	out	(_IO_AYLATCH), a
  6763                          l_rn_fileHandleDetails_00117:
  6764  225b  db40              	in	a, (_IO_AYDATA)
  6765  225d  cb4f              	bit	1, a
  6766  225f  20fa              	jr	NZ,l_rn_fileHandleDetails_00117
  6767  2261  db80              	in	a, (_IO_HCCA)
  6768  2263  77                	ld	(hl), a
  6769  2264  210b00            	ld	hl,0x000b
  6770  2267  19                	add	hl, de
  6771  2268  e5                	push	hl
  6772  2269  d5                	push	de
  6773  226a  cd9b19            	call	_hcca_DiReadUInt16
  6774  226d  4d                	ld	c, l
  6775  226e  44                	ld	b, h
  6776  226f  d1                	pop	de
  6777  2270  e1                	pop	hl
  6778  2271  71                	ld	(hl), c
  6779  2272  23                	inc	hl
  6780  2273  70                	ld	(hl), b
  6781  2274  210d00            	ld	hl,0x000d
  6782  2277  19                	add	hl, de
  6783  2278  3e0f              	ld	a,0x0f
  6784  227a  d341              	out	(_IO_AYLATCH), a
  6785                          l_rn_fileHandleDetails_00121:
  6786  227c  db40              	in	a, (_IO_AYDATA)
  6787  227e  cb4f              	bit	1, a
  6788  2280  20fa              	jr	NZ,l_rn_fileHandleDetails_00121
  6789  2282  db80              	in	a, (_IO_HCCA)
  6790  2284  77                	ld	(hl), a
  6791  2285  210e00            	ld	hl,0x000e
  6792  2288  19                	add	hl, de
  6793  2289  3e0f              	ld	a,0x0f
  6794  228b  d341              	out	(_IO_AYLATCH), a
  6795                          l_rn_fileHandleDetails_00125:
  6796  228d  db40              	in	a, (_IO_AYDATA)
  6797  228f  cb4f              	bit	1, a
  6798  2291  20fa              	jr	NZ,l_rn_fileHandleDetails_00125
  6799  2293  db80              	in	a, (_IO_HCCA)
  6800  2295  77                	ld	(hl), a
  6801  2296  210f00            	ld	hl,0x000f
  6802  2299  19                	add	hl, de
  6803  229a  3e0f              	ld	a,0x0f
  6804  229c  d341              	out	(_IO_AYLATCH), a
  6805                          l_rn_fileHandleDetails_00129:
  6806  229e  db40              	in	a, (_IO_AYDATA)
  6807  22a0  cb4f              	bit	1, a
  6808  22a2  20fa              	jr	NZ,l_rn_fileHandleDetails_00129
  6809  22a4  db80              	in	a, (_IO_HCCA)
  6810  22a6  77                	ld	(hl), a
  6811  22a7  211000            	ld	hl,0x0010
  6812  22aa  19                	add	hl, de
  6813  22ab  3e0f              	ld	a,0x0f
  6814  22ad  d341              	out	(_IO_AYLATCH), a
  6815                          l_rn_fileHandleDetails_00133:
  6816  22af  db40              	in	a, (_IO_AYDATA)
  6817  22b1  cb4f              	bit	1, a
  6818  22b3  20fa              	jr	NZ,l_rn_fileHandleDetails_00133
  6819  22b5  db80              	in	a, (_IO_HCCA)
  6820  22b7  77                	ld	(hl), a
  6821  22b8  211100            	ld	hl,0x0011
  6822  22bb  19                	add	hl, de
  6823  22bc  3e0f              	ld	a,0x0f
  6824  22be  d341              	out	(_IO_AYLATCH), a
  6825                          l_rn_fileHandleDetails_00137:
  6826  22c0  db40              	in	a, (_IO_AYDATA)
  6827  22c2  cb4f              	bit	1, a
  6828  22c4  20fa              	jr	NZ,l_rn_fileHandleDetails_00137
  6829  22c6  db80              	in	a, (_IO_HCCA)
  6830  22c8  77                	ld	(hl), a
  6831  22c9  211200            	ld	hl,0x0012
  6832  22cc  19                	add	hl, de
  6833  22cd  3e0f              	ld	a,0x0f
  6834  22cf  d341              	out	(_IO_AYLATCH), a
  6835                          l_rn_fileHandleDetails_00141:
  6836  22d1  db40              	in	a, (_IO_AYDATA)
  6837  22d3  cb4f              	bit	1, a
  6838  22d5  20fa              	jr	NZ,l_rn_fileHandleDetails_00141
  6839  22d7  db80              	in	a, (_IO_HCCA)
  6840  22d9  77                	ld	(hl), a
  6841  22da  211300            	ld	hl,0x0013
  6842  22dd  19                	add	hl, de
  6843  22de  d5                	push	de
  6844  22df  e5                	push	hl
  6845  22e0  214000            	ld	hl,0x0040
  6846  22e3  e5                	push	hl
  6847  22e4  6c                	ld	l, h
  6848  22e5  e5                	push	hl
  6849  22e6  cd891a            	call	_hcca_DiReadBytes
  6850  22e9  210600            	ld	hl,6
  6851  22ec  39                	add	hl, sp
  6852  22ed  f9                	ld	sp, hl
  6853  22ee  d1                	pop	de
  6854  22ef  215300            	ld	hl,0x0053
  6855  22f2  19                	add	hl, de
  6856  22f3  d5                	push	de
  6857  22f4  e5                	push	hl
  6858  22f5  210400            	ld	hl,4
  6859  22f8  39                	add	hl, sp
  6860  22f9  eb                	ex	de, hl
  6861  22fa  010400            	ld	bc,0x0004
  6862  22fd  edb0              	ldir
  6863  22ff  c1                	pop	bc
  6864  2300  d1                	pop	de
  6865  2301  dd7eff            	ld	a,(ix-1)
  6866  2304  07                	rlca
  6867  2305  e601              	and	a,0x01
  6868  2307  ee01              	xor	a,0x01
  6869  2309  02                	ld	(bc), a
  6870  230a  215400            	ld	hl,0x0054
  6871  230d  19                	add	hl, de
  6872  230e  4d                	ld	c, l
  6873  230f  44                	ld	b, h
  6874  2310  eb                	ex	de,hl
  6875  2311  5e                	ld	e, (hl)
  6876  2312  23                	inc	hl
  6877  2313  56                	ld	d, (hl)
  6878  2314  23                	inc	hl
  6879  2315  23                	inc	hl
  6880  2316  7e                	ld	a, (hl)
  6881  2317  2b                	dec	hl
  6882  2318  6e                	ld	l, (hl)
  6883  2319  67                	ld	h, a
  6884  231a  7b                	ld	a, e
  6885  231b  d6fe              	sub	a,0xfe
  6886  231d  200a              	jr	NZ,l_rn_fileHandleDetails_00279
  6887  231f  7a                	ld	a, d
  6888  2320  a5                	and	a, l
  6889  2321  a4                	and	a, h
  6890  2322  3c                	inc	a
  6891  2323  2004              	jr	NZ,l_rn_fileHandleDetails_00279
  6892  2325  3e01              	ld	a,0x01
  6893  2327  1801              	jr	l_rn_fileHandleDetails_00280
  6894                          l_rn_fileHandleDetails_00279:
  6895  2329  af                	xor	a,a
  6896                          l_rn_fileHandleDetails_00280:
  6897  232a  ee01              	xor	a,0x01
  6898  232c  02                	ld	(bc), a
  6899  232d  cd9818            	call	_hcca_DiRestoreInterrupts
  6900  2330  ddf9              	ld	sp, ix
  6901  2332  dde1              	pop	ix
  6902  2334  c9                	ret
  6903                          	SECTION code_compiler
  6904                          ;	---------------------------------
  6905                          ; Function rn_fileHandleReadSeq
  6906                          ; ---------------------------------
  6907                          _rn_fileHandleReadSeq:
  6908  2335  dde5              	push	ix
  6909  2337  dd210000          	ld	ix,0
  6910  233b  dd39              	add	ix,sp
  6911  233d  cd8c18            	call	_hcca_DiFocusInterrupts
  6912  2340  dd7e05            	ld	a,(ix+5)
  6913  2343  dd8607            	add	a,(ix+7)
  6914  2346  6f                	ld	l, a
  6915  2347  dd7e06            	ld	a,(ix+6)
  6916  234a  dd8e08            	adc	a,(ix+8)
  6917  234d  67                	ld	h, a
  6918  234e  e5                	push	hl
  6919  234f  3eb5              	ld	a,0xb5
  6920  2351  f5                	push	af
  6921  2352  33                	inc	sp
  6922  2353  cda618            	call	_hcca_DiWriteByte
  6923  2356  33                	inc	sp
  6924  2357  dd7e04            	ld	a,(ix+4)
  6925  235a  f5                	push	af
  6926  235b  33                	inc	sp
  6927  235c  cda618            	call	_hcca_DiWriteByte
  6928  235f  33                	inc	sp
  6929  2360  dd5e09            	ld	e,(ix+9)
  6930  2363  dd560a            	ld	d,(ix+10)
  6931  2366  d5                	push	de
  6932  2367  cd2219            	call	_hcca_DiWriteUInt16
  6933  236a  f1                	pop	af
  6934  236b  cd9b19            	call	_hcca_DiReadUInt16
  6935  236e  eb                	ex	de, hl
  6936  236f  e1                	pop	hl
  6937  2370  7d                	ld	a, l
  6938  2371  83                	add	a, e
  6939  2372  4f                	ld	c, a
  6940  2373  7c                	ld	a, h
  6941  2374  8a                	adc	a, d
  6942  2375  47                	ld	b, a
  6943                          l_rn_fileHandleReadSeq_00104:
  6944  2376  7d                	ld	a, l
  6945  2377  91                	sub	a, c
  6946  2378  2004              	jr	NZ,l_rn_fileHandleReadSeq_00125
  6947  237a  7c                	ld	a, h
  6948  237b  90                	sub	a, b
  6949  237c  280c              	jr	Z,l_rn_fileHandleReadSeq_00106
  6950                          l_rn_fileHandleReadSeq_00125:
  6951                          l_rn_fileHandleReadSeq_00101:
  6952  237e  db40              	in	a, (_IO_AYDATA)
  6953  2380  cb4f              	bit	1, a
  6954  2382  20fa              	jr	NZ,l_rn_fileHandleReadSeq_00101
  6955  2384  db80              	in	a, (_IO_HCCA)
  6956  2386  77                	ld	(hl), a
  6957  2387  23                	inc	hl
  6958  2388  18ec              	jr	l_rn_fileHandleReadSeq_00104
  6959                          l_rn_fileHandleReadSeq_00106:
  6960  238a  d5                	push	de
  6961  238b  cd9818            	call	_hcca_DiRestoreInterrupts
  6962  238e  d1                	pop	de
  6963  238f  eb                	ex	de, hl
  6964  2390  dde1              	pop	ix
  6965  2392  c9                	ret
  6966                          	SECTION code_compiler
  6967                          ;	---------------------------------
  6968                          ; Function rn_fileHandleSeek
  6969                          ; ---------------------------------
  6970                          _rn_fileHandleSeek:
  6971  2393  dde5              	push	ix
  6972  2395  dd210000          	ld	ix,0
  6973  2399  dd39              	add	ix,sp
  6974  239b  cd8c18            	call	_hcca_DiFocusInterrupts
  6975  239e  3eb6              	ld	a,0xb6
  6976  23a0  f5                	push	af
  6977  23a1  33                	inc	sp
  6978  23a2  cda618            	call	_hcca_DiWriteByte
  6979  23a5  33                	inc	sp
  6980  23a6  dd7e04            	ld	a,(ix+4)
  6981  23a9  f5                	push	af
  6982  23aa  33                	inc	sp
  6983  23ab  cda618            	call	_hcca_DiWriteByte
  6984  23ae  33                	inc	sp
  6985  23af  dd6e07            	ld	l,(ix+7)
  6986  23b2  dd6608            	ld	h,(ix+8)
  6987  23b5  e5                	push	hl
  6988  23b6  dd6e05            	ld	l,(ix+5)
  6989  23b9  dd6606            	ld	h,(ix+6)
  6990  23bc  e5                	push	hl
  6991  23bd  cdf518            	call	_hcca_DiWriteInt32
  6992  23c0  f1                	pop	af
  6993  23c1  f1                	pop	af
  6994  23c2  dd7e09            	ld	a,(ix+9)
  6995  23c5  f5                	push	af
  6996  23c6  33                	inc	sp
  6997  23c7  cda618            	call	_hcca_DiWriteByte
  6998  23ca  33                	inc	sp
  6999  23cb  cd361a            	call	_hcca_DiReadInt32
  7000  23ce  e5                	push	hl
  7001  23cf  d5                	push	de
  7002  23d0  cd9818            	call	_hcca_DiRestoreInterrupts
  7003  23d3  d1                	pop	de
  7004  23d4  e1                	pop	hl
  7005  23d5  dde1              	pop	ix
  7006  23d7  c9                	ret
  7007                          	SECTION code_compiler
  7008                          ;	---------------------------------
  7009                          ; Function rn_TCPOpen
  7010                          ; ---------------------------------
  7011                          _rn_TCPOpen:
  7012  23d8  cd8c18            	call	_hcca_DiFocusInterrupts
  7013  23db  3ed0              	ld	a,0xd0
  7014  23dd  f5                	push	af
  7015  23de  33                	inc	sp
  7016  23df  cda618            	call	_hcca_DiWriteByte
  7017  23e2  33                	inc	sp
  7018  23e3  210200            	ld	hl,2+0
  7019  23e6  39                	add	hl, sp
  7020  23e7  7e                	ld	a, (hl)
  7021  23e8  f5                	push	af
  7022  23e9  33                	inc	sp
  7023  23ea  cda618            	call	_hcca_DiWriteByte
  7024  23ed  33                	inc	sp
  7025  23ee  fd210200          	ld	iy,2
  7026  23f2  fd39              	add	iy, sp
  7027  23f4  fd4e00            	ld	c,(iy+0)
  7028  23f7  0600              	ld	b,0x00
  7029  23f9  fd23              	inc	iy
  7030  23fb  fd6e00            	ld	l,(iy+0)
  7031  23fe  fd6601            	ld	h,(iy+1)
  7032  2401  e5                	push	hl
  7033  2402  c5                	push	bc
  7034  2403  210000            	ld	hl,0x0000
  7035  2406  e5                	push	hl
  7036  2407  cd6519            	call	_hcca_DiWriteBytes
  7037  240a  210600            	ld	hl,6
  7038  240d  39                	add	hl, sp
  7039  240e  f9                	ld	sp, hl
  7040  240f  210500            	ld	hl,5
  7041  2412  39                	add	hl, sp
  7042  2413  4e                	ld	c, (hl)
  7043  2414  23                	inc	hl
  7044  2415  46                	ld	b, (hl)
  7045  2416  c5                	push	bc
  7046  2417  cd2219            	call	_hcca_DiWriteUInt16
  7047  241a  f1                	pop	af
  7048  241b  210700            	ld	hl,7+0
  7049  241e  39                	add	hl, sp
  7050  241f  7e                	ld	a, (hl)
  7051  2420  f5                	push	af
  7052  2421  33                	inc	sp
  7053  2422  cda618            	call	_hcca_DiWriteByte
  7054  2425  33                	inc	sp
  7055  2426  3e0f              	ld	a,0x0f
  7056  2428  d341              	out	(_IO_AYLATCH), a
  7057                          l_rn_TCPOpen_00101:
  7058  242a  db40              	in	a, (_IO_AYDATA)
  7059  242c  cb4f              	bit	1, a
  7060  242e  20fa              	jr	NZ,l_rn_TCPOpen_00101
  7061  2430  db80              	in	a, (_IO_HCCA)
  7062  2432  6f                	ld	l, a
  7063  2433  e5                	push	hl
  7064  2434  cd9818            	call	_hcca_DiRestoreInterrupts
  7065  2437  e1                	pop	hl
  7066  2438  c9                	ret
  7067                          	SECTION code_compiler
  7068                          ;	---------------------------------
  7069                          ; Function rn_TCPHandleClose
  7070                          ; ---------------------------------
  7071                          _rn_TCPHandleClose:
  7072  2439  3ed1              	ld	a,0xd1
  7073  243b  f5                	push	af
  7074  243c  33                	inc	sp
  7075  243d  cd3407            	call	_hcca_writeByte
  7076  2440  33                	inc	sp
  7077  2441  210200            	ld	hl,2+0
  7078  2444  39                	add	hl, sp
  7079  2445  7e                	ld	a, (hl)
  7080  2446  f5                	push	af
  7081  2447  33                	inc	sp
  7082  2448  cd3407            	call	_hcca_writeByte
  7083  244b  33                	inc	sp
  7084  244c  c9                	ret
  7085                          	SECTION code_compiler
  7086                          ;	---------------------------------
  7087                          ; Function rn_TCPHandleSize
  7088                          ; ---------------------------------
  7089                          _rn_TCPHandleSize:
  7090  244d  dde5              	push	ix
  7091  244f  dd210000          	ld	ix,0
  7092  2453  dd39              	add	ix,sp
  7093  2455  cd8c18            	call	_hcca_DiFocusInterrupts
  7094  2458  3ed2              	ld	a,0xd2
  7095  245a  f5                	push	af
  7096  245b  33                	inc	sp
  7097  245c  cda618            	call	_hcca_DiWriteByte
  7098  245f  33                	inc	sp
  7099  2460  dd7e04            	ld	a,(ix+4)
  7100  2463  f5                	push	af
  7101  2464  33                	inc	sp
  7102  2465  cda618            	call	_hcca_DiWriteByte
  7103  2468  33                	inc	sp
  7104  2469  cd361a            	call	_hcca_DiReadInt32
  7105  246c  e5                	push	hl
  7106  246d  d5                	push	de
  7107  246e  cd9818            	call	_hcca_DiRestoreInterrupts
  7108  2471  d1                	pop	de
  7109  2472  e1                	pop	hl
  7110  2473  dde1              	pop	ix
  7111  2475  c9                	ret
  7112                          	SECTION code_compiler
  7113                          ;	---------------------------------
  7114                          ; Function rn_TCPHandleRead
  7115                          ; ---------------------------------
  7116                          _rn_TCPHandleRead:
  7117  2476  dde5              	push	ix
  7118  2478  dd210000          	ld	ix,0
  7119  247c  dd39              	add	ix,sp
  7120  247e  f5                	push	af
  7121  247f  f5                	push	af
  7122  2480  cd8c18            	call	_hcca_DiFocusInterrupts
  7123  2483  dd7e05            	ld	a,(ix+5)
  7124  2486  dd8607            	add	a,(ix+7)
  7125  2489  4f                	ld	c, a
  7126  248a  dd7e06            	ld	a,(ix+6)
  7127  248d  dd8e08            	adc	a,(ix+8)
  7128  2490  dd71fe            	ld	(ix-2),c
  7129  2493  dd77ff            	ld	(ix-1),a
  7130  2496  3ed3              	ld	a,0xd3
  7131  2498  f5                	push	af
  7132  2499  33                	inc	sp
  7133  249a  cda618            	call	_hcca_DiWriteByte
  7134  249d  33                	inc	sp
  7135  249e  dd7e04            	ld	a,(ix+4)
  7136  24a1  f5                	push	af
  7137  24a2  33                	inc	sp
  7138  24a3  cda618            	call	_hcca_DiWriteByte
  7139  24a6  33                	inc	sp
  7140  24a7  dd6e09            	ld	l,(ix+9)
  7141  24aa  dd660a            	ld	h,(ix+10)
  7142  24ad  e5                	push	hl
  7143  24ae  cd2219            	call	_hcca_DiWriteUInt16
  7144  24b1  f1                	pop	af
  7145  24b2  cd361a            	call	_hcca_DiReadInt32
  7146  24b5  4d                	ld	c, l
  7147  24b6  44                	ld	b, h
  7148  24b7  af                	xor	a, a
  7149  24b8  b9                	cp	a, c
  7150  24b9  98                	sbc	a, b
  7151  24ba  3e00              	ld	a,0x00
  7152  24bc  9b                	sbc	a, e
  7153  24bd  3e00              	ld	a,0x00
  7154  24bf  9a                	sbc	a, d
  7155  24c0  e2c524            	jp	PO, l_rn_TCPHandleRead_00127
  7156  24c3  ee80              	xor	a,0x80
  7157                          l_rn_TCPHandleRead_00127:
  7158  24c5  f20125            	jp	P, l_rn_TCPHandleRead_00108
  7159  24c8  79                	ld	a, c
  7160  24c9  dd86fe            	add	a,(ix-2)
  7161  24cc  6f                	ld	l, a
  7162  24cd  78                	ld	a, b
  7163  24ce  dd8eff            	adc	a,(ix-1)
  7164  24d1  67                	ld	h, a
  7165  24d2  e3                	ex	(sp), hl
  7166                          l_rn_TCPHandleRead_00101:
  7167  24d3  db40              	in	a, (_IO_AYDATA)
  7168  24d5  cb4f              	bit	1, a
  7169  24d7  20fa              	jr	NZ,l_rn_TCPHandleRead_00101
  7170  24d9  dd6efe            	ld	l,(ix-2)
  7171  24dc  dd66ff            	ld	h,(ix-1)
  7172  24df  db80              	in	a, (_IO_HCCA)
  7173  24e1  77                	ld	(hl), a
  7174  24e2  dd34fe            	inc	(ix-2)
  7175  24e5  2003              	jr	NZ,l_rn_TCPHandleRead_00130
  7176  24e7  dd34ff            	inc	(ix-1)
  7177                          l_rn_TCPHandleRead_00130:
  7178  24ea  3a0100            	ld	a, (__rxBufferReadPos+0)
  7179  24ed  3c                	inc	a
  7180  24ee  320100            	ld	(__rxBufferReadPos+0), a
  7181  24f1  dd7efc            	ld	a,(ix-4)
  7182  24f4  dd96fe            	sub	a,(ix-2)
  7183  24f7  20da              	jr	NZ,l_rn_TCPHandleRead_00101
  7184  24f9  dd7efd            	ld	a,(ix-3)
  7185  24fc  dd96ff            	sub	a,(ix-1)
  7186  24ff  20d2              	jr	NZ,l_rn_TCPHandleRead_00101
  7187                          l_rn_TCPHandleRead_00108:
  7188  2501  c5                	push	bc
  7189  2502  d5                	push	de
  7190  2503  cd9818            	call	_hcca_DiRestoreInterrupts
  7191  2506  d1                	pop	de
  7192  2507  e1                	pop	hl
  7193  2508  ddf9              	ld	sp, ix
  7194  250a  dde1              	pop	ix
  7195  250c  c9                	ret
  7196                          	SECTION code_compiler
  7197                          ;	---------------------------------
  7198                          ; Function rn_TCPHandleWrite
  7199                          ; ---------------------------------
  7200                          _rn_TCPHandleWrite:
  7201  250d  dde5              	push	ix
  7202  250f  dd210000          	ld	ix,0
  7203  2513  dd39              	add	ix,sp
  7204  2515  cd8c18            	call	_hcca_DiFocusInterrupts
  7205  2518  3ed4              	ld	a,0xd4
  7206  251a  f5                	push	af
  7207  251b  33                	inc	sp
  7208  251c  cda618            	call	_hcca_DiWriteByte
  7209  251f  33                	inc	sp
  7210  2520  dd7e04            	ld	a,(ix+4)
  7211  2523  f5                	push	af
  7212  2524  33                	inc	sp
  7213  2525  cda618            	call	_hcca_DiWriteByte
  7214  2528  33                	inc	sp
  7215  2529  dd6e07            	ld	l,(ix+7)
  7216  252c  dd6608            	ld	h,(ix+8)
  7217  252f  e5                	push	hl
  7218  2530  cd2219            	call	_hcca_DiWriteUInt16
  7219  2533  f1                	pop	af
  7220  2534  dd6e09            	ld	l,(ix+9)
  7221  2537  dd660a            	ld	h,(ix+10)
  7222  253a  e5                	push	hl
  7223  253b  dd6e07            	ld	l,(ix+7)
  7224  253e  dd6608            	ld	h,(ix+8)
  7225  2541  e5                	push	hl
  7226  2542  dd6e05            	ld	l,(ix+5)
  7227  2545  dd6606            	ld	h,(ix+6)
  7228  2548  e5                	push	hl
  7229  2549  cd6519            	call	_hcca_DiWriteBytes
  7230  254c  210600            	ld	hl,6
  7231  254f  39                	add	hl, sp
  7232  2550  f9                	ld	sp, hl
  7233  2551  cd361a            	call	_hcca_DiReadInt32
  7234  2554  e5                	push	hl
  7235  2555  d5                	push	de
  7236  2556  cd9818            	call	_hcca_DiRestoreInterrupts
  7237  2559  d1                	pop	de
  7238  255a  e1                	pop	hl
  7239  255b  dde1              	pop	ix
  7240  255d  c9                	ret
  7241                          	SECTION code_compiler
  7242                          ;	---------------------------------
  7243                          ; Function rn_Printer
  7244                          ; ---------------------------------
  7245                          _rn_Printer:
  7246  255e  3eda              	ld	a,0xda
  7247  2560  f5                	push	af
  7248  2561  33                	inc	sp
  7249  2562  cd3407            	call	_hcca_writeByte
  7250  2565  33                	inc	sp
  7251  2566  210200            	ld	hl,2+0
  7252  2569  39                	add	hl, sp
  7253  256a  7e                	ld	a, (hl)
  7254  256b  f5                	push	af
  7255  256c  33                	inc	sp
  7256  256d  cd3407            	call	_hcca_writeByte
  7257  2570  33                	inc	sp
  7258  2571  c9                	ret
  7259                          	SECTION code_compiler
  7260                          ;	---------------------------------
  7261                          ; Function rn_PunchOut
  7262                          ; ---------------------------------
  7263                          _rn_PunchOut:
  7264  2572  3edb              	ld	a,0xdb
  7265  2574  f5                	push	af
  7266  2575  33                	inc	sp
  7267  2576  cd3407            	call	_hcca_writeByte
  7268  2579  33                	inc	sp
  7269  257a  210200            	ld	hl,2+0
  7270  257d  39                	add	hl, sp
  7271  257e  7e                	ld	a, (hl)
  7272  257f  f5                	push	af
  7273  2580  33                	inc	sp
  7274  2581  cd3407            	call	_hcca_writeByte
  7275  2584  33                	inc	sp
  7276  2585  c9                	ret
  7277                          	SECTION code_compiler
  7278                          ;	---------------------------------
  7279                          ; Function nt_init
  7280                          ; ---------------------------------
  7281                          _nt_init:
  7282  2586  fd210200          	ld	iy,2
  7283  258a  fd39              	add	iy, sp
  7284  258c  fd7e00            	ld	a,(iy+0)
  7285  258f  32d505            	ld	(__song+0), a
  7286  2592  fd7e01            	ld	a,(iy+1)
  7287  2595  32d605            	ld	(__song+1), a
  7288  2598  210000            	ld	hl,0x0000
  7289  259b  22d205            	ld	(__itemCntr), hl
  7290  259e  21d405            	ld	hl,__beatCntr + 0
  7291  25a1  3600              	ld	(hl),0x00
  7292  25a3  110601            	ld	de,0x0106
  7293  25a6  d5                	push	de
  7294  25a7  cdbc03            	call	_ayWrite
  7295  25aa  f1                	pop	af
  7296  25ab  110778            	ld	de,0x7807
  7297  25ae  d5                	push	de
  7298  25af  cdbc03            	call	_ayWrite
  7299  25b2  f1                	pop	af
  7300  25b3  af                	xor	a, a
  7301  25b4  57                	ld	d,a
  7302  25b5  1e08              	ld	e,0x08
  7303  25b7  d5                	push	de
  7304  25b8  cdbc03            	call	_ayWrite
  7305  25bb  f1                	pop	af
  7306  25bc  af                	xor	a, a
  7307  25bd  57                	ld	d,a
  7308  25be  1e09              	ld	e,0x09
  7309  25c0  d5                	push	de
  7310  25c1  cdbc03            	call	_ayWrite
  7311  25c4  f1                	pop	af
  7312  25c5  af                	xor	a, a
  7313  25c6  57                	ld	d,a
  7314  25c7  1e0a              	ld	e,0x0a
  7315  25c9  d5                	push	de
  7316  25ca  cdbc03            	call	_ayWrite
  7317  25cd  f1                	pop	af
  7318  25ce  c9                	ret
  7319                          	SECTION code_compiler
  7320                          ;	---------------------------------
  7321                          ; Function nt_stopSounds
  7322                          ; ---------------------------------
  7323                          _nt_stopSounds:
  7324  25cf  af                	xor	a, a
  7325  25d0  57                	ld	d,a
  7326  25d1  1e08              	ld	e,0x08
  7327  25d3  d5                	push	de
  7328  25d4  cdbc03            	call	_ayWrite
  7329  25d7  f1                	pop	af
  7330  25d8  af                	xor	a, a
  7331  25d9  57                	ld	d,a
  7332  25da  1e09              	ld	e,0x09
  7333  25dc  d5                	push	de
  7334  25dd  cdbc03            	call	_ayWrite
  7335  25e0  f1                	pop	af
  7336  25e1  af                	xor	a, a
  7337  25e2  57                	ld	d,a
  7338  25e3  1e0a              	ld	e,0x0a
  7339  25e5  d5                	push	de
  7340  25e6  cdbc03            	call	_ayWrite
  7341  25e9  f1                	pop	af
  7342  25ea  c9                	ret
  7343                          	SECTION code_compiler
  7344                          ;	---------------------------------
  7345                          ; Function nt_handleNote
  7346                          ; ---------------------------------
  7347                          _nt_handleNote:
  7348  25eb  dde5              	push	ix
  7349  25ed  dd210000          	ld	ix,0
  7350  25f1  dd39              	add	ix,sp
  7351  25f3  3b                	dec	sp
  7352                          l_nt_handleNote_00113:
  7353  25f4  21d205            	ld	hl,__itemCntr
  7354  25f7  3ad505            	ld	a, (__song+0)
  7355  25fa  86                	add	a, (hl)
  7356  25fb  4f                	ld	c, a
  7357  25fc  3ad605            	ld	a, (__song+1)
  7358  25ff  23                	inc	hl
  7359  2600  8e                	adc	a, (hl)
  7360  2601  47                	ld	b, a
  7361  2602  0a                	ld	a, (bc)
  7362  2603  4f                	ld	c, a
  7363  2604  3ad405            	ld	a, (__beatCntr+0)
  7364  2607  91                	sub	a, c
  7365  2608  c28b27            	jp	NZ,l_nt_handleNote_00115
  7366  260b  2ad205            	ld	hl, (__itemCntr)
  7367  260e  23                	inc	hl
  7368  260f  22d205            	ld	(__itemCntr), hl
  7369  2612  fd2ad505          	ld	iy, (__song)
  7370  2616  ed5bd205          	ld	de, (__itemCntr)
  7371  261a  fd19              	add	iy, de
  7372  261c  fd7e00            	ld	a,(iy+0)
  7373  261f  dd77ff            	ld	(ix-1),a
  7374  2622  b7                	or	a, a
  7375  2623  ca4a27            	jp	Z,l_nt_handleNote_00107
  7376  2626  dd7eff            	ld	a,(ix-1)
  7377  2629  d60a              	sub	a,0x0a
  7378  262b  2811              	jr	Z,l_nt_handleNote_00101
  7379  262d  dd7eff            	ld	a,(ix-1)
  7380  2630  d614              	sub	a,0x14
  7381  2632  282a              	jr	Z,l_nt_handleNote_00102
  7382  2634  dd7eff            	ld	a,(ix-1)
  7383  2637  d663              	sub	a,0x63
  7384  2639  ca7d27            	jp	Z,l_nt_handleNote_00111
  7385  263c  18b6              	jr	l_nt_handleNote_00113
  7386                          l_nt_handleNote_00101:
  7387  263e  ed4bd205          	ld	bc, (__itemCntr)
  7388  2642  03                	inc	bc
  7389  2643  2ad505            	ld	hl, (__song)
  7390  2646  09                	add	hl, bc
  7391  2647  7e                	ld	a, (hl)
  7392  2648  c608              	add	a,0x08
  7393  264a  2600              	ld	h,0x00
  7394  264c  e5                	push	hl
  7395  264d  33                	inc	sp
  7396  264e  f5                	push	af
  7397  264f  33                	inc	sp
  7398  2650  cdbc03            	call	_ayWrite
  7399  2653  f1                	pop	af
  7400  2654  2ad205            	ld	hl, (__itemCntr)
  7401  2657  23                	inc	hl
  7402  2658  23                	inc	hl
  7403  2659  22d205            	ld	(__itemCntr), hl
  7404  265c  1896              	jr	l_nt_handleNote_00113
  7405                          l_nt_handleNote_00102:
  7406  265e  ed4bd205          	ld	bc, (__itemCntr)
  7407  2662  03                	inc	bc
  7408  2663  03                	inc	bc
  7409  2664  2ad505            	ld	hl, (__song)
  7410  2667  09                	add	hl, bc
  7411  2668  7e                	ld	a, (hl)
  7412  2669  dd77ff            	ld	(ix-1),a
  7413  266c  ed4bd205          	ld	bc, (__itemCntr)
  7414  2670  03                	inc	bc
  7415  2671  2ad505            	ld	hl, (__song)
  7416  2674  09                	add	hl, bc
  7417  2675  7e                	ld	a, (hl)
  7418  2676  b7                	or	a, a
  7419  2677  280c              	jr	Z,l_nt_handleNote_00103
  7420  2679  fe01              	cp	a,0x01
  7421  267b  2846              	jr	Z,l_nt_handleNote_00104
  7422  267d  d602              	sub	a,0x02
  7423  267f  ca0027            	jp	Z,l_nt_handleNote_00105
  7424  2682  c33b27            	jp	l_nt_handleNote_00106
  7425                          l_nt_handleNote_00103:
  7426  2685  3e49              	ld	a, +((__NOTES_FINE) & 0xFF)
  7427  2687  dd86ff            	add	a,(ix-1)
  7428  268a  4f                	ld	c, a
  7429  268b  3e00              	ld	a, +((__NOTES_FINE) / 256)
  7430  268d  ce00              	adc	a,0x00
  7431  268f  47                	ld	b, a
  7432  2690  0a                	ld	a, (bc)
  7433  2691  f5                	push	af
  7434  2692  33                	inc	sp
  7435  2693  af                	xor	a, a
  7436  2694  f5                	push	af
  7437  2695  33                	inc	sp
  7438  2696  cdbc03            	call	_ayWrite
  7439  2699  f1                	pop	af
  7440  269a  3e01              	ld	a, +((__NOTES_COURSE) & 0xFF)
  7441  269c  dd86ff            	add	a,(ix-1)
  7442  269f  4f                	ld	c, a
  7443  26a0  3e00              	ld	a, +((__NOTES_COURSE) / 256)
  7444  26a2  ce00              	adc	a,0x00
  7445  26a4  47                	ld	b, a
  7446  26a5  0a                	ld	a, (bc)
  7447  26a6  57                	ld	d,a
  7448  26a7  1e01              	ld	e,0x01
  7449  26a9  d5                	push	de
  7450  26aa  cdbc03            	call	_ayWrite
  7451  26ad  f1                	pop	af
  7452  26ae  ed4bd205          	ld	bc, (__itemCntr)
  7453  26b2  03                	inc	bc
  7454  26b3  03                	inc	bc
  7455  26b4  03                	inc	bc
  7456  26b5  2ad505            	ld	hl, (__song)
  7457  26b8  09                	add	hl, bc
  7458  26b9  56                	ld	d, (hl)
  7459  26ba  1e08              	ld	e,0x08
  7460  26bc  d5                	push	de
  7461  26bd  cdbc03            	call	_ayWrite
  7462  26c0  f1                	pop	af
  7463  26c1  1878              	jr	l_nt_handleNote_00106
  7464                          l_nt_handleNote_00104:
  7465  26c3  3e49              	ld	a, +((__NOTES_FINE) & 0xFF)
  7466  26c5  dd86ff            	add	a,(ix-1)
  7467  26c8  4f                	ld	c, a
  7468  26c9  3e00              	ld	a, +((__NOTES_FINE) / 256)
  7469  26cb  ce00              	adc	a,0x00
  7470  26cd  47                	ld	b, a
  7471  26ce  0a                	ld	a, (bc)
  7472  26cf  57                	ld	d,a
  7473  26d0  1e02              	ld	e,0x02
  7474  26d2  d5                	push	de
  7475  26d3  cdbc03            	call	_ayWrite
  7476  26d6  f1                	pop	af
  7477  26d7  3e01              	ld	a, +((__NOTES_COURSE) & 0xFF)
  7478  26d9  dd86ff            	add	a,(ix-1)
  7479  26dc  4f                	ld	c, a
  7480  26dd  3e00              	ld	a, +((__NOTES_COURSE) / 256)
  7481  26df  ce00              	adc	a,0x00
  7482  26e1  47                	ld	b, a
  7483  26e2  0a                	ld	a, (bc)
  7484  26e3  57                	ld	d,a
  7485  26e4  1e03              	ld	e,0x03
  7486  26e6  d5                	push	de
  7487  26e7  cdbc03            	call	_ayWrite
  7488  26ea  f1                	pop	af
  7489  26eb  ed4bd205          	ld	bc, (__itemCntr)
  7490  26ef  03                	inc	bc
  7491  26f0  03                	inc	bc
  7492  26f1  03                	inc	bc
  7493  26f2  2ad505            	ld	hl, (__song)
  7494  26f5  09                	add	hl, bc
  7495  26f6  56                	ld	d, (hl)
  7496  26f7  1e09              	ld	e,0x09
  7497  26f9  d5                	push	de
  7498  26fa  cdbc03            	call	_ayWrite
  7499  26fd  f1                	pop	af
  7500  26fe  183b              	jr	l_nt_handleNote_00106
  7501                          l_nt_handleNote_00105:
  7502  2700  3e49              	ld	a, +((__NOTES_FINE) & 0xFF)
  7503  2702  dd86ff            	add	a,(ix-1)
  7504  2705  4f                	ld	c, a
  7505  2706  3e00              	ld	a, +((__NOTES_FINE) / 256)
  7506  2708  ce00              	adc	a,0x00
  7507  270a  47                	ld	b, a
  7508  270b  0a                	ld	a, (bc)
  7509  270c  57                	ld	d,a
  7510  270d  1e04              	ld	e,0x04
  7511  270f  d5                	push	de
  7512  2710  cdbc03            	call	_ayWrite
  7513  2713  f1                	pop	af
  7514  2714  3e01              	ld	a, +((__NOTES_COURSE) & 0xFF)
  7515  2716  dd86ff            	add	a,(ix-1)
  7516  2719  4f                	ld	c, a
  7517  271a  3e00              	ld	a, +((__NOTES_COURSE) / 256)
  7518  271c  ce00              	adc	a,0x00
  7519  271e  47                	ld	b, a
  7520  271f  0a                	ld	a, (bc)
  7521  2720  57                	ld	d,a
  7522  2721  1e05              	ld	e,0x05
  7523  2723  d5                	push	de
  7524  2724  cdbc03            	call	_ayWrite
  7525  2727  f1                	pop	af
  7526  2728  ed4bd205          	ld	bc, (__itemCntr)
  7527  272c  03                	inc	bc
  7528  272d  03                	inc	bc
  7529  272e  03                	inc	bc
  7530  272f  2ad505            	ld	hl, (__song)
  7531  2732  09                	add	hl, bc
  7532  2733  56                	ld	d, (hl)
  7533  2734  1e0a              	ld	e,0x0a
  7534  2736  d5                	push	de
  7535  2737  cdbc03            	call	_ayWrite
  7536  273a  f1                	pop	af
  7537                          l_nt_handleNote_00106:
  7538  273b  21d205            	ld	hl,__itemCntr
  7539  273e  7e                	ld	a, (hl)
  7540  273f  c604              	add	a,0x04
  7541  2741  77                	ld	(hl), a
  7542  2742  d2f425            	jp	NC,l_nt_handleNote_00113
  7543  2745  23                	inc	hl
  7544  2746  34                	inc	(hl)
  7545  2747  c3f425            	jp	l_nt_handleNote_00113
  7546                          l_nt_handleNote_00107:
  7547  274a  af                	xor	a, a
  7548  274b  57                	ld	d,a
  7549  274c  1e08              	ld	e,0x08
  7550  274e  d5                	push	de
  7551  274f  cdbc03            	call	_ayWrite
  7552  2752  f1                	pop	af
  7553  2753  ed4bd205          	ld	bc, (__itemCntr)
  7554  2757  03                	inc	bc
  7555  2758  2ad505            	ld	hl, (__song)
  7556  275b  09                	add	hl, bc
  7557  275c  7e                	ld	a, (hl)
  7558  275d  b7                	or	a, a
  7559  275e  280a              	jr	Z,l_nt_handleNote_00109
  7560  2760  110778            	ld	de,0x7807
  7561  2763  d5                	push	de
  7562  2764  cdbc03            	call	_ayWrite
  7563  2767  f1                	pop	af
  7564  2768  1808              	jr	l_nt_handleNote_00110
  7565                          l_nt_handleNote_00109:
  7566  276a  110771            	ld	de,0x7107
  7567  276d  d5                	push	de
  7568  276e  cdbc03            	call	_ayWrite
  7569  2771  f1                	pop	af
  7570                          l_nt_handleNote_00110:
  7571  2772  2ad205            	ld	hl, (__itemCntr)
  7572  2775  23                	inc	hl
  7573  2776  23                	inc	hl
  7574  2777  22d205            	ld	(__itemCntr), hl
  7575  277a  c3f425            	jp	l_nt_handleNote_00113
  7576                          l_nt_handleNote_00111:
  7577  277d  210000            	ld	hl,0x0000
  7578  2780  22d205            	ld	(__itemCntr), hl
  7579  2783  21d405            	ld	hl,__beatCntr + 0
  7580  2786  3600              	ld	(hl),0x00
  7581  2788  c3f425            	jp	l_nt_handleNote_00113
  7582                          l_nt_handleNote_00115:
  7583  278b  21d405            	ld	hl,__beatCntr+0
  7584  278e  34                	inc	(hl)
  7585  278f  33                	inc	sp
  7586  2790  dde1              	pop	ix
  7587  2792  c9                	ret
  7588                          	SECTION code_compiler
  7589                          ;	---------------------------------
  7590                          ; Function updateScore
  7591                          ; ---------------------------------
  7592                          _updateScore:
  7593  2793  dde5              	push	ix
  7594  2795  dd210000          	ld	ix,0
  7595  2799  dd39              	add	ix,sp
  7596  279b  01da16            	ld	bc,__player+0
  7597  279e  dd5e04            	ld	e,(ix+4)
  7598  27a1  1600              	ld	d,0x00
  7599  27a3  6b                	ld	l, e
  7600  27a4  62                	ld	h, d
  7601  27a5  29                	add	hl, hl
  7602  27a6  29                	add	hl, hl
  7603  27a7  19                	add	hl, de
  7604  27a8  29                	add	hl, hl
  7605  27a9  19                	add	hl, de
  7606  27aa  09                	add	hl, bc
  7607  27ab  110600            	ld	de,0x0006
  7608  27ae  19                	add	hl, de
  7609  27af  4e                	ld	c, (hl)
  7610  27b0  0600              	ld	b,0x00
  7611  27b2  c5                	push	bc
  7612  27b3  21f300            	ld	hl,___str_26
  7613  27b6  e5                	push	hl
  7614  27b7  215706            	ld	hl,_tb
  7615  27ba  e5                	push	hl
  7616  27bb  cd0000            	call	_sprintf
  7617  27be  210600            	ld	hl,6
  7618  27c1  39                	add	hl, sp
  7619  27c2  f9                	ld	sp, hl
  7620  27c3  dd7e04            	ld	a,(ix+4)
  7621  27c6  4f                	ld	c, a
  7622  27c7  87                	add	a, a
  7623  27c8  87                	add	a, a
  7624  27c9  87                	add	a, a
  7625  27ca  91                	sub	a, c
  7626  27cb  2600              	ld	h,0x00
  7627  27cd  e5                	push	hl
  7628  27ce  33                	inc	sp
  7629  27cf  f5                	push	af
  7630  27d0  33                	inc	sp
  7631  27d1  cde612            	call	_vdp_setCursor2
  7632  27d4  215706            	ld	hl,_tb
  7633  27d7  e3                	ex	(sp),hl
  7634  27d8  cd2a12            	call	_vdp_print
  7635  27db  f1                	pop	af
  7636  27dc  dde1              	pop	ix
  7637  27de  c9                	ret
  7638                          	SECTION rodata_compiler
  7639                          ___str_26:
  7640  00f3  25303375          	DEFM "%03u"
  7641  00f7  00                	DEFB 0x00
  7642                          	SECTION code_compiler
  7643                          ;	---------------------------------
  7644                          ; Function updateLives
  7645                          ; ---------------------------------
  7646                          _updateLives:
  7647  27df  dde5              	push	ix
  7648  27e1  dd210000          	ld	ix,0
  7649  27e5  dd39              	add	ix,sp
  7650  27e7  dd4e04            	ld	c,(ix+4)
  7651  27ea  79                	ld	a, c
  7652  27eb  87                	add	a, a
  7653  27ec  87                	add	a, a
  7654  27ed  87                	add	a, a
  7655  27ee  91                	sub	a, c
  7656  27ef  c5                	push	bc
  7657  27f0  2601              	ld	h,0x01
  7658  27f2  e5                	push	hl
  7659  27f3  33                	inc	sp
  7660  27f4  f5                	push	af
  7661  27f5  33                	inc	sp
  7662  27f6  cde612            	call	_vdp_setCursor2
  7663  27f9  f1                	pop	af
  7664  27fa  c1                	pop	bc
  7665  27fb  11da16            	ld	de,__player+0
  7666  27fe  0600              	ld	b,0x00
  7667  2800  69                	ld	l, c
  7668  2801  60                	ld	h, b
  7669  2802  29                	add	hl, hl
  7670  2803  29                	add	hl, hl
  7671  2804  09                	add	hl, bc
  7672  2805  29                	add	hl, hl
  7673  2806  09                	add	hl, bc
  7674  2807  19                	add	hl, de
  7675  2808  4d                	ld	c, l
  7676  2809  44                	ld	b, h
  7677  280a  1e00              	ld	e,0x00
  7678                          l_updateLives_00104:
  7679  280c  210700            	ld	hl,7
  7680  280f  09                	add	hl, bc
  7681  2810  56                	ld	d, (hl)
  7682  2811  7b                	ld	a, e
  7683  2812  92                	sub	a, d
  7684  2813  300f              	jr	NC,l_updateLives_00114
  7685  2815  c5                	push	bc
  7686  2816  d5                	push	de
  7687  2817  3e09              	ld	a,0x09
  7688  2819  f5                	push	af
  7689  281a  33                	inc	sp
  7690  281b  cd9d13            	call	_vdp_write
  7691  281e  33                	inc	sp
  7692  281f  d1                	pop	de
  7693  2820  c1                	pop	bc
  7694  2821  1c                	inc	e
  7695  2822  18e8              	jr	l_updateLives_00104
  7696                          l_updateLives_00114:
  7697                          l_updateLives_00107:
  7698  2824  7b                	ld	a, e
  7699  2825  d606              	sub	a,0x06
  7700  2827  300d              	jr	NC,l_updateLives_00109
  7701  2829  d5                	push	de
  7702  282a  3e20              	ld	a,0x20
  7703  282c  f5                	push	af
  7704  282d  33                	inc	sp
  7705  282e  cd9d13            	call	_vdp_write
  7706  2831  33                	inc	sp
  7707  2832  d1                	pop	de
  7708  2833  1c                	inc	e
  7709  2834  18ee              	jr	l_updateLives_00107
  7710                          l_updateLives_00109:
  7711  2836  dde1              	pop	ix
  7712  2838  c9                	ret
  7713                          	SECTION code_compiler
  7714                          ;	---------------------------------
  7715                          ; Function updatePellets
  7716                          ; ---------------------------------
  7717                          _updatePellets:
  7718  2839  dde5              	push	ix
  7719  283b  dd210000          	ld	ix,0
  7720  283f  dd39              	add	ix,sp
  7721  2841  3b                	dec	sp
  7722  2842  0e00              	ld	c,0x00
  7723                          l_updatePellets_00106:
  7724  2844  79                	ld	a, c
  7725  2845  d60a              	sub	a,0x0a
  7726  2847  3022              	jr	NC,l_updatePellets_00101
  7727  2849  59                	ld	e, c
  7728  284a  1600              	ld	d,0x00
  7729  284c  eb                	ex	de, hl
  7730  284d  29                	add	hl, hl
  7731  284e  eb                	ex	de, hl
  7732  284f  213617            	ld	hl,__pellets
  7733  2852  19                	add	hl, de
  7734  2853  eb                	ex	de, hl
  7735  2854  6b                	ld	l, e
  7736  2855  62                	ld	h, d
  7737  2856  23                	inc	hl
  7738  2857  46                	ld	b, (hl)
  7739  2858  1a                	ld	a, (de)
  7740  2859  c5                	push	bc
  7741  285a  2620              	ld	h,0x20
  7742  285c  e5                	push	hl
  7743  285d  33                	inc	sp
  7744  285e  c5                	push	bc
  7745  285f  33                	inc	sp
  7746  2860  f5                	push	af
  7747  2861  33                	inc	sp
  7748  2862  cdf50c            	call	_vdp_putPattern
  7749  2865  f1                	pop	af
  7750  2866  33                	inc	sp
  7751  2867  c1                	pop	bc
  7752  2868  0c                	inc	c
  7753  2869  18d9              	jr	l_updatePellets_00106
  7754                          l_updatePellets_00101:
  7755  286b  dd36ff00          	ld	(ix-1),0x00
  7756                          l_updatePellets_00109:
  7757  286f  21cd16            	ld	hl,_PELLET_CNT
  7758  2872  dd7eff            	ld	a,(ix-1)
  7759  2875  96                	sub	a, (hl)
  7760  2876  3044              	jr	NC,l_updatePellets_00111
  7761  2878  cd0000            	call	_rand
  7762  287b  112000            	ld	de,0x0020
  7763  287e  d5                	push	de
  7764  287f  e5                	push	hl
  7765  2880  cd0000            	call	__modsint_callee
  7766  2883  4d                	ld	c, l
  7767  2884  c5                	push	bc
  7768  2885  cd0000            	call	_rand
  7769  2888  111500            	ld	de,0x0015
  7770  288b  d5                	push	de
  7771  288c  e5                	push	hl
  7772  288d  cd0000            	call	__modsint_callee
  7773  2890  c1                	pop	bc
  7774  2891  45                	ld	b, l
  7775  2892  04                	inc	b
  7776  2893  04                	inc	b
  7777  2894  c5                	push	bc
  7778  2895  c5                	push	bc
  7779  2896  cd7e14            	call	_vdp_getCharAtLocationBuf
  7780  2899  f1                	pop	af
  7781  289a  7d                	ld	a, l
  7782  289b  c1                	pop	bc
  7783  289c  d608              	sub	a,0x08
  7784  289e  28cf              	jr	Z,l_updatePellets_00109
  7785  28a0  dd6eff            	ld	l,(ix-1)
  7786  28a3  2600              	ld	h,0x00
  7787  28a5  29                	add	hl, hl
  7788  28a6  113617            	ld	de,__pellets
  7789  28a9  19                	add	hl, de
  7790  28aa  71                	ld	(hl), c
  7791  28ab  23                	inc	hl
  7792  28ac  70                	ld	(hl), b
  7793  28ad  3e08              	ld	a,0x08
  7794  28af  f5                	push	af
  7795  28b0  33                	inc	sp
  7796  28b1  c5                	push	bc
  7797  28b2  cdf50c            	call	_vdp_putPattern
  7798  28b5  f1                	pop	af
  7799  28b6  33                	inc	sp
  7800  28b7  dd34ff            	inc	(ix-1)
  7801  28ba  18b3              	jr	l_updatePellets_00109
  7802                          l_updatePellets_00111:
  7803  28bc  33                	inc	sp
  7804  28bd  dde1              	pop	ix
  7805  28bf  c9                	ret
  7806                          	SECTION code_compiler
  7807                          ;	---------------------------------
  7808                          ; Function doStars
  7809                          ; ---------------------------------
  7810                          _doStars:
  7811  28c0  cd0000            	call	_rand
  7812  28c3  112000            	ld	de,0x0020
  7813  28c6  d5                	push	de
  7814  28c7  e5                	push	hl
  7815  28c8  cd0000            	call	__modsint_callee
  7816  28cb  4d                	ld	c, l
  7817  28cc  c5                	push	bc
  7818  28cd  cd0000            	call	_rand
  7819  28d0  111500            	ld	de,0x0015
  7820  28d3  d5                	push	de
  7821  28d4  e5                	push	hl
  7822  28d5  cd0000            	call	__modsint_callee
  7823  28d8  c1                	pop	bc
  7824  28d9  45                	ld	b, l
  7825  28da  04                	inc	b
  7826  28db  04                	inc	b
  7827  28dc  c5                	push	bc
  7828  28dd  c5                	push	bc
  7829  28de  cd7e14            	call	_vdp_getCharAtLocationBuf
  7830  28e1  f1                	pop	af
  7831  28e2  7d                	ld	a, l
  7832  28e3  c1                	pop	bc
  7833  28e4  d608              	sub	a,0x08
  7834  28e6  d0                	ret	NC
  7835  28e7  c5                	push	bc
  7836  28e8  cd0000            	call	_rand
  7837  28eb  110800            	ld	de,0x0008
  7838  28ee  d5                	push	de
  7839  28ef  e5                	push	hl
  7840  28f0  cd0000            	call	__modsint_callee
  7841  28f3  c1                	pop	bc
  7842  28f4  7d                	ld	a, l
  7843  28f5  f5                	push	af
  7844  28f6  33                	inc	sp
  7845  28f7  c5                	push	bc
  7846  28f8  cdf50c            	call	_vdp_putPattern
  7847  28fb  f1                	pop	af
  7848  28fc  33                	inc	sp
  7849  28fd  c9                	ret
  7850                          	SECTION code_compiler
  7851                          ;	---------------------------------
  7852                          ; Function initPlayers
  7853                          ; ---------------------------------
  7854                          _initPlayers:
  7855  28fe  dde5              	push	ix
  7856  2900  dd210000          	ld	ix,0
  7857  2904  dd39              	add	ix,sp
  7858  2906  f5                	push	af
  7859  2907  0e00              	ld	c,0x00
  7860                          l_initPlayers_00106:
  7861  2909  79                	ld	a, c
  7862  290a  d604              	sub	a,0x04
  7863  290c  d2eb29            	jp	NC, l_initPlayers_00108
  7864  290f  0600              	ld	b,0x00
  7865  2911  69                	ld	l, c
  7866  2912  60                	ld	h, b
  7867  2913  29                	add	hl, hl
  7868  2914  29                	add	hl, hl
  7869  2915  09                	add	hl, bc
  7870  2916  29                	add	hl, hl
  7871  2917  09                	add	hl, bc
  7872  2918  eb                	ex	de, hl
  7873  2919  21cc16            	ld	hl,_PLAYER_CNT
  7874  291c  79                	ld	a, c
  7875  291d  96                	sub	a, (hl)
  7876  291e  d2a229            	jp	NC, l_initPlayers_00102
  7877  2921  21da16            	ld	hl,__player
  7878  2924  19                	add	hl, de
  7879  2925  eb                	ex	de, hl
  7880  2926  3e01              	ld	a,0x01
  7881  2928  12                	ld	(de), a
  7882  2929  210100            	ld	hl,0x0001
  7883  292c  19                	add	hl, de
  7884  292d  e3                	ex	(sp), hl
  7885  292e  c5                	push	bc
  7886  292f  d5                	push	de
  7887  2930  cd0000            	call	_rand
  7888  2933  fd21b000          	ld	iy,0x00b0
  7889  2937  fde5              	push	iy
  7890  2939  e5                	push	hl
  7891  293a  cd0000            	call	__modsint_callee
  7892  293d  d1                	pop	de
  7893  293e  c1                	pop	bc
  7894  293f  45                	ld	b, l
  7895  2940  e1                	pop	hl
  7896  2941  e5                	push	hl
  7897  2942  70                	ld	(hl), b
  7898  2943  210400            	ld	hl,0x0004
  7899  2946  19                	add	hl, de
  7900  2947  3600              	ld	(hl),0x00
  7901  2949  210500            	ld	hl,0x0005
  7902  294c  19                	add	hl, de
  7903  294d  3600              	ld	(hl),0x00
  7904  294f  6b                	ld	l, e
  7905  2950  62                	ld	h, d
  7906  2951  23                	inc	hl
  7907  2952  23                	inc	hl
  7908  2953  3601              	ld	(hl),0x01
  7909  2955  6b                	ld	l, e
  7910  2956  62                	ld	h, d
  7911  2957  23                	inc	hl
  7912  2958  23                	inc	hl
  7913  2959  23                	inc	hl
  7914  295a  3601              	ld	(hl),0x01
  7915  295c  210700            	ld	hl,0x0007
  7916  295f  19                	add	hl, de
  7917  2960  3acb16            	ld	a, (_PLAYER_LIVES+0)
  7918  2963  77                	ld	(hl), a
  7919  2964  210600            	ld	hl,0x0006
  7920  2967  19                	add	hl, de
  7921  2968  3600              	ld	(hl),0x00
  7922  296a  210a00            	ld	hl,0x000a
  7923  296d  19                	add	hl, de
  7924  296e  3601              	ld	(hl),0x01
  7925  2970  210800            	ld	hl,0x0008
  7926  2973  19                	add	hl, de
  7927  2974  1a                	ld	a, (de)
  7928  2975  e5                	push	hl
  7929  2976  c5                	push	bc
  7930  2977  1603              	ld	d,0x03
  7931  2979  d5                	push	de
  7932  297a  33                	inc	sp
  7933  297b  c5                	push	bc
  7934  297c  33                	inc	sp
  7935  297d  57                	ld	d,a
  7936  297e  1e01              	ld	e,0x01
  7937  2980  d5                	push	de
  7938  2981  79                	ld	a, c
  7939  2982  f5                	push	af
  7940  2983  33                	inc	sp
  7941  2984  cd2d11            	call	_vdp_spriteInit
  7942  2987  f1                	pop	af
  7943  2988  f1                	pop	af
  7944  2989  33                	inc	sp
  7945  298a  7d                	ld	a, l
  7946  298b  c1                	pop	bc
  7947  298c  e1                	pop	hl
  7948  298d  77                	ld	(hl), a
  7949  298e  c5                	push	bc
  7950  298f  79                	ld	a, c
  7951  2990  f5                	push	af
  7952  2991  33                	inc	sp
  7953  2992  cd9327            	call	_updateScore
  7954  2995  33                	inc	sp
  7955  2996  c1                	pop	bc
  7956  2997  c5                	push	bc
  7957  2998  79                	ld	a, c
  7958  2999  f5                	push	af
  7959  299a  33                	inc	sp
  7960  299b  cddf27            	call	_updateLives
  7961  299e  33                	inc	sp
  7962  299f  c1                	pop	bc
  7963  29a0  1845              	jr	l_initPlayers_00107
  7964                          l_initPlayers_00102:
  7965  29a2  21da16            	ld	hl,__player
  7966  29a5  19                	add	hl, de
  7967  29a6  eb                	ex	de, hl
  7968  29a7  210700            	ld	hl,0x0007
  7969  29aa  19                	add	hl, de
  7970  29ab  3600              	ld	(hl),0x00
  7971  29ad  210a00            	ld	hl,0x000a
  7972  29b0  19                	add	hl, de
  7973  29b1  3600              	ld	(hl),0x00
  7974  29b3  79                	ld	a, c
  7975  29b4  87                	add	a, a
  7976  29b5  87                	add	a, a
  7977  29b6  87                	add	a, a
  7978  29b7  91                	sub	a, c
  7979  29b8  47                	ld	b, a
  7980  29b9  c5                	push	bc
  7981  29ba  af                	xor	a, a
  7982  29bb  f5                	push	af
  7983  29bc  33                	inc	sp
  7984  29bd  c5                	push	bc
  7985  29be  33                	inc	sp
  7986  29bf  cde612            	call	_vdp_setCursor2
  7987  29c2  21f800            	ld	hl,___str_27
  7988  29c5  e3                	ex	(sp),hl
  7989  29c6  cd2a12            	call	_vdp_print
  7990  29c9  f1                	pop	af
  7991  29ca  c1                	pop	bc
  7992  29cb  c5                	push	bc
  7993  29cc  3e01              	ld	a,0x01
  7994  29ce  f5                	push	af
  7995  29cf  33                	inc	sp
  7996  29d0  c5                	push	bc
  7997  29d1  33                	inc	sp
  7998  29d2  cde612            	call	_vdp_setCursor2
  7999  29d5  21f800            	ld	hl,___str_27
  8000  29d8  e3                	ex	(sp),hl
  8001  29d9  cd2a12            	call	_vdp_print
  8002  29dc  f1                	pop	af
  8003  29dd  c1                	pop	bc
  8004  29de  c5                	push	bc
  8005  29df  79                	ld	a, c
  8006  29e0  f5                	push	af
  8007  29e1  33                	inc	sp
  8008  29e2  cd9010            	call	_vdp_disableSprite
  8009  29e5  33                	inc	sp
  8010  29e6  c1                	pop	bc
  8011                          l_initPlayers_00107:
  8012  29e7  0c                	inc	c
  8013  29e8  c30929            	jp	l_initPlayers_00106
  8014                          l_initPlayers_00108:
  8015  29eb  ddf9              	ld	sp, ix
  8016  29ed  dde1              	pop	ix
  8017  29ef  c9                	ret
  8018                          	SECTION rodata_compiler
  8019                          ___str_27:
  8020  00f8  20202020202020    	DEFM "       "
  8021  00ff  00                	DEFB 0x00
  8022                          	SECTION code_compiler
  8023                          ;	---------------------------------
  8024                          ; Function initRocks
  8025                          ; ---------------------------------
  8026                          _initRocks:
  8027  29f0  dde5              	push	ix
  8028  29f2  dd210000          	ld	ix,0
  8029  29f6  dd39              	add	ix,sp
  8030  29f8  3b                	dec	sp
  8031  29f9  dd36ff00          	ld	(ix-1),0x00
  8032                          l_initRocks_00103:
  8033  29fd  dd7eff            	ld	a,(ix-1)
  8034  2a00  d606              	sub	a,0x06
  8035  2a02  d2a52a            	jp	NC, l_initRocks_00101
  8036  2a05  dd5eff            	ld	e,(ix-1)
  8037  2a08  1600              	ld	d,0x00
  8038  2a0a  eb                	ex	de, hl
  8039  2a0b  29                	add	hl, hl
  8040  2a0c  29                	add	hl, hl
  8041  2a0d  29                	add	hl, hl
  8042  2a0e  110617            	ld	de,__rock
  8043  2a11  19                	add	hl, de
  8044  2a12  e5                	push	hl
  8045  2a13  cd0000            	call	_rand
  8046  2a16  11ee00            	ld	de,0x00ee
  8047  2a19  d5                	push	de
  8048  2a1a  e5                	push	hl
  8049  2a1b  cd0000            	call	__modsint_callee
  8050  2a1e  c1                	pop	bc
  8051  2a1f  7d                	ld	a, l
  8052  2a20  3c                	inc	a
  8053  2a21  02                	ld	(bc), a
  8054  2a22  59                	ld	e, c
  8055  2a23  50                	ld	d, b
  8056  2a24  13                	inc	de
  8057  2a25  c5                	push	bc
  8058  2a26  d5                	push	de
  8059  2a27  cd0000            	call	_rand
  8060  2a2a  fd21a800          	ld	iy,0x00a8
  8061  2a2e  fde5              	push	iy
  8062  2a30  e5                	push	hl
  8063  2a31  cd0000            	call	__modsint_callee
  8064  2a34  d1                	pop	de
  8065  2a35  c1                	pop	bc
  8066  2a36  7d                	ld	a, l
  8067  2a37  c608              	add	a,0x08
  8068  2a39  12                	ld	(de), a
  8069  2a3a  210400            	ld	hl,0x0004
  8070  2a3d  09                	add	hl, bc
  8071  2a3e  c5                	push	bc
  8072  2a3f  e5                	push	hl
  8073  2a40  cd0000            	call	_rand
  8074  2a43  fd210f00          	ld	iy,0x000f
  8075  2a47  fde5              	push	iy
  8076  2a49  e5                	push	hl
  8077  2a4a  cd0000            	call	__modsint_callee
  8078  2a4d  d1                	pop	de
  8079  2a4e  c1                	pop	bc
  8080  2a4f  7d                	ld	a, l
  8081  2a50  3c                	inc	a
  8082  2a51  12                	ld	(de), a
  8083  2a52  210500            	ld	hl,0x0005
  8084  2a55  09                	add	hl, bc
  8085  2a56  c5                	push	bc
  8086  2a57  e5                	push	hl
  8087  2a58  cd0000            	call	_rand
  8088  2a5b  fd210f00          	ld	iy,0x000f
  8089  2a5f  fde5              	push	iy
  8090  2a61  e5                	push	hl
  8091  2a62  cd0000            	call	__modsint_callee
  8092  2a65  d1                	pop	de
  8093  2a66  c1                	pop	bc
  8094  2a67  7d                	ld	a, l
  8095  2a68  3c                	inc	a
  8096  2a69  12                	ld	(de), a
  8097  2a6a  59                	ld	e, c
  8098  2a6b  50                	ld	d, b
  8099  2a6c  13                	inc	de
  8100  2a6d  13                	inc	de
  8101  2a6e  c5                	push	bc
  8102  2a6f  d5                	push	de
  8103  2a70  cd0000            	call	_rand
  8104  2a73  fd210200          	ld	iy,0x0002
  8105  2a77  fde5              	push	iy
  8106  2a79  e5                	push	hl
  8107  2a7a  cd0000            	call	__modsint_callee
  8108  2a7d  d1                	pop	de
  8109  2a7e  c1                	pop	bc
  8110  2a7f  7d                	ld	a, l
  8111  2a80  12                	ld	(de), a
  8112  2a81  59                	ld	e, c
  8113  2a82  50                	ld	d, b
  8114  2a83  13                	inc	de
  8115  2a84  13                	inc	de
  8116  2a85  13                	inc	de
  8117  2a86  c5                	push	bc
  8118  2a87  d5                	push	de
  8119  2a88  cd0000            	call	_rand
  8120  2a8b  fd210200          	ld	iy,0x0002
  8121  2a8f  fde5              	push	iy
  8122  2a91  e5                	push	hl
  8123  2a92  cd0000            	call	__modsint_callee
  8124  2a95  d1                	pop	de
  8125  2a96  c1                	pop	bc
  8126  2a97  7d                	ld	a, l
  8127  2a98  12                	ld	(de), a
  8128  2a99  210700            	ld	hl,0x0007
  8129  2a9c  09                	add	hl, bc
  8130  2a9d  3601              	ld	(hl),0x01
  8131  2a9f  dd34ff            	inc	(ix-1)
  8132  2aa2  c3fd29            	jp	l_initRocks_00103
  8133                          l_initRocks_00101:
  8134  2aa5  3a0717            	ld	a, (__rock + 1)
  8135  2aa8  210617            	ld	hl,__rock + 0
  8136  2aab  46                	ld	b, (hl)
  8137  2aac  2604              	ld	h,0x04
  8138  2aae  e5                	push	hl
  8139  2aaf  33                	inc	sp
  8140  2ab0  f5                	push	af
  8141  2ab1  33                	inc	sp
  8142  2ab2  c5                	push	bc
  8143  2ab3  33                	inc	sp
  8144  2ab4  110402            	ld	de,0x0204
  8145  2ab7  d5                	push	de
  8146  2ab8  cd2d11            	call	_vdp_spriteInit
  8147  2abb  f1                	pop	af
  8148  2abc  f1                	pop	af
  8149  2abd  33                	inc	sp
  8150  2abe  7d                	ld	a, l
  8151  2abf  320c17            	ld	((__rock + 6)),a
  8152  2ac2  210f17            	ld	hl,__rock + 9
  8153  2ac5  46                	ld	b, (hl)
  8154  2ac6  3a0e17            	ld	a, (__rock + 8)
  8155  2ac9  2605              	ld	h,0x05
  8156  2acb  e5                	push	hl
  8157  2acc  33                	inc	sp
  8158  2acd  c5                	push	bc
  8159  2ace  33                	inc	sp
  8160  2acf  57                	ld	d,a
  8161  2ad0  1e03              	ld	e,0x03
  8162  2ad2  d5                	push	de
  8163  2ad3  3e05              	ld	a,0x05
  8164  2ad5  f5                	push	af
  8165  2ad6  33                	inc	sp
  8166  2ad7  cd2d11            	call	_vdp_spriteInit
  8167  2ada  f1                	pop	af
  8168  2adb  f1                	pop	af
  8169  2adc  33                	inc	sp
  8170  2add  7d                	ld	a, l
  8171  2ade  321417            	ld	((__rock + 14)),a
  8172  2ae1  211717            	ld	hl,__rock + 17
  8173  2ae4  46                	ld	b, (hl)
  8174  2ae5  3a1617            	ld	a, (__rock + 16)
  8175  2ae8  2606              	ld	h,0x06
  8176  2aea  e5                	push	hl
  8177  2aeb  33                	inc	sp
  8178  2aec  c5                	push	bc
  8179  2aed  33                	inc	sp
  8180  2aee  57                	ld	d,a
  8181  2aef  1e04              	ld	e,0x04
  8182  2af1  d5                	push	de
  8183  2af2  3e06              	ld	a,0x06
  8184  2af4  f5                	push	af
  8185  2af5  33                	inc	sp
  8186  2af6  cd2d11            	call	_vdp_spriteInit
  8187  2af9  f1                	pop	af
  8188  2afa  f1                	pop	af
  8189  2afb  33                	inc	sp
  8190  2afc  7d                	ld	a, l
  8191  2afd  321c17            	ld	((__rock + 22)),a
  8192  2b00  211f17            	ld	hl,__rock + 25
  8193  2b03  46                	ld	b, (hl)
  8194  2b04  3a1e17            	ld	a, (__rock + 24)
  8195  2b07  2607              	ld	h,0x07
  8196  2b09  e5                	push	hl
  8197  2b0a  33                	inc	sp
  8198  2b0b  c5                	push	bc
  8199  2b0c  33                	inc	sp
  8200  2b0d  57                	ld	d,a
  8201  2b0e  1e05              	ld	e,0x05
  8202  2b10  d5                	push	de
  8203  2b11  3e07              	ld	a,0x07
  8204  2b13  f5                	push	af
  8205  2b14  33                	inc	sp
  8206  2b15  cd2d11            	call	_vdp_spriteInit
  8207  2b18  f1                	pop	af
  8208  2b19  f1                	pop	af
  8209  2b1a  33                	inc	sp
  8210  2b1b  7d                	ld	a, l
  8211  2b1c  322417            	ld	((__rock + 30)),a
  8212  2b1f  212717            	ld	hl,__rock + 33
  8213  2b22  46                	ld	b, (hl)
  8214  2b23  3a2617            	ld	a, (__rock + 32)
  8215  2b26  260e              	ld	h,0x0e
  8216  2b28  e5                	push	hl
  8217  2b29  33                	inc	sp
  8218  2b2a  c5                	push	bc
  8219  2b2b  33                	inc	sp
  8220  2b2c  57                	ld	d,a
  8221  2b2d  1e06              	ld	e,0x06
  8222  2b2f  d5                	push	de
  8223  2b30  3e08              	ld	a,0x08
  8224  2b32  f5                	push	af
  8225  2b33  33                	inc	sp
  8226  2b34  cd2d11            	call	_vdp_spriteInit
  8227  2b37  f1                	pop	af
  8228  2b38  f1                	pop	af
  8229  2b39  33                	inc	sp
  8230  2b3a  7d                	ld	a, l
  8231  2b3b  322c17            	ld	((__rock + 38)),a
  8232  2b3e  212f17            	ld	hl,__rock + 41
  8233  2b41  46                	ld	b, (hl)
  8234  2b42  3a2e17            	ld	a, (__rock + 40)
  8235  2b45  260b              	ld	h,0x0b
  8236  2b47  e5                	push	hl
  8237  2b48  33                	inc	sp
  8238  2b49  c5                	push	bc
  8239  2b4a  33                	inc	sp
  8240  2b4b  57                	ld	d,a
  8241  2b4c  1e07              	ld	e,0x07
  8242  2b4e  d5                	push	de
  8243  2b4f  3e09              	ld	a,0x09
  8244  2b51  f5                	push	af
  8245  2b52  33                	inc	sp
  8246  2b53  cd2d11            	call	_vdp_spriteInit
  8247  2b56  f1                	pop	af
  8248  2b57  f1                	pop	af
  8249  2b58  33                	inc	sp
  8250  2b59  7d                	ld	a, l
  8251  2b5a  323417            	ld	((__rock + 46)),a
  8252  2b5d  33                	inc	sp
  8253  2b5e  dde1              	pop	ix
  8254  2b60  c9                	ret
  8255                          	SECTION code_compiler
  8256                          ;	---------------------------------
  8257                          ; Function doPlayer
  8258                          ; ---------------------------------
  8259                          _doPlayer:
  8260  2b61  dde5              	push	ix
  8261  2b63  dd210000          	ld	ix,0
  8262  2b67  dd39              	add	ix,sp
  8263  2b69  21fbff            	ld	hl, -5
  8264  2b6c  39                	add	hl, sp
  8265  2b6d  f9                	ld	sp, hl
  8266  2b6e  01da16            	ld	bc,__player+0
  8267  2b71  dd5e04            	ld	e,(ix+4)
  8268  2b74  1600              	ld	d,0x00
  8269  2b76  6b                	ld	l, e
  8270  2b77  62                	ld	h, d
  8271  2b78  29                	add	hl, hl
  8272  2b79  29                	add	hl, hl
  8273  2b7a  19                	add	hl, de
  8274  2b7b  29                	add	hl, hl
  8275  2b7c  19                	add	hl, de
  8276  2b7d  09                	add	hl, bc
  8277  2b7e  4d                	ld	c, l
  8278  2b7f  44                	ld	b, h
  8279  2b80  c5                	push	bc
  8280  2b81  fde1              	pop	iy
  8281  2b83  fd7e07            	ld	a,(iy+7)
  8282  2b86  b7                	or	a, a
  8283  2b87  ca642e            	jp	Z,l_doPlayer_00178
  8284  2b8a  110600            	ld	de,__joyStatus+0
  8285  2b8d  dd6e04            	ld	l,(ix+4)
  8286  2b90  2600              	ld	h,0x00
  8287  2b92  19                	add	hl, de
  8288  2b93  5e                	ld	e, (hl)
  8289  2b94  210900            	ld	hl,0x0009
  8290  2b97  09                	add	hl, bc
  8291  2b98  dd75fe            	ld	(ix-2),l
  8292  2b9b  dd74ff            	ld	(ix-1),h
  8293  2b9e  7b                	ld	a, e
  8294  2b9f  e60f              	and	a,0x0f
  8295  2ba1  2809              	jr	Z,l_doPlayer_00104
  8296  2ba3  dd6efe            	ld	l,(ix-2)
  8297  2ba6  dd66ff            	ld	h,(ix-1)
  8298  2ba9  34                	inc	(hl)
  8299  2baa  1808              	jr	l_doPlayer_00105
  8300                          l_doPlayer_00104:
  8301  2bac  dd6efe            	ld	l,(ix-2)
  8302  2baf  dd66ff            	ld	h,(ix-1)
  8303  2bb2  3600              	ld	(hl),0x00
  8304                          l_doPlayer_00105:
  8305  2bb4  dd6efe            	ld	l,(ix-2)
  8306  2bb7  dd66ff            	ld	h,(ix-1)
  8307  2bba  7e                	ld	a, (hl)
  8308  2bbb  d60a              	sub	a,0x0a
  8309  2bbd  c2a72c            	jp	NZ,l_doPlayer_00145
  8310  2bc0  dd6efe            	ld	l,(ix-2)
  8311  2bc3  dd66ff            	ld	h,(ix-1)
  8312  2bc6  3600              	ld	(hl),0x00
  8313  2bc8  110600            	ld	de,__joyStatus+0
  8314  2bcb  dd6e04            	ld	l,(ix+4)
  8315  2bce  2600              	ld	h,0x00
  8316  2bd0  19                	add	hl, de
  8317  2bd1  7e                	ld	a, (hl)
  8318  2bd2  e60a              	and	a,0x0a
  8319  2bd4  5f                	ld	e, a
  8320  2bd5  1600              	ld	d,0x00
  8321  2bd7  7b                	ld	a, e
  8322  2bd8  d602              	sub	a,0x02
  8323  2bda  b2                	or	a, d
  8324  2bdb  2839              	jr	Z,l_doPlayer_00115
  8325  2bdd  7b                	ld	a, e
  8326  2bde  d608              	sub	a,0x08
  8327  2be0  b2                	or	a, d
  8328  2be1  2065              	jr	NZ,l_doPlayer_00124
  8329  2be3  210500            	ld	hl,0x0005
  8330  2be6  09                	add	hl, bc
  8331  2be7  eb                	ex	de, hl
  8332  2be8  1a                	ld	a, (de)
  8333  2be9  dd77ff            	ld	(ix-1),a
  8334  2bec  69                	ld	l, c
  8335  2bed  60                	ld	h, b
  8336  2bee  23                	inc	hl
  8337  2bef  23                	inc	hl
  8338  2bf0  23                	inc	hl
  8339  2bf1  dd7eff            	ld	a,(ix-1)
  8340  2bf4  b7                	or	a,a
  8341  2bf5  2006              	jr	NZ,l_doPlayer_00113
  8342  2bf7  77                	ld	(hl),a
  8343  2bf8  3e01              	ld	a,0x01
  8344  2bfa  12                	ld	(de), a
  8345  2bfb  184b              	jr	l_doPlayer_00124
  8346                          l_doPlayer_00113:
  8347  2bfd  7e                	ld	a, (hl)
  8348  2bfe  b7                	or	a, a
  8349  2bff  2807              	jr	Z,l_doPlayer_00110
  8350  2c01  dd7eff            	ld	a,(ix-1)
  8351  2c04  3d                	dec	a
  8352  2c05  12                	ld	(de), a
  8353  2c06  1840              	jr	l_doPlayer_00124
  8354                          l_doPlayer_00110:
  8355  2c08  dd7eff            	ld	a,(ix-1)
  8356  2c0b  d606              	sub	a,0x06
  8357  2c0d  3039              	jr	NC,l_doPlayer_00124
  8358  2c0f  dd7eff            	ld	a,(ix-1)
  8359  2c12  3c                	inc	a
  8360  2c13  12                	ld	(de), a
  8361  2c14  1832              	jr	l_doPlayer_00124
  8362                          l_doPlayer_00115:
  8363  2c16  210500            	ld	hl,0x0005
  8364  2c19  09                	add	hl, bc
  8365  2c1a  eb                	ex	de, hl
  8366  2c1b  1a                	ld	a, (de)
  8367  2c1c  dd77ff            	ld	(ix-1),a
  8368  2c1f  69                	ld	l, c
  8369  2c20  60                	ld	h, b
  8370  2c21  23                	inc	hl
  8371  2c22  23                	inc	hl
  8372  2c23  23                	inc	hl
  8373  2c24  dd7eff            	ld	a,(ix-1)
  8374  2c27  b7                	or	a, a
  8375  2c28  2007              	jr	NZ,l_doPlayer_00122
  8376  2c2a  3601              	ld	(hl),0x01
  8377  2c2c  3e01              	ld	a,0x01
  8378  2c2e  12                	ld	(de), a
  8379  2c2f  1817              	jr	l_doPlayer_00124
  8380                          l_doPlayer_00122:
  8381  2c31  7e                	ld	a, (hl)
  8382  2c32  b7                	or	a, a
  8383  2c33  2007              	jr	NZ,l_doPlayer_00119
  8384  2c35  dd7eff            	ld	a,(ix-1)
  8385  2c38  3d                	dec	a
  8386  2c39  12                	ld	(de), a
  8387  2c3a  180c              	jr	l_doPlayer_00124
  8388                          l_doPlayer_00119:
  8389  2c3c  dd7eff            	ld	a,(ix-1)
  8390  2c3f  d606              	sub	a,0x06
  8391  2c41  3005              	jr	NC,l_doPlayer_00124
  8392  2c43  dd7eff            	ld	a,(ix-1)
  8393  2c46  3c                	inc	a
  8394  2c47  12                	ld	(de), a
  8395                          l_doPlayer_00124:
  8396  2c48  110600            	ld	de,__joyStatus+0
  8397  2c4b  dd6e04            	ld	l,(ix+4)
  8398  2c4e  2600              	ld	h,0x00
  8399  2c50  19                	add	hl, de
  8400  2c51  7e                	ld	a, (hl)
  8401  2c52  e605              	and	a,0x05
  8402  2c54  6f                	ld	l, a
  8403  2c55  2600              	ld	h,0x00
  8404  2c57  79                	ld	a, c
  8405  2c58  c604              	add	a,0x04
  8406  2c5a  5f                	ld	e, a
  8407  2c5b  78                	ld	a, b
  8408  2c5c  ce00              	adc	a,0x00
  8409  2c5e  57                	ld	d, a
  8410  2c5f  7d                	ld	a, l
  8411  2c60  3d                	dec	a
  8412  2c61  b4                	or	a, h
  8413  2c62  2826              	jr	Z,l_doPlayer_00134
  8414  2c64  7d                	ld	a, l
  8415  2c65  d604              	sub	a,0x04
  8416  2c67  b4                	or	a, h
  8417  2c68  203d              	jr	NZ,l_doPlayer_00145
  8418  2c6a  1a                	ld	a, (de)
  8419  2c6b  69                	ld	l, c
  8420  2c6c  60                	ld	h, b
  8421  2c6d  23                	inc	hl
  8422  2c6e  23                	inc	hl
  8423  2c6f  b7                	or	a, a
  8424  2c70  2007              	jr	NZ,l_doPlayer_00132
  8425  2c72  3601              	ld	(hl),0x01
  8426  2c74  3e01              	ld	a,0x01
  8427  2c76  12                	ld	(de), a
  8428  2c77  182e              	jr	l_doPlayer_00145
  8429                          l_doPlayer_00132:
  8430  2c79  6e                	ld	l, (hl)
  8431  2c7a  2c                	inc	l
  8432  2c7b  2d                	dec	l
  8433  2c7c  2004              	jr	NZ,l_doPlayer_00129
  8434  2c7e  3d                	dec	a
  8435  2c7f  12                	ld	(de), a
  8436  2c80  1825              	jr	l_doPlayer_00145
  8437                          l_doPlayer_00129:
  8438  2c82  fe06              	cp	a,0x06
  8439  2c84  3021              	jr	NC,l_doPlayer_00145
  8440  2c86  3c                	inc	a
  8441  2c87  12                	ld	(de), a
  8442  2c88  181d              	jr	l_doPlayer_00145
  8443                          l_doPlayer_00134:
  8444  2c8a  1a                	ld	a, (de)
  8445  2c8b  69                	ld	l, c
  8446  2c8c  60                	ld	h, b
  8447  2c8d  23                	inc	hl
  8448  2c8e  23                	inc	hl
  8449  2c8f  b7                	or	a,a
  8450  2c90  2006              	jr	NZ,l_doPlayer_00141
  8451  2c92  77                	ld	(hl),a
  8452  2c93  3e01              	ld	a,0x01
  8453  2c95  12                	ld	(de), a
  8454  2c96  180f              	jr	l_doPlayer_00145
  8455                          l_doPlayer_00141:
  8456  2c98  6e                	ld	l, (hl)
  8457  2c99  2c                	inc	l
  8458  2c9a  2d                	dec	l
  8459  2c9b  2804              	jr	Z,l_doPlayer_00138
  8460  2c9d  3d                	dec	a
  8461  2c9e  12                	ld	(de), a
  8462  2c9f  1806              	jr	l_doPlayer_00145
  8463                          l_doPlayer_00138:
  8464  2ca1  fe06              	cp	a,0x06
  8465  2ca3  3002              	jr	NC,l_doPlayer_00145
  8466  2ca5  3c                	inc	a
  8467  2ca6  12                	ld	(de), a
  8468                          l_doPlayer_00145:
  8469  2ca7  dd36ff00          	ld	(ix-1),0x00
  8470  2cab  c5                	push	bc
  8471  2cac  fde1              	pop	iy
  8472  2cae  fd5e04            	ld	e,(iy+4)
  8473  2cb1  7b                	ld	a, e
  8474  2cb2  b7                	or	a, a
  8475  2cb3  ca362d            	jp	Z, l_doPlayer_00158
  8476  2cb6  21d316            	ld	hl,__speedCurve+0
  8477  2cb9  1600              	ld	d,0x00
  8478  2cbb  19                	add	hl, de
  8479  2cbc  5e                	ld	e, (hl)
  8480  2cbd  1600              	ld	d,0x00
  8481  2cbf  c5                	push	bc
  8482  2cc0  d5                	push	de
  8483  2cc1  2acf16            	ld	hl, (__loopCntr)
  8484  2cc4  e5                	push	hl
  8485  2cc5  cd0000            	call	__moduint_callee
  8486  2cc8  c1                	pop	bc
  8487  2cc9  7c                	ld	a, h
  8488  2cca  b5                	or	a, l
  8489  2ccb  2069              	jr	NZ,l_doPlayer_00158
  8490  2ccd  210200            	ld	hl,0x0002
  8491  2cd0  09                	add	hl, bc
  8492  2cd1  dd75fd            	ld	(ix-3),l
  8493  2cd4  dd74fe            	ld	(ix-2),h
  8494  2cd7  dd6efd            	ld	l,(ix-3)
  8495  2cda  dd66fe            	ld	h,(ix-2)
  8496  2cdd  5e                	ld	e, (hl)
  8497  2cde  0a                	ld	a, (bc)
  8498  2cdf  dd77ff            	ld	(ix-1),a
  8499  2ce2  7b                	ld	a, e
  8500  2ce3  b7                	or	a, a
  8501  2ce4  2826              	jr	Z,l_doPlayer_00155
  8502  2ce6  dd7eff            	ld	a,(ix-1)
  8503  2ce9  3c                	inc	a
  8504  2cea  02                	ld	(bc), a
  8505  2ceb  d6ef              	sub	a,0xef
  8506  2ced  3843              	jr	C,l_doPlayer_00156
  8507  2cef  3ad216            	ld	a, (__isGamePlaying+0)
  8508  2cf2  b7                	or	a, a
  8509  2cf3  280f              	jr	Z,l_doPlayer_00147
  8510  2cf5  c5                	push	bc
  8511  2cf6  210500            	ld	hl,0x0005
  8512  2cf9  e5                	push	hl
  8513  2cfa  110232            	ld	de,0x3202
  8514  2cfd  d5                	push	de
  8515  2cfe  cdd803            	call	_playNoteDelay
  8516  2d01  f1                	pop	af
  8517  2d02  f1                	pop	af
  8518  2d03  c1                	pop	bc
  8519                          l_doPlayer_00147:
  8520  2d04  d1                	pop	de
  8521  2d05  e1                	pop	hl
  8522  2d06  e5                	push	hl
  8523  2d07  d5                	push	de
  8524  2d08  3600              	ld	(hl),0x00
  8525  2d0a  1826              	jr	l_doPlayer_00156
  8526                          l_doPlayer_00155:
  8527  2d0c  dd5eff            	ld	e,(ix-1)
  8528  2d0f  1d                	dec	e
  8529  2d10  7b                	ld	a, e
  8530  2d11  02                	ld	(bc), a
  8531  2d12  3e01              	ld	a,0x01
  8532  2d14  93                	sub	a, e
  8533  2d15  381b              	jr	C,l_doPlayer_00156
  8534  2d17  3ad216            	ld	a, (__isGamePlaying+0)
  8535  2d1a  b7                	or	a, a
  8536  2d1b  280f              	jr	Z,l_doPlayer_00151
  8537  2d1d  c5                	push	bc
  8538  2d1e  210500            	ld	hl,0x0005
  8539  2d21  e5                	push	hl
  8540  2d22  110232            	ld	de,0x3202
  8541  2d25  d5                	push	de
  8542  2d26  cdd803            	call	_playNoteDelay
  8543  2d29  f1                	pop	af
  8544  2d2a  f1                	pop	af
  8545  2d2b  c1                	pop	bc
  8546                          l_doPlayer_00151:
  8547  2d2c  d1                	pop	de
  8548  2d2d  e1                	pop	hl
  8549  2d2e  e5                	push	hl
  8550  2d2f  d5                	push	de
  8551  2d30  3601              	ld	(hl),0x01
  8552                          l_doPlayer_00156:
  8553  2d32  dd36ff01          	ld	(ix-1),0x01
  8554                          l_doPlayer_00158:
  8555  2d36  c5                	push	bc
  8556  2d37  fde1              	pop	iy
  8557  2d39  fd5e05            	ld	e,(iy+5)
  8558  2d3c  7b                	ld	a, e
  8559  2d3d  b7                	or	a, a
  8560  2d3e  cacd2d            	jp	Z, l_doPlayer_00172
  8561  2d41  21d316            	ld	hl,__speedCurve+0
  8562  2d44  1600              	ld	d,0x00
  8563  2d46  19                	add	hl, de
  8564  2d47  5e                	ld	e, (hl)
  8565  2d48  1600              	ld	d,0x00
  8566  2d4a  c5                	push	bc
  8567  2d4b  d5                	push	de
  8568  2d4c  2acf16            	ld	hl, (__loopCntr)
  8569  2d4f  e5                	push	hl
  8570  2d50  cd0000            	call	__moduint_callee
  8571  2d53  c1                	pop	bc
  8572  2d54  7c                	ld	a, h
  8573  2d55  b5                	or	a, l
  8574  2d56  2075              	jr	NZ,l_doPlayer_00172
  8575  2d58  210300            	ld	hl,0x0003
  8576  2d5b  09                	add	hl, bc
  8577  2d5c  e3                	ex	(sp), hl
  8578  2d5d  e1                	pop	hl
  8579  2d5e  e5                	push	hl
  8580  2d5f  5e                	ld	e, (hl)
  8581  2d60  210100            	ld	hl,0x0001
  8582  2d63  09                	add	hl, bc
  8583  2d64  dd75fd            	ld	(ix-3),l
  8584  2d67  dd74fe            	ld	(ix-2),h
  8585  2d6a  dd6efd            	ld	l,(ix-3)
  8586  2d6d  dd66fe            	ld	h,(ix-2)
  8587  2d70  7e                	ld	a, (hl)
  8588  2d71  dd77ff            	ld	(ix-1),a
  8589  2d74  7b                	ld	a, e
  8590  2d75  b7                	or	a, a
  8591  2d76  2828              	jr	Z,l_doPlayer_00169
  8592  2d78  dd7eff            	ld	a,(ix-1)
  8593  2d7b  3c                	inc	a
  8594  2d7c  d1                	pop	de
  8595  2d7d  e1                	pop	hl
  8596  2d7e  e5                	push	hl
  8597  2d7f  d5                	push	de
  8598  2d80  77                	ld	(hl), a
  8599  2d81  d6b0              	sub	a,0xb0
  8600  2d83  3844              	jr	C,l_doPlayer_00170
  8601  2d85  3ad216            	ld	a, (__isGamePlaying+0)
  8602  2d88  b7                	or	a, a
  8603  2d89  280f              	jr	Z,l_doPlayer_00161
  8604  2d8b  c5                	push	bc
  8605  2d8c  210500            	ld	hl,0x0005
  8606  2d8f  e5                	push	hl
  8607  2d90  110232            	ld	de,0x3202
  8608  2d93  d5                	push	de
  8609  2d94  cdd803            	call	_playNoteDelay
  8610  2d97  f1                	pop	af
  8611  2d98  f1                	pop	af
  8612  2d99  c1                	pop	bc
  8613                          l_doPlayer_00161:
  8614  2d9a  e1                	pop	hl
  8615  2d9b  e5                	push	hl
  8616  2d9c  3600              	ld	(hl),0x00
  8617  2d9e  1829              	jr	l_doPlayer_00170
  8618                          l_doPlayer_00169:
  8619  2da0  dd5eff            	ld	e,(ix-1)
  8620  2da3  1d                	dec	e
  8621  2da4  dd6efd            	ld	l,(ix-3)
  8622  2da7  dd66fe            	ld	h,(ix-2)
  8623  2daa  73                	ld	(hl), e
  8624  2dab  3e08              	ld	a,0x08
  8625  2dad  93                	sub	a, e
  8626  2dae  3819              	jr	C,l_doPlayer_00170
  8627  2db0  3ad216            	ld	a, (__isGamePlaying+0)
  8628  2db3  b7                	or	a, a
  8629  2db4  280f              	jr	Z,l_doPlayer_00165
  8630  2db6  c5                	push	bc
  8631  2db7  210500            	ld	hl,0x0005
  8632  2dba  e5                	push	hl
  8633  2dbb  110232            	ld	de,0x3202
  8634  2dbe  d5                	push	de
  8635  2dbf  cdd803            	call	_playNoteDelay
  8636  2dc2  f1                	pop	af
  8637  2dc3  f1                	pop	af
  8638  2dc4  c1                	pop	bc
  8639                          l_doPlayer_00165:
  8640  2dc5  e1                	pop	hl
  8641  2dc6  e5                	push	hl
  8642  2dc7  3601              	ld	(hl),0x01
  8643                          l_doPlayer_00170:
  8644  2dc9  dd36ff01          	ld	(ix-1),0x01
  8645                          l_doPlayer_00172:
  8646  2dcd  dd7eff            	ld	a,(ix-1)
  8647  2dd0  b7                	or	a, a
  8648  2dd1  ca642e            	jp	Z, l_doPlayer_00178
  8649  2dd4  69                	ld	l, c
  8650  2dd5  60                	ld	h, b
  8651  2dd6  23                	inc	hl
  8652  2dd7  6e                	ld	l, (hl)
  8653  2dd8  2600              	ld	h,0x00
  8654  2dda  7d                	ld	a, l
  8655  2ddb  c608              	add	a,0x08
  8656  2ddd  dd77fe            	ld	(ix-2),a
  8657  2de0  7c                	ld	a, h
  8658  2de1  ce00              	adc	a,0x00
  8659  2de3  dd77ff            	ld	(ix-1),a
  8660  2de6  dd5efe            	ld	e,(ix-2)
  8661  2de9  dd56ff            	ld	d,(ix-1)
  8662  2dec  ddcbff7e          	bit	7,(ix-1)
  8663  2df0  2805              	jr	Z,l_doPlayer_00180
  8664  2df2  110f00            	ld	de,0x000f
  8665  2df5  19                	add	hl, de
  8666  2df6  eb                	ex	de,hl
  8667                          l_doPlayer_00180:
  8668  2df7  cb2a              	sra	d
  8669  2df9  cb1b              	rr	e
  8670  2dfb  cb2a              	sra	d
  8671  2dfd  cb1b              	rr	e
  8672  2dff  cb2a              	sra	d
  8673  2e01  cb1b              	rr	e
  8674  2e03  dd73fd            	ld	(ix-3),e
  8675  2e06  0a                	ld	a, (bc)
  8676  2e07  dd77fe            	ld	(ix-2),a
  8677  2e0a  dd36ff00          	ld	(ix-1),0x00
  8678  2e0e  dd7efe            	ld	a,(ix-2)
  8679  2e11  c608              	add	a,0x08
  8680  2e13  6f                	ld	l, a
  8681  2e14  dd7eff            	ld	a,(ix-1)
  8682  2e17  ce00              	adc	a,0x00
  8683  2e19  57                	ld	d, a
  8684  2e1a  62                	ld	h, d
  8685  2e1b  cb7a              	bit	7, d
  8686  2e1d  280a              	jr	Z,l_doPlayer_00181
  8687  2e1f  dd6efe            	ld	l,(ix-2)
  8688  2e22  dd66ff            	ld	h,(ix-1)
  8689  2e25  110f00            	ld	de,0x000f
  8690  2e28  19                	add	hl, de
  8691                          l_doPlayer_00181:
  8692  2e29  cb2c              	sra	h
  8693  2e2b  cb1d              	rr	l
  8694  2e2d  cb2c              	sra	h
  8695  2e2f  cb1d              	rr	l
  8696  2e31  cb2c              	sra	h
  8697  2e33  cb1d              	rr	l
  8698  2e35  7d                	ld	a, l
  8699  2e36  c5                	push	bc
  8700  2e37  dd66fd            	ld	h,(ix-3)
  8701  2e3a  e5                	push	hl
  8702  2e3b  33                	inc	sp
  8703  2e3c  f5                	push	af
  8704  2e3d  33                	inc	sp
  8705  2e3e  cd7e14            	call	_vdp_getCharAtLocationBuf
  8706  2e41  f1                	pop	af
  8707  2e42  7d                	ld	a, l
  8708  2e43  c1                	pop	bc
  8709  2e44  d608              	sub	a,0x08
  8710  2e46  2016              	jr	NZ,l_doPlayer_00175
  8711  2e48  210600            	ld	hl,0x0006
  8712  2e4b  09                	add	hl, bc
  8713  2e4c  7e                	ld	a, (hl)
  8714  2e4d  c602              	add	a,0x02
  8715  2e4f  77                	ld	(hl), a
  8716  2e50  c5                	push	bc
  8717  2e51  dd7e04            	ld	a,(ix+4)
  8718  2e54  f5                	push	af
  8719  2e55  33                	inc	sp
  8720  2e56  cd9327            	call	_updateScore
  8721  2e59  33                	inc	sp
  8722  2e5a  cd3928            	call	_updatePellets
  8723  2e5d  c1                	pop	bc
  8724                          l_doPlayer_00175:
  8725  2e5e  210a00            	ld	hl,0x000a
  8726  2e61  09                	add	hl, bc
  8727  2e62  3601              	ld	(hl),0x01
  8728                          l_doPlayer_00178:
  8729  2e64  ddf9              	ld	sp, ix
  8730  2e66  dde1              	pop	ix
  8731  2e68  c9                	ret
  8732                          	SECTION code_compiler
  8733                          ;	---------------------------------
  8734                          ; Function doRock
  8735                          ; ---------------------------------
  8736                          _doRock:
  8737  2e69  dde5              	push	ix
  8738  2e6b  dd210000          	ld	ix,0
  8739  2e6f  dd39              	add	ix,sp
  8740  2e71  21fbff            	ld	hl, -5
  8741  2e74  39                	add	hl, sp
  8742  2e75  f9                	ld	sp, hl
  8743  2e76  dd36ff00          	ld	(ix-1),0x00
  8744  2e7a  010617            	ld	bc,__rock+0
  8745  2e7d  dd6e04            	ld	l,(ix+4)
  8746  2e80  2600              	ld	h,0x00
  8747  2e82  29                	add	hl, hl
  8748  2e83  29                	add	hl, hl
  8749  2e84  29                	add	hl, hl
  8750  2e85  09                	add	hl, bc
  8751  2e86  e3                	ex	(sp), hl
  8752  2e87  c1                	pop	bc
  8753  2e88  c5                	push	bc
  8754  2e89  210400            	ld	hl,4
  8755  2e8c  09                	add	hl, bc
  8756  2e8d  4e                	ld	c, (hl)
  8757  2e8e  0600              	ld	b,0x00
  8758  2e90  c5                	push	bc
  8759  2e91  2acf16            	ld	hl, (__loopCntr)
  8760  2e94  e5                	push	hl
  8761  2e95  cd0000            	call	__moduint_callee
  8762  2e98  7c                	ld	a, h
  8763  2e99  b5                	or	a, l
  8764  2e9a  2072              	jr	NZ,l_doRock_00113
  8765  2e9c  dd7efb            	ld	a,(ix-5)
  8766  2e9f  c602              	add	a,0x02
  8767  2ea1  dd77fd            	ld	(ix-3),a
  8768  2ea4  dd7efc            	ld	a,(ix-4)
  8769  2ea7  ce00              	adc	a,0x00
  8770  2ea9  dd77fe            	ld	(ix-2),a
  8771  2eac  dd6efd            	ld	l,(ix-3)
  8772  2eaf  dd66fe            	ld	h,(ix-2)
  8773  2eb2  4e                	ld	c, (hl)
  8774  2eb3  e1                	pop	hl
  8775  2eb4  e5                	push	hl
  8776  2eb5  7e                	ld	a, (hl)
  8777  2eb6  dd77ff            	ld	(ix-1),a
  8778  2eb9  79                	ld	a, c
  8779  2eba  b7                	or	a, a
  8780  2ebb  2827              	jr	Z,l_doRock_00110
  8781  2ebd  dd7eff            	ld	a,(ix-1)
  8782  2ec0  3c                	inc	a
  8783  2ec1  e1                	pop	hl
  8784  2ec2  e5                	push	hl
  8785  2ec3  77                	ld	(hl), a
  8786  2ec4  d6ef              	sub	a,0xef
  8787  2ec6  3842              	jr	C,l_doRock_00111
  8788  2ec8  3ad216            	ld	a, (__isGamePlaying+0)
  8789  2ecb  b7                	or	a, a
  8790  2ecc  280e              	jr	Z,l_doRock_00102
  8791  2ece  210a00            	ld	hl,0x000a
  8792  2ed1  e5                	push	hl
  8793  2ed2  af                	xor	a, a
  8794  2ed3  57                	ld	d,a
  8795  2ed4  1e02              	ld	e,0x02
  8796  2ed6  d5                	push	de
  8797  2ed7  cdd803            	call	_playNoteDelay
  8798  2eda  f1                	pop	af
  8799  2edb  f1                	pop	af
  8800                          l_doRock_00102:
  8801  2edc  c1                	pop	bc
  8802  2edd  e1                	pop	hl
  8803  2ede  e5                	push	hl
  8804  2edf  c5                	push	bc
  8805  2ee0  3600              	ld	(hl),0x00
  8806  2ee2  1826              	jr	l_doRock_00111
  8807                          l_doRock_00110:
  8808  2ee4  dd4eff            	ld	c,(ix-1)
  8809  2ee7  0d                	dec	c
  8810  2ee8  e1                	pop	hl
  8811  2ee9  e5                	push	hl
  8812  2eea  71                	ld	(hl), c
  8813  2eeb  3e01              	ld	a,0x01
  8814  2eed  91                	sub	a, c
  8815  2eee  381a              	jr	C,l_doRock_00111
  8816  2ef0  3ad216            	ld	a, (__isGamePlaying+0)
  8817  2ef3  b7                	or	a, a
  8818  2ef4  280e              	jr	Z,l_doRock_00106
  8819  2ef6  210a00            	ld	hl,0x000a
  8820  2ef9  e5                	push	hl
  8821  2efa  af                	xor	a, a
  8822  2efb  57                	ld	d,a
  8823  2efc  1e02              	ld	e,0x02
  8824  2efe  d5                	push	de
  8825  2eff  cdd803            	call	_playNoteDelay
  8826  2f02  f1                	pop	af
  8827  2f03  f1                	pop	af
  8828                          l_doRock_00106:
  8829  2f04  c1                	pop	bc
  8830  2f05  e1                	pop	hl
  8831  2f06  e5                	push	hl
  8832  2f07  c5                	push	bc
  8833  2f08  3601              	ld	(hl),0x01
  8834                          l_doRock_00111:
  8835  2f0a  dd36ff01          	ld	(ix-1),0x01
  8836                          l_doRock_00113:
  8837  2f0e  c1                	pop	bc
  8838  2f0f  c5                	push	bc
  8839  2f10  210500            	ld	hl,5
  8840  2f13  09                	add	hl, bc
  8841  2f14  4e                	ld	c, (hl)
  8842  2f15  0600              	ld	b,0x00
  8843  2f17  c5                	push	bc
  8844  2f18  2acf16            	ld	hl, (__loopCntr)
  8845  2f1b  e5                	push	hl
  8846  2f1c  cd0000            	call	__moduint_callee
  8847  2f1f  7c                	ld	a, h
  8848  2f20  b5                	or	a, l
  8849  2f21  2070              	jr	NZ,l_doRock_00126
  8850  2f23  dd7efb            	ld	a,(ix-5)
  8851  2f26  c603              	add	a,0x03
  8852  2f28  dd77fd            	ld	(ix-3),a
  8853  2f2b  dd7efc            	ld	a,(ix-4)
  8854  2f2e  ce00              	adc	a,0x00
  8855  2f30  dd77fe            	ld	(ix-2),a
  8856  2f33  dd6efd            	ld	l,(ix-3)
  8857  2f36  dd66fe            	ld	h,(ix-2)
  8858  2f39  4e                	ld	c, (hl)
  8859  2f3a  d1                	pop	de
  8860  2f3b  d5                	push	de
  8861  2f3c  13                	inc	de
  8862  2f3d  1a                	ld	a, (de)
  8863  2f3e  dd77ff            	ld	(ix-1),a
  8864  2f41  79                	ld	a, c
  8865  2f42  b7                	or	a, a
  8866  2f43  2825              	jr	Z,l_doRock_00123
  8867  2f45  dd7eff            	ld	a,(ix-1)
  8868  2f48  3c                	inc	a
  8869  2f49  12                	ld	(de), a
  8870  2f4a  d6b0              	sub	a,0xb0
  8871  2f4c  3841              	jr	C,l_doRock_00124
  8872  2f4e  3ad216            	ld	a, (__isGamePlaying+0)
  8873  2f51  b7                	or	a, a
  8874  2f52  280e              	jr	Z,l_doRock_00115
  8875  2f54  210a00            	ld	hl,0x000a
  8876  2f57  e5                	push	hl
  8877  2f58  af                	xor	a, a
  8878  2f59  57                	ld	d,a
  8879  2f5a  1e02              	ld	e,0x02
  8880  2f5c  d5                	push	de
  8881  2f5d  cdd803            	call	_playNoteDelay
  8882  2f60  f1                	pop	af
  8883  2f61  f1                	pop	af
  8884                          l_doRock_00115:
  8885  2f62  c1                	pop	bc
  8886  2f63  e1                	pop	hl
  8887  2f64  e5                	push	hl
  8888  2f65  c5                	push	bc
  8889  2f66  3600              	ld	(hl),0x00
  8890  2f68  1825              	jr	l_doRock_00124
  8891                          l_doRock_00123:
  8892  2f6a  dd4eff            	ld	c,(ix-1)
  8893  2f6d  0d                	dec	c
  8894  2f6e  79                	ld	a, c
  8895  2f6f  12                	ld	(de), a
  8896  2f70  3e08              	ld	a,0x08
  8897  2f72  91                	sub	a, c
  8898  2f73  381a              	jr	C,l_doRock_00124
  8899  2f75  3ad216            	ld	a, (__isGamePlaying+0)
  8900  2f78  b7                	or	a, a
  8901  2f79  280e              	jr	Z,l_doRock_00119
  8902  2f7b  210a00            	ld	hl,0x000a
  8903  2f7e  e5                	push	hl
  8904  2f7f  af                	xor	a, a
  8905  2f80  57                	ld	d,a
  8906  2f81  1e02              	ld	e,0x02
  8907  2f83  d5                	push	de
  8908  2f84  cdd803            	call	_playNoteDelay
  8909  2f87  f1                	pop	af
  8910  2f88  f1                	pop	af
  8911                          l_doRock_00119:
  8912  2f89  c1                	pop	bc
  8913  2f8a  e1                	pop	hl
  8914  2f8b  e5                	push	hl
  8915  2f8c  c5                	push	bc
  8916  2f8d  3601              	ld	(hl),0x01
  8917                          l_doRock_00124:
  8918  2f8f  dd36ff01          	ld	(ix-1),0x01
  8919                          l_doRock_00126:
  8920  2f93  dd7eff            	ld	a,(ix-1)
  8921  2f96  b7                	or	a, a
  8922  2f97  2808              	jr	Z,l_doRock_00129
  8923  2f99  e1                	pop	hl
  8924  2f9a  e5                	push	hl
  8925  2f9b  110700            	ld	de,0x0007
  8926  2f9e  19                	add	hl, de
  8927  2f9f  3601              	ld	(hl),0x01
  8928                          l_doRock_00129:
  8929  2fa1  ddf9              	ld	sp, ix
  8930  2fa3  dde1              	pop	ix
  8931  2fa5  c9                	ret
  8932                          	SECTION code_compiler
  8933                          ;	---------------------------------
  8934                          ; Function doCollision
  8935                          ; ---------------------------------
  8936                          _doCollision:
  8937  2fa6  dde5              	push	ix
  8938  2fa8  dd210000          	ld	ix,0
  8939  2fac  dd39              	add	ix,sp
  8940  2fae  21f1ff            	ld	hl, -15
  8941  2fb1  39                	add	hl, sp
  8942  2fb2  f9                	ld	sp, hl
  8943  2fb3  dd36fe00          	ld	(ix-2),0x00
  8944                          l_doCollision_00164:
  8945  2fb7  21cc16            	ld	hl,_PLAYER_CNT
  8946  2fba  dd7efe            	ld	a,(ix-2)
  8947  2fbd  96                	sub	a, (hl)
  8948  2fbe  d22334            	jp	NC, l_doCollision_00139
  8949  2fc1  dd4efe            	ld	c,(ix-2)
  8950  2fc4  0600              	ld	b,0x00
  8951  2fc6  69                	ld	l, c
  8952  2fc7  60                	ld	h, b
  8953  2fc8  29                	add	hl, hl
  8954  2fc9  29                	add	hl, hl
  8955  2fca  09                	add	hl, bc
  8956  2fcb  29                	add	hl, hl
  8957  2fcc  09                	add	hl, bc
  8958  2fcd  eb                	ex	de, hl
  8959  2fce  21da16            	ld	hl,__player
  8960  2fd1  19                	add	hl, de
  8961  2fd2  dd75fc            	ld	(ix-4),l
  8962  2fd5  dd74fd            	ld	(ix-3),h
  8963  2fd8  010700            	ld	bc,7
  8964  2fdb  09                	add	hl,bc
  8965  2fdc  7e                	ld	a, (hl)
  8966  2fdd  dd77ff            	ld	(ix-1),a
  8967  2fe0  b7                	or	a, a
  8968  2fe1  ca1d34            	jp	Z, l_doCollision_00138
  8969  2fe4  dd6efc            	ld	l,(ix-4)
  8970  2fe7  dd66fd            	ld	h,(ix-3)
  8971  2fea  46                	ld	b, (hl)
  8972  2feb  78                	ld	a, b
  8973  2fec  c610              	add	a,0x10
  8974  2fee  dd77f5            	ld	(ix-11),a
  8975  2ff1  dd6efc            	ld	l,(ix-4)
  8976  2ff4  dd66fd            	ld	h,(ix-3)
  8977  2ff7  23                	inc	hl
  8978  2ff8  4e                	ld	c, (hl)
  8979  2ff9  79                	ld	a, c
  8980  2ffa  c610              	add	a,0x10
  8981  2ffc  dd77f6            	ld	(ix-10),a
  8982  2fff  78                	ld	a, b
  8983  3000  c608              	add	a,0x08
  8984  3002  dd77f7            	ld	(ix-9),a
  8985  3005  79                	ld	a, c
  8986  3006  c608              	add	a,0x08
  8987  3008  dd77f8            	ld	(ix-8),a
  8988  300b  dd36ff00          	ld	(ix-1),0x00
  8989                          l_doCollision_00159:
  8990  300f  21cc16            	ld	hl,_PLAYER_CNT
  8991  3012  dd7eff            	ld	a,(ix-1)
  8992  3015  96                	sub	a, (hl)
  8993  3016  d2b631            	jp	NC, l_doCollision_00120
  8994  3019  dd7efe            	ld	a,(ix-2)
  8995  301c  dd96ff            	sub	a,(ix-1)
  8996  301f  cab031            	jp	Z,l_doCollision_00119
  8997  3022  dd4eff            	ld	c,(ix-1)
  8998  3025  0600              	ld	b,0x00
  8999  3027  69                	ld	l, c
  9000  3028  60                	ld	h, b
  9001  3029  29                	add	hl, hl
  9002  302a  29                	add	hl, hl
  9003  302b  09                	add	hl, bc
  9004  302c  29                	add	hl, hl
  9005  302d  09                	add	hl, bc
  9006  302e  eb                	ex	de, hl
  9007  302f  21da16            	ld	hl,__player
  9008  3032  19                	add	hl, de
  9009  3033  e3                	ex	(sp), hl
  9010  3034  c1                	pop	bc
  9011  3035  c5                	push	bc
  9012  3036  210700            	ld	hl,7
  9013  3039  09                	add	hl, bc
  9014  303a  7e                	ld	a, (hl)
  9015  303b  b7                	or	a, a
  9016  303c  cab031            	jp	Z, l_doCollision_00119
  9017  303f  dd4efe            	ld	c,(ix-2)
  9018  3042  0600              	ld	b,0x00
  9019  3044  69                	ld	l, c
  9020  3045  60                	ld	h, b
  9021  3046  29                	add	hl, hl
  9022  3047  29                	add	hl, hl
  9023  3048  09                	add	hl, bc
  9024  3049  29                	add	hl, hl
  9025  304a  09                	add	hl, bc
  9026  304b  11da16            	ld	de,__player
  9027  304e  19                	add	hl, de
  9028  304f  dd75f3            	ld	(ix-13),l
  9029  3052  dd74f4            	ld	(ix-12),h
  9030  3055  dd6ef3            	ld	l,(ix-13)
  9031  3058  dd66f4            	ld	h,(ix-12)
  9032  305b  4e                	ld	c, (hl)
  9033  305c  e1                	pop	hl
  9034  305d  e5                	push	hl
  9035  305e  46                	ld	b, (hl)
  9036  305f  58                	ld	e, b
  9037  3060  1600              	ld	d,0x00
  9038  3062  211000            	ld	hl,0x0010
  9039  3065  19                	add	hl, de
  9040  3066  1e00              	ld	e,0x00
  9041  3068  79                	ld	a, c
  9042  3069  95                	sub	a, l
  9043  306a  7b                	ld	a, e
  9044  306b  9c                	sbc	a, h
  9045  306c  e27130            	jp	PO, l_doCollision_00355
  9046  306f  ee80              	xor	a,0x80
  9047                          l_doCollision_00355:
  9048  3071  f2b031            	jp	P, l_doCollision_00119
  9049  3074  78                	ld	a, b
  9050  3075  dd96f5            	sub	a,(ix-11)
  9051  3078  d2b031            	jp	NC, l_doCollision_00119
  9052  307b  dd6ef3            	ld	l,(ix-13)
  9053  307e  dd66f4            	ld	h,(ix-12)
  9054  3081  23                	inc	hl
  9055  3082  4e                	ld	c, (hl)
  9056  3083  dd7ef1            	ld	a,(ix-15)
  9057  3086  c601              	add	a,0x01
  9058  3088  dd77fc            	ld	(ix-4),a
  9059  308b  dd7ef2            	ld	a,(ix-14)
  9060  308e  ce00              	adc	a,0x00
  9061  3090  dd77fd            	ld	(ix-3),a
  9062  3093  dd6efc            	ld	l,(ix-4)
  9063  3096  dd66fd            	ld	h,(ix-3)
  9064  3099  46                	ld	b, (hl)
  9065  309a  58                	ld	e, b
  9066  309b  1600              	ld	d,0x00
  9067  309d  211000            	ld	hl,0x0010
  9068  30a0  19                	add	hl, de
  9069  30a1  1e00              	ld	e,0x00
  9070  30a3  79                	ld	a, c
  9071  30a4  95                	sub	a, l
  9072  30a5  7b                	ld	a, e
  9073  30a6  9c                	sbc	a, h
  9074  30a7  e2ac30            	jp	PO, l_doCollision_00356
  9075  30aa  ee80              	xor	a,0x80
  9076                          l_doCollision_00356:
  9077  30ac  f2b031            	jp	P, l_doCollision_00119
  9078  30af  78                	ld	a, b
  9079  30b0  dd96f6            	sub	a,(ix-10)
  9080  30b3  d2b031            	jp	NC, l_doCollision_00119
  9081  30b6  3ad216            	ld	a, (__isGamePlaying+0)
  9082  30b9  b7                	or	a, a
  9083  30ba  280d              	jr	Z,l_doCollision_00107
  9084  30bc  210500            	ld	hl,0x0005
  9085  30bf  e5                	push	hl
  9086  30c0  110226            	ld	de,0x2602
  9087  30c3  d5                	push	de
  9088  30c4  cdd803            	call	_playNoteDelay
  9089  30c7  f1                	pop	af
  9090  30c8  f1                	pop	af
  9091                          l_doCollision_00107:
  9092  30c9  e1                	pop	hl
  9093  30ca  e5                	push	hl
  9094  30cb  4e                	ld	c, (hl)
  9095  30cc  0600              	ld	b,0x00
  9096  30ce  210800            	ld	hl,0x0008
  9097  30d1  09                	add	hl, bc
  9098  30d2  dd5ef7            	ld	e,(ix-9)
  9099  30d5  1600              	ld	d,0x00
  9100  30d7  dd7ef3            	ld	a,(ix-13)
  9101  30da  c602              	add	a,0x02
  9102  30dc  dd77fa            	ld	(ix-6),a
  9103  30df  dd7ef4            	ld	a,(ix-12)
  9104  30e2  ce00              	adc	a,0x00
  9105  30e4  dd77fb            	ld	(ix-5),a
  9106  30e7  c1                	pop	bc
  9107  30e8  c5                	push	bc
  9108  30e9  03                	inc	bc
  9109  30ea  03                	inc	bc
  9110  30eb  7b                	ld	a, e
  9111  30ec  95                	sub	a, l
  9112  30ed  7a                	ld	a, d
  9113  30ee  9c                	sbc	a, h
  9114  30ef  e2f430            	jp	PO, l_doCollision_00357
  9115  30f2  ee80              	xor	a,0x80
  9116                          l_doCollision_00357:
  9117  30f4  f20431            	jp	P, l_doCollision_00109
  9118  30f7  dd6efa            	ld	l,(ix-6)
  9119  30fa  dd66fb            	ld	h,(ix-5)
  9120  30fd  3600              	ld	(hl),0x00
  9121  30ff  3e01              	ld	a,0x01
  9122  3101  02                	ld	(bc), a
  9123  3102  180a              	jr	l_doCollision_00110
  9124                          l_doCollision_00109:
  9125  3104  dd6efa            	ld	l,(ix-6)
  9126  3107  dd66fb            	ld	h,(ix-5)
  9127  310a  3601              	ld	(hl),0x01
  9128  310c  af                	xor	a, a
  9129  310d  02                	ld	(bc), a
  9130                          l_doCollision_00110:
  9131  310e  dd6efc            	ld	l,(ix-4)
  9132  3111  dd66fd            	ld	h,(ix-3)
  9133  3114  4e                	ld	c, (hl)
  9134  3115  0600              	ld	b,0x00
  9135  3117  210800            	ld	hl,0x0008
  9136  311a  09                	add	hl, bc
  9137  311b  dd4ef8            	ld	c,(ix-8)
  9138  311e  0600              	ld	b,0x00
  9139  3120  dd7ef3            	ld	a,(ix-13)
  9140  3123  c603              	add	a,0x03
  9141  3125  dd77fa            	ld	(ix-6),a
  9142  3128  dd7ef4            	ld	a,(ix-12)
  9143  312b  ce00              	adc	a,0x00
  9144  312d  dd77fb            	ld	(ix-5),a
  9145  3130  dd7ef1            	ld	a,(ix-15)
  9146  3133  c603              	add	a,0x03
  9147  3135  dd77fc            	ld	(ix-4),a
  9148  3138  dd7ef2            	ld	a,(ix-14)
  9149  313b  ce00              	adc	a,0x00
  9150  313d  dd77fd            	ld	(ix-3),a
  9151  3140  79                	ld	a, c
  9152  3141  95                	sub	a, l
  9153  3142  78                	ld	a, b
  9154  3143  9c                	sbc	a, h
  9155  3144  e24931            	jp	PO, l_doCollision_00358
  9156  3147  ee80              	xor	a,0x80
  9157                          l_doCollision_00358:
  9158  3149  f25e31            	jp	P, l_doCollision_00112
  9159  314c  dd6efa            	ld	l,(ix-6)
  9160  314f  dd66fb            	ld	h,(ix-5)
  9161  3152  3600              	ld	(hl),0x00
  9162  3154  dd6efc            	ld	l,(ix-4)
  9163  3157  dd66fd            	ld	h,(ix-3)
  9164  315a  3601              	ld	(hl),0x01
  9165  315c  1810              	jr	l_doCollision_00113
  9166                          l_doCollision_00112:
  9167  315e  dd6efa            	ld	l,(ix-6)
  9168  3161  dd66fb            	ld	h,(ix-5)
  9169  3164  3601              	ld	(hl),0x01
  9170  3166  dd6efc            	ld	l,(ix-4)
  9171  3169  dd66fd            	ld	h,(ix-3)
  9172  316c  3600              	ld	(hl),0x00
  9173                          l_doCollision_00113:
  9174  316e  dd7ef3            	ld	a,(ix-13)
  9175  3171  c604              	add	a,0x04
  9176  3173  dd77fc            	ld	(ix-4),a
  9177  3176  dd7ef4            	ld	a,(ix-12)
  9178  3179  ce00              	adc	a,0x00
  9179  317b  dd77fd            	ld	(ix-3),a
  9180  317e  dd6efc            	ld	l,(ix-4)
  9181  3181  dd66fd            	ld	h,(ix-3)
  9182  3184  3606              	ld	(hl),0x06
  9183  3186  dd7ef3            	ld	a,(ix-13)
  9184  3189  c605              	add	a,0x05
  9185  318b  dd77fc            	ld	(ix-4),a
  9186  318e  dd7ef4            	ld	a,(ix-12)
  9187  3191  ce00              	adc	a,0x00
  9188  3193  dd77fd            	ld	(ix-3),a
  9189  3196  dd6efc            	ld	l,(ix-4)
  9190  3199  dd66fd            	ld	h,(ix-3)
  9191  319c  3606              	ld	(hl),0x06
  9192  319e  e1                	pop	hl
  9193  319f  e5                	push	hl
  9194  31a0  110400            	ld	de,0x0004
  9195  31a3  19                	add	hl, de
  9196  31a4  3606              	ld	(hl),0x06
  9197  31a6  e1                	pop	hl
  9198  31a7  e5                	push	hl
  9199  31a8  110500            	ld	de,0x0005
  9200  31ab  19                	add	hl, de
  9201  31ac  3606              	ld	(hl),0x06
  9202  31ae  1806              	jr	l_doCollision_00120
  9203                          l_doCollision_00119:
  9204  31b0  dd34ff            	inc	(ix-1)
  9205  31b3  c30f30            	jp	l_doCollision_00159
  9206                          l_doCollision_00120:
  9207  31b6  dd36f900          	ld	(ix-7),0x00
  9208  31ba  dd36ff00          	ld	(ix-1),0x00
  9209                          l_doCollision_00161:
  9210  31be  dd7eff            	ld	a,(ix-1)
  9211  31c1  d606              	sub	a,0x06
  9212  31c3  d21d34            	jp	NC, l_doCollision_00138
  9213  31c6  dd4efe            	ld	c,(ix-2)
  9214  31c9  0600              	ld	b,0x00
  9215  31cb  69                	ld	l, c
  9216  31cc  60                	ld	h, b
  9217  31cd  29                	add	hl, hl
  9218  31ce  29                	add	hl, hl
  9219  31cf  09                	add	hl, bc
  9220  31d0  29                	add	hl, hl
  9221  31d1  09                	add	hl, bc
  9222  31d2  11da16            	ld	de,__player
  9223  31d5  19                	add	hl, de
  9224  31d6  dd75fa            	ld	(ix-6),l
  9225  31d9  dd74fb            	ld	(ix-5),h
  9226  31dc  dd6efa            	ld	l,(ix-6)
  9227  31df  dd66fb            	ld	h,(ix-5)
  9228  31e2  4e                	ld	c, (hl)
  9229  31e3  dd5eff            	ld	e,(ix-1)
  9230  31e6  1600              	ld	d,0x00
  9231  31e8  eb                	ex	de, hl
  9232  31e9  29                	add	hl, hl
  9233  31ea  29                	add	hl, hl
  9234  31eb  29                	add	hl, hl
  9235  31ec  eb                	ex	de, hl
  9236  31ed  fd210617          	ld	iy,__rock
  9237  31f1  fd19              	add	iy, de
  9238  31f3  fd5e00            	ld	e,(iy+0)
  9239  31f6  7b                	ld	a, e
  9240  31f7  2600              	ld	h,0x00
  9241  31f9  c610              	add	a,0x10
  9242  31fb  6f                	ld	l, a
  9243  31fc  3001              	jr	NC,l_doCollision_00359
  9244  31fe  24                	inc	h
  9245                          l_doCollision_00359:
  9246  31ff  0600              	ld	b,0x00
  9247  3201  79                	ld	a, c
  9248  3202  95                	sub	a, l
  9249  3203  78                	ld	a, b
  9250  3204  9c                	sbc	a, h
  9251  3205  e20a32            	jp	PO, l_doCollision_00360
  9252  3208  ee80              	xor	a,0x80
  9253                          l_doCollision_00360:
  9254  320a  f21134            	jp	P, l_doCollision_00162
  9255  320d  7b                	ld	a, e
  9256  320e  dd96f5            	sub	a,(ix-11)
  9257  3211  d21134            	jp	NC, l_doCollision_00162
  9258  3214  dd7efa            	ld	a,(ix-6)
  9259  3217  c601              	add	a,0x01
  9260  3219  dd77fc            	ld	(ix-4),a
  9261  321c  dd7efb            	ld	a,(ix-5)
  9262  321f  ce00              	adc	a,0x00
  9263  3221  dd77fd            	ld	(ix-3),a
  9264  3224  dd6efc            	ld	l,(ix-4)
  9265  3227  dd66fd            	ld	h,(ix-3)
  9266  322a  4e                	ld	c, (hl)
  9267  322b  fde5              	push	iy
  9268  322d  e1                	pop	hl
  9269  322e  23                	inc	hl
  9270  322f  5e                	ld	e, (hl)
  9271  3230  7b                	ld	a, e
  9272  3231  2600              	ld	h,0x00
  9273  3233  c610              	add	a,0x10
  9274  3235  6f                	ld	l, a
  9275  3236  3001              	jr	NC,l_doCollision_00361
  9276  3238  24                	inc	h
  9277                          l_doCollision_00361:
  9278  3239  0600              	ld	b,0x00
  9279  323b  79                	ld	a, c
  9280  323c  95                	sub	a, l
  9281  323d  78                	ld	a, b
  9282  323e  9c                	sbc	a, h
  9283  323f  e24432            	jp	PO, l_doCollision_00362
  9284  3242  ee80              	xor	a,0x80
  9285                          l_doCollision_00362:
  9286  3244  f21134            	jp	P, l_doCollision_00162
  9287  3247  7b                	ld	a, e
  9288  3248  dd96f6            	sub	a,(ix-10)
  9289  324b  d21134            	jp	NC, l_doCollision_00162
  9290  324e  3ad216            	ld	a, (__isGamePlaying+0)
  9291  3251  b7                	or	a, a
  9292  3252  280e              	jr	Z,l_doCollision_00122
  9293  3254  211e00            	ld	hl,0x001e
  9294  3257  e5                	push	hl
  9295  3258  af                	xor	a, a
  9296  3259  57                	ld	d,a
  9297  325a  1e01              	ld	e,0x01
  9298  325c  d5                	push	de
  9299  325d  cdd803            	call	_playNoteDelay
  9300  3260  f1                	pop	af
  9301  3261  f1                	pop	af
  9302                          l_doCollision_00122:
  9303  3262  dd5ef9            	ld	e,(ix-7)
  9304  3265  1600              	ld	d,0x00
  9305  3267  eb                	ex	de, hl
  9306  3268  29                	add	hl, hl
  9307  3269  29                	add	hl, hl
  9308  326a  29                	add	hl, hl
  9309  326b  110617            	ld	de,__rock
  9310  326e  19                	add	hl, de
  9311  326f  dd75f5            	ld	(ix-11),l
  9312  3272  dd74f6            	ld	(ix-10),h
  9313  3275  dd6ef5            	ld	l,(ix-11)
  9314  3278  dd66f6            	ld	h,(ix-10)
  9315  327b  4e                	ld	c, (hl)
  9316  327c  0600              	ld	b,0x00
  9317  327e  210800            	ld	hl,0x0008
  9318  3281  09                	add	hl, bc
  9319  3282  dd4ef7            	ld	c,(ix-9)
  9320  3285  0600              	ld	b,0x00
  9321  3287  dd7efa            	ld	a,(ix-6)
  9322  328a  c602              	add	a,0x02
  9323  328c  dd77f3            	ld	(ix-13),a
  9324  328f  dd7efb            	ld	a,(ix-5)
  9325  3292  ce00              	adc	a,0x00
  9326  3294  dd77f4            	ld	(ix-12),a
  9327  3297  dd5ef5            	ld	e,(ix-11)
  9328  329a  dd56f6            	ld	d,(ix-10)
  9329  329d  13                	inc	de
  9330  329e  13                	inc	de
  9331  329f  79                	ld	a, c
  9332  32a0  95                	sub	a, l
  9333  32a1  78                	ld	a, b
  9334  32a2  9c                	sbc	a, h
  9335  32a3  e2a832            	jp	PO, l_doCollision_00363
  9336  32a6  ee80              	xor	a,0x80
  9337                          l_doCollision_00363:
  9338  32a8  f2b632            	jp	P, l_doCollision_00124
  9339  32ab  c1                	pop	bc
  9340  32ac  e1                	pop	hl
  9341  32ad  e5                	push	hl
  9342  32ae  c5                	push	bc
  9343  32af  3600              	ld	(hl),0x00
  9344  32b1  3e01              	ld	a,0x01
  9345  32b3  12                	ld	(de), a
  9346  32b4  1808              	jr	l_doCollision_00125
  9347                          l_doCollision_00124:
  9348  32b6  c1                	pop	bc
  9349  32b7  e1                	pop	hl
  9350  32b8  e5                	push	hl
  9351  32b9  c5                	push	bc
  9352  32ba  3601              	ld	(hl),0x01
  9353  32bc  af                	xor	a, a
  9354  32bd  12                	ld	(de), a
  9355                          l_doCollision_00125:
  9356  32be  dd6ef5            	ld	l,(ix-11)
  9357  32c1  dd66f6            	ld	h,(ix-10)
  9358  32c4  23                	inc	hl
  9359  32c5  4e                	ld	c, (hl)
  9360  32c6  0600              	ld	b,0x00
  9361  32c8  210800            	ld	hl,0x0008
  9362  32cb  09                	add	hl, bc
  9363  32cc  dd4ef8            	ld	c,(ix-8)
  9364  32cf  0600              	ld	b,0x00
  9365  32d1  dd7efa            	ld	a,(ix-6)
  9366  32d4  c603              	add	a,0x03
  9367  32d6  dd77f1            	ld	(ix-15),a
  9368  32d9  dd7efb            	ld	a,(ix-5)
  9369  32dc  ce00              	adc	a,0x00
  9370  32de  dd77f2            	ld	(ix-14),a
  9371  32e1  dd5ef5            	ld	e,(ix-11)
  9372  32e4  dd56f6            	ld	d,(ix-10)
  9373  32e7  13                	inc	de
  9374  32e8  13                	inc	de
  9375  32e9  13                	inc	de
  9376  32ea  79                	ld	a, c
  9377  32eb  95                	sub	a, l
  9378  32ec  78                	ld	a, b
  9379  32ed  9c                	sbc	a, h
  9380  32ee  e2f332            	jp	PO, l_doCollision_00364
  9381  32f1  ee80              	xor	a,0x80
  9382                          l_doCollision_00364:
  9383  32f3  f2ff32            	jp	P, l_doCollision_00127
  9384  32f6  e1                	pop	hl
  9385  32f7  e5                	push	hl
  9386  32f8  3600              	ld	(hl),0x00
  9387  32fa  3e01              	ld	a,0x01
  9388  32fc  12                	ld	(de), a
  9389  32fd  1806              	jr	l_doCollision_00128
  9390                          l_doCollision_00127:
  9391  32ff  e1                	pop	hl
  9392  3300  e5                	push	hl
  9393  3301  3601              	ld	(hl),0x01
  9394  3303  af                	xor	a, a
  9395  3304  12                	ld	(de), a
  9396                          l_doCollision_00128:
  9397  3305  dd6efa            	ld	l,(ix-6)
  9398  3308  dd66fb            	ld	h,(ix-5)
  9399  330b  110700            	ld	de,0x0007
  9400  330e  19                	add	hl, de
  9401  330f  7e                	ld	a, (hl)
  9402  3310  3d                	dec	a
  9403  3311  77                	ld	(hl), a
  9404  3312  e5                	push	hl
  9405  3313  dd7efe            	ld	a,(ix-2)
  9406  3316  f5                	push	af
  9407  3317  33                	inc	sp
  9408  3318  cddf27            	call	_updateLives
  9409  331b  33                	inc	sp
  9410  331c  e1                	pop	hl
  9411  331d  7e                	ld	a, (hl)
  9412  331e  dd77ff            	ld	(ix-1),a
  9413  3321  dd7efa            	ld	a,(ix-6)
  9414  3324  c60a              	add	a,0x0a
  9415  3326  dd77f8            	ld	(ix-8),a
  9416  3329  dd7efb            	ld	a,(ix-5)
  9417  332c  ce00              	adc	a,0x00
  9418  332e  dd77f9            	ld	(ix-7),a
  9419  3331  dd7eff            	ld	a,(ix-1)
  9420  3334  b7                	or	a, a
  9421  3335  2013              	jr	NZ,l_doCollision_00130
  9422  3337  dd7efe            	ld	a,(ix-2)
  9423  333a  f5                	push	af
  9424  333b  33                	inc	sp
  9425  333c  cd9010            	call	_vdp_disableSprite
  9426  333f  33                	inc	sp
  9427  3340  dd6ef8            	ld	l,(ix-8)
  9428  3343  dd66f9            	ld	h,(ix-7)
  9429  3346  3600              	ld	(hl),0x00
  9430  3348  1845              	jr	l_doCollision_00131
  9431                          l_doCollision_00130:
  9432  334a  dd6efa            	ld	l,(ix-6)
  9433  334d  dd66fb            	ld	h,(ix-5)
  9434  3350  3601              	ld	(hl),0x01
  9435  3352  cd0000            	call	_rand
  9436  3355  11b000            	ld	de,0x00b0
  9437  3358  d5                	push	de
  9438  3359  e5                	push	hl
  9439  335a  cd0000            	call	__modsint_callee
  9440  335d  7d                	ld	a, l
  9441  335e  dd6efc            	ld	l,(ix-4)
  9442  3361  dd66fd            	ld	h,(ix-3)
  9443  3364  77                	ld	(hl), a
  9444  3365  dd6efa            	ld	l,(ix-6)
  9445  3368  dd66fb            	ld	h,(ix-5)
  9446  336b  110400            	ld	de,0x0004
  9447  336e  19                	add	hl, de
  9448  336f  3600              	ld	(hl),0x00
  9449  3371  dd6efa            	ld	l,(ix-6)
  9450  3374  dd66fb            	ld	h,(ix-5)
  9451  3377  110500            	ld	de,0x0005
  9452  337a  19                	add	hl, de
  9453  337b  3600              	ld	(hl),0x00
  9454  337d  c1                	pop	bc
  9455  337e  e1                	pop	hl
  9456  337f  e5                	push	hl
  9457  3380  c5                	push	bc
  9458  3381  3601              	ld	(hl),0x01
  9459  3383  e1                	pop	hl
  9460  3384  e5                	push	hl
  9461  3385  3601              	ld	(hl),0x01
  9462  3387  dd6ef8            	ld	l,(ix-8)
  9463  338a  dd66f9            	ld	h,(ix-7)
  9464  338d  3601              	ld	(hl),0x01
  9465                          l_doCollision_00131:
  9466  338f  dd7ef5            	ld	a,(ix-11)
  9467  3392  c604              	add	a,0x04
  9468  3394  dd77fc            	ld	(ix-4),a
  9469  3397  dd7ef6            	ld	a,(ix-10)
  9470  339a  ce00              	adc	a,0x00
  9471  339c  dd77fd            	ld	(ix-3),a
  9472  339f  cd0000            	call	_rand
  9473  33a2  dd75fa            	ld	(ix-6),l
  9474  33a5  dd74fb            	ld	(ix-5),h
  9475  33a8  210500            	ld	hl,0x0005
  9476  33ab  e5                	push	hl
  9477  33ac  dd6efa            	ld	l,(ix-6)
  9478  33af  dd66fb            	ld	h,(ix-5)
  9479  33b2  e5                	push	hl
  9480  33b3  cd0000            	call	__modsint_callee
  9481  33b6  dd75fa            	ld	(ix-6),l
  9482  33b9  dd74fb            	ld	(ix-5),h
  9483  33bc  dd7efa            	ld	a,(ix-6)
  9484  33bf  dd77ff            	ld	(ix-1),a
  9485  33c2  dd34ff            	inc	(ix-1)
  9486  33c5  dd6efc            	ld	l,(ix-4)
  9487  33c8  dd66fd            	ld	h,(ix-3)
  9488  33cb  dd7eff            	ld	a,(ix-1)
  9489  33ce  77                	ld	(hl), a
  9490  33cf  dd7ef5            	ld	a,(ix-11)
  9491  33d2  c605              	add	a,0x05
  9492  33d4  dd77fc            	ld	(ix-4),a
  9493  33d7  dd7ef6            	ld	a,(ix-10)
  9494  33da  ce00              	adc	a,0x00
  9495  33dc  dd77fd            	ld	(ix-3),a
  9496  33df  cd0000            	call	_rand
  9497  33e2  dd75fa            	ld	(ix-6),l
  9498  33e5  dd74fb            	ld	(ix-5),h
  9499  33e8  210500            	ld	hl,0x0005
  9500  33eb  e5                	push	hl
  9501  33ec  dd6efa            	ld	l,(ix-6)
  9502  33ef  dd66fb            	ld	h,(ix-5)
  9503  33f2  e5                	push	hl
  9504  33f3  cd0000            	call	__modsint_callee
  9505  33f6  dd75fa            	ld	(ix-6),l
  9506  33f9  dd74fb            	ld	(ix-5),h
  9507  33fc  dd7efa            	ld	a,(ix-6)
  9508  33ff  dd77ff            	ld	(ix-1),a
  9509  3402  dd34ff            	inc	(ix-1)
  9510  3405  dd6efc            	ld	l,(ix-4)
  9511  3408  dd66fd            	ld	h,(ix-3)
  9512  340b  dd7eff            	ld	a,(ix-1)
  9513  340e  77                	ld	(hl), a
  9514  340f  180c              	jr	l_doCollision_00138
  9515                          l_doCollision_00162:
  9516  3411  dd34ff            	inc	(ix-1)
  9517  3414  dd7eff            	ld	a,(ix-1)
  9518  3417  dd77f9            	ld	(ix-7),a
  9519  341a  c3be31            	jp	l_doCollision_00161
  9520                          l_doCollision_00138:
  9521  341d  dd34fe            	inc	(ix-2)
  9522  3420  c3b72f            	jp	l_doCollision_00164
  9523                          l_doCollision_00139:
  9524  3423  dd36fe00          	ld	(ix-2),0x00
  9525                          l_doCollision_00168:
  9526  3427  dd7efe            	ld	a,(ix-2)
  9527  342a  d606              	sub	a,0x06
  9528  342c  d2f435            	jp	NC, l_doCollision_00170
  9529  342f  dd6efe            	ld	l,(ix-2)
  9530  3432  2600              	ld	h,0x00
  9531  3434  29                	add	hl, hl
  9532  3435  29                	add	hl, hl
  9533  3436  29                	add	hl, hl
  9534  3437  110617            	ld	de,__rock
  9535  343a  19                	add	hl, de
  9536  343b  46                	ld	b, (hl)
  9537  343c  78                	ld	a, b
  9538  343d  c610              	add	a,0x10
  9539  343f  dd77f4            	ld	(ix-12),a
  9540  3442  23                	inc	hl
  9541  3443  4e                	ld	c, (hl)
  9542  3444  79                	ld	a, c
  9543  3445  c610              	add	a,0x10
  9544  3447  dd77f5            	ld	(ix-11),a
  9545  344a  78                	ld	a, b
  9546  344b  c608              	add	a,0x08
  9547  344d  dd77f6            	ld	(ix-10),a
  9548  3450  79                	ld	a, c
  9549  3451  c608              	add	a,0x08
  9550  3453  dd77f7            	ld	(ix-9),a
  9551  3456  dd36ff00          	ld	(ix-1),0x00
  9552                          l_doCollision_00166:
  9553  345a  dd7eff            	ld	a,(ix-1)
  9554  345d  d606              	sub	a,0x06
  9555  345f  d2ee35            	jp	NC, l_doCollision_00169
  9556  3462  dd7efe            	ld	a,(ix-2)
  9557  3465  dd96ff            	sub	a,(ix-1)
  9558  3468  cae835            	jp	Z,l_doCollision_00155
  9559  346b  dd6efe            	ld	l,(ix-2)
  9560  346e  2600              	ld	h,0x00
  9561  3470  29                	add	hl, hl
  9562  3471  29                	add	hl, hl
  9563  3472  29                	add	hl, hl
  9564  3473  7d                	ld	a, l
  9565  3474  c606              	add	a, +((__rock) & 0xFF)
  9566  3476  dd77f8            	ld	(ix-8),a
  9567  3479  7c                	ld	a, h
  9568  347a  ce17              	adc	a, +((__rock) / 256)
  9569  347c  dd77f9            	ld	(ix-7),a
  9570  347f  dd6ef8            	ld	l,(ix-8)
  9571  3482  dd66f9            	ld	h,(ix-7)
  9572  3485  4e                	ld	c, (hl)
  9573  3486  dd6eff            	ld	l,(ix-1)
  9574  3489  2600              	ld	h,0x00
  9575  348b  29                	add	hl, hl
  9576  348c  29                	add	hl, hl
  9577  348d  29                	add	hl, hl
  9578  348e  7d                	ld	a, l
  9579  348f  c606              	add	a, +((__rock) & 0xFF)
  9580  3491  dd77fa            	ld	(ix-6),a
  9581  3494  7c                	ld	a, h
  9582  3495  ce17              	adc	a, +((__rock) / 256)
  9583  3497  dd77fb            	ld	(ix-5),a
  9584  349a  dd6efa            	ld	l,(ix-6)
  9585  349d  dd66fb            	ld	h,(ix-5)
  9586  34a0  46                	ld	b, (hl)
  9587  34a1  58                	ld	e, b
  9588  34a2  1600              	ld	d,0x00
  9589  34a4  211000            	ld	hl,0x0010
  9590  34a7  19                	add	hl, de
  9591  34a8  1e00              	ld	e,0x00
  9592  34aa  79                	ld	a, c
  9593  34ab  95                	sub	a, l
  9594  34ac  7b                	ld	a, e
  9595  34ad  9c                	sbc	a, h
  9596  34ae  e2b334            	jp	PO, l_doCollision_00366
  9597  34b1  ee80              	xor	a,0x80
  9598                          l_doCollision_00366:
  9599  34b3  f2e835            	jp	P, l_doCollision_00155
  9600  34b6  78                	ld	a, b
  9601  34b7  dd96f4            	sub	a,(ix-12)
  9602  34ba  d2e835            	jp	NC, l_doCollision_00155
  9603  34bd  dd6ef8            	ld	l,(ix-8)
  9604  34c0  dd66f9            	ld	h,(ix-7)
  9605  34c3  23                	inc	hl
  9606  34c4  4e                	ld	c, (hl)
  9607  34c5  dd7efa            	ld	a,(ix-6)
  9608  34c8  c601              	add	a,0x01
  9609  34ca  dd77fc            	ld	(ix-4),a
  9610  34cd  dd7efb            	ld	a,(ix-5)
  9611  34d0  ce00              	adc	a,0x00
  9612  34d2  dd77fd            	ld	(ix-3),a
  9613  34d5  dd6efc            	ld	l,(ix-4)
  9614  34d8  dd66fd            	ld	h,(ix-3)
  9615  34db  46                	ld	b, (hl)
  9616  34dc  58                	ld	e, b
  9617  34dd  1600              	ld	d,0x00
  9618  34df  211000            	ld	hl,0x0010
  9619  34e2  19                	add	hl, de
  9620  34e3  1e00              	ld	e,0x00
  9621  34e5  79                	ld	a, c
  9622  34e6  95                	sub	a, l
  9623  34e7  7b                	ld	a, e
  9624  34e8  9c                	sbc	a, h
  9625  34e9  e2ee34            	jp	PO, l_doCollision_00367
  9626  34ec  ee80              	xor	a,0x80
  9627                          l_doCollision_00367:
  9628  34ee  f2e835            	jp	P, l_doCollision_00155
  9629  34f1  78                	ld	a, b
  9630  34f2  dd96f5            	sub	a,(ix-11)
  9631  34f5  d2e835            	jp	NC, l_doCollision_00155
  9632  34f8  3ad216            	ld	a, (__isGamePlaying+0)
  9633  34fb  b7                	or	a, a
  9634  34fc  280d              	jr	Z,l_doCollision_00143
  9635  34fe  210a00            	ld	hl,0x000a
  9636  3501  e5                	push	hl
  9637  3502  11020c            	ld	de,0x0c02
  9638  3505  d5                	push	de
  9639  3506  cdd803            	call	_playNoteDelay
  9640  3509  f1                	pop	af
  9641  350a  f1                	pop	af
  9642                          l_doCollision_00143:
  9643  350b  dd6efa            	ld	l,(ix-6)
  9644  350e  dd66fb            	ld	h,(ix-5)
  9645  3511  4e                	ld	c, (hl)
  9646  3512  0600              	ld	b,0x00
  9647  3514  210800            	ld	hl,0x0008
  9648  3517  09                	add	hl, bc
  9649  3518  dd4ef6            	ld	c,(ix-10)
  9650  351b  0600              	ld	b,0x00
  9651  351d  dd7ef8            	ld	a,(ix-8)
  9652  3520  c602              	add	a,0x02
  9653  3522  dd77f3            	ld	(ix-13),a
  9654  3525  dd7ef9            	ld	a,(ix-7)
  9655  3528  ce00              	adc	a,0x00
  9656  352a  dd77f4            	ld	(ix-12),a
  9657  352d  dd7efa            	ld	a,(ix-6)
  9658  3530  c602              	add	a,0x02
  9659  3532  dd77f5            	ld	(ix-11),a
  9660  3535  dd7efb            	ld	a,(ix-5)
  9661  3538  ce00              	adc	a,0x00
  9662  353a  dd77f6            	ld	(ix-10),a
  9663  353d  79                	ld	a, c
  9664  353e  95                	sub	a, l
  9665  353f  78                	ld	a, b
  9666  3540  9c                	sbc	a, h
  9667  3541  e24635            	jp	PO, l_doCollision_00368
  9668  3544  ee80              	xor	a,0x80
  9669                          l_doCollision_00368:
  9670  3546  f25935            	jp	P, l_doCollision_00145
  9671  3549  c1                	pop	bc
  9672  354a  e1                	pop	hl
  9673  354b  e5                	push	hl
  9674  354c  c5                	push	bc
  9675  354d  3600              	ld	(hl),0x00
  9676  354f  dd6ef5            	ld	l,(ix-11)
  9677  3552  dd66f6            	ld	h,(ix-10)
  9678  3555  3601              	ld	(hl),0x01
  9679  3557  180e              	jr	l_doCollision_00146
  9680                          l_doCollision_00145:
  9681  3559  c1                	pop	bc
  9682  355a  e1                	pop	hl
  9683  355b  e5                	push	hl
  9684  355c  c5                	push	bc
  9685  355d  3601              	ld	(hl),0x01
  9686  355f  dd6ef5            	ld	l,(ix-11)
  9687  3562  dd66f6            	ld	h,(ix-10)
  9688  3565  3600              	ld	(hl),0x00
  9689                          l_doCollision_00146:
  9690  3567  dd6efc            	ld	l,(ix-4)
  9691  356a  dd66fd            	ld	h,(ix-3)
  9692  356d  4e                	ld	c, (hl)
  9693  356e  0600              	ld	b,0x00
  9694  3570  210800            	ld	hl,0x0008
  9695  3573  09                	add	hl, bc
  9696  3574  dd7ef7            	ld	a,(ix-9)
  9697  3577  dd77fc            	ld	(ix-4),a
  9698  357a  dd36fd00          	ld	(ix-3),0x00
  9699  357e  dd4ef8            	ld	c,(ix-8)
  9700  3581  dd46f9            	ld	b,(ix-7)
  9701  3584  03                	inc	bc
  9702  3585  03                	inc	bc
  9703  3586  03                	inc	bc
  9704  3587  dd5efa            	ld	e,(ix-6)
  9705  358a  dd56fb            	ld	d,(ix-5)
  9706  358d  13                	inc	de
  9707  358e  13                	inc	de
  9708  358f  13                	inc	de
  9709  3590  dd7efc            	ld	a,(ix-4)
  9710  3593  95                	sub	a, l
  9711  3594  dd7efd            	ld	a,(ix-3)
  9712  3597  9c                	sbc	a, h
  9713  3598  e29d35            	jp	PO, l_doCollision_00369
  9714  359b  ee80              	xor	a,0x80
  9715                          l_doCollision_00369:
  9716  359d  f2a735            	jp	P, l_doCollision_00148
  9717  35a0  af                	xor	a, a
  9718  35a1  02                	ld	(bc), a
  9719  35a2  3e01              	ld	a,0x01
  9720  35a4  12                	ld	(de), a
  9721  35a5  1805              	jr	l_doCollision_00149
  9722                          l_doCollision_00148:
  9723  35a7  3e01              	ld	a,0x01
  9724  35a9  02                	ld	(bc), a
  9725  35aa  af                	xor	a, a
  9726  35ab  12                	ld	(de), a
  9727                          l_doCollision_00149:
  9728  35ac  dd7ef8            	ld	a,(ix-8)
  9729  35af  c604              	add	a,0x04
  9730  35b1  4f                	ld	c, a
  9731  35b2  dd7ef9            	ld	a,(ix-7)
  9732  35b5  ce00              	adc	a,0x00
  9733  35b7  47                	ld	b, a
  9734  35b8  c5                	push	bc
  9735  35b9  cd0000            	call	_rand
  9736  35bc  111400            	ld	de,0x0014
  9737  35bf  d5                	push	de
  9738  35c0  e5                	push	hl
  9739  35c1  cd0000            	call	__modsint_callee
  9740  35c4  c1                	pop	bc
  9741  35c5  7d                	ld	a, l
  9742  35c6  c604              	add	a,0x04
  9743  35c8  02                	ld	(bc), a
  9744  35c9  dd7ef8            	ld	a,(ix-8)
  9745  35cc  c605              	add	a,0x05
  9746  35ce  4f                	ld	c, a
  9747  35cf  dd7ef9            	ld	a,(ix-7)
  9748  35d2  ce00              	adc	a,0x00
  9749  35d4  47                	ld	b, a
  9750  35d5  c5                	push	bc
  9751  35d6  cd0000            	call	_rand
  9752  35d9  111400            	ld	de,0x0014
  9753  35dc  d5                	push	de
  9754  35dd  e5                	push	hl
  9755  35de  cd0000            	call	__modsint_callee
  9756  35e1  c1                	pop	bc
  9757  35e2  7d                	ld	a, l
  9758  35e3  c604              	add	a,0x04
  9759  35e5  02                	ld	(bc), a
  9760  35e6  1806              	jr	l_doCollision_00169
  9761                          l_doCollision_00155:
  9762  35e8  dd34ff            	inc	(ix-1)
  9763  35eb  c35a34            	jp	l_doCollision_00166
  9764                          l_doCollision_00169:
  9765  35ee  dd34fe            	inc	(ix-2)
  9766  35f1  c32734            	jp	l_doCollision_00168
  9767                          l_doCollision_00170:
  9768  35f4  ddf9              	ld	sp, ix
  9769  35f6  dde1              	pop	ix
  9770  35f8  c9                	ret
  9771                          	SECTION code_compiler
  9772                          ;	---------------------------------
  9773                          ; Function renderRocks
  9774                          ; ---------------------------------
  9775                          _renderRocks:
  9776  35f9  010d17            	ld	bc,__rock + 7
  9777  35fc  0a                	ld	a, (bc)
  9778  35fd  b7                	or	a, a
  9779  35fe  281b              	jr	Z,l_renderRocks_00102
  9780  3600  210717            	ld	hl,__rock + 1
  9781  3603  5e                	ld	e, (hl)
  9782  3604  3a0617            	ld	a, (__rock + 0)
  9783  3607  210c17            	ld	hl,__rock + 6
  9784  360a  56                	ld	d, (hl)
  9785  360b  c5                	push	bc
  9786  360c  63                	ld	h, e
  9787  360d  e5                	push	hl
  9788  360e  33                	inc	sp
  9789  360f  f5                	push	af
  9790  3610  33                	inc	sp
  9791  3611  d5                	push	de
  9792  3612  33                	inc	sp
  9793  3613  cd9411            	call	_vdp_setSpritePosition
  9794  3616  f1                	pop	af
  9795  3617  33                	inc	sp
  9796  3618  c1                	pop	bc
  9797  3619  af                	xor	a, a
  9798  361a  02                	ld	(bc), a
  9799                          l_renderRocks_00102:
  9800  361b  011517            	ld	bc,__rock + 15
  9801  361e  0a                	ld	a, (bc)
  9802  361f  b7                	or	a, a
  9803  3620  281b              	jr	Z,l_renderRocks_00104
  9804  3622  210f17            	ld	hl,__rock + 9
  9805  3625  5e                	ld	e, (hl)
  9806  3626  3a0e17            	ld	a, (__rock + 8)
  9807  3629  211417            	ld	hl,__rock + 14
  9808  362c  56                	ld	d, (hl)
  9809  362d  c5                	push	bc
  9810  362e  63                	ld	h, e
  9811  362f  e5                	push	hl
  9812  3630  33                	inc	sp
  9813  3631  f5                	push	af
  9814  3632  33                	inc	sp
  9815  3633  d5                	push	de
  9816  3634  33                	inc	sp
  9817  3635  cd9411            	call	_vdp_setSpritePosition
  9818  3638  f1                	pop	af
  9819  3639  33                	inc	sp
  9820  363a  c1                	pop	bc
  9821  363b  af                	xor	a, a
  9822  363c  02                	ld	(bc), a
  9823                          l_renderRocks_00104:
  9824  363d  011d17            	ld	bc,__rock + 23
  9825  3640  0a                	ld	a, (bc)
  9826  3641  b7                	or	a, a
  9827  3642  281b              	jr	Z,l_renderRocks_00106
  9828  3644  211717            	ld	hl,__rock + 17
  9829  3647  5e                	ld	e, (hl)
  9830  3648  3a1617            	ld	a, (__rock + 16)
  9831  364b  211c17            	ld	hl,__rock + 22
  9832  364e  56                	ld	d, (hl)
  9833  364f  c5                	push	bc
  9834  3650  63                	ld	h, e
  9835  3651  e5                	push	hl
  9836  3652  33                	inc	sp
  9837  3653  f5                	push	af
  9838  3654  33                	inc	sp
  9839  3655  d5                	push	de
  9840  3656  33                	inc	sp
  9841  3657  cd9411            	call	_vdp_setSpritePosition
  9842  365a  f1                	pop	af
  9843  365b  33                	inc	sp
  9844  365c  c1                	pop	bc
  9845  365d  af                	xor	a, a
  9846  365e  02                	ld	(bc), a
  9847                          l_renderRocks_00106:
  9848  365f  012517            	ld	bc,__rock + 31
  9849  3662  0a                	ld	a, (bc)
  9850  3663  b7                	or	a, a
  9851  3664  281b              	jr	Z,l_renderRocks_00108
  9852  3666  211f17            	ld	hl,__rock + 25
  9853  3669  5e                	ld	e, (hl)
  9854  366a  3a1e17            	ld	a, (__rock + 24)
  9855  366d  212417            	ld	hl,__rock + 30
  9856  3670  56                	ld	d, (hl)
  9857  3671  c5                	push	bc
  9858  3672  63                	ld	h, e
  9859  3673  e5                	push	hl
  9860  3674  33                	inc	sp
  9861  3675  f5                	push	af
  9862  3676  33                	inc	sp
  9863  3677  d5                	push	de
  9864  3678  33                	inc	sp
  9865  3679  cd9411            	call	_vdp_setSpritePosition
  9866  367c  f1                	pop	af
  9867  367d  33                	inc	sp
  9868  367e  c1                	pop	bc
  9869  367f  af                	xor	a, a
  9870  3680  02                	ld	(bc), a
  9871                          l_renderRocks_00108:
  9872  3681  012d17            	ld	bc,__rock + 39
  9873  3684  0a                	ld	a, (bc)
  9874  3685  b7                	or	a, a
  9875  3686  281b              	jr	Z,l_renderRocks_00110
  9876  3688  212717            	ld	hl,__rock + 33
  9877  368b  5e                	ld	e, (hl)
  9878  368c  3a2617            	ld	a, (__rock + 32)
  9879  368f  212c17            	ld	hl,__rock + 38
  9880  3692  56                	ld	d, (hl)
  9881  3693  c5                	push	bc
  9882  3694  63                	ld	h, e
  9883  3695  e5                	push	hl
  9884  3696  33                	inc	sp
  9885  3697  f5                	push	af
  9886  3698  33                	inc	sp
  9887  3699  d5                	push	de
  9888  369a  33                	inc	sp
  9889  369b  cd9411            	call	_vdp_setSpritePosition
  9890  369e  f1                	pop	af
  9891  369f  33                	inc	sp
  9892  36a0  c1                	pop	bc
  9893  36a1  af                	xor	a, a
  9894  36a2  02                	ld	(bc), a
  9895                          l_renderRocks_00110:
  9896  36a3  013517            	ld	bc,__rock + 47
  9897  36a6  0a                	ld	a, (bc)
  9898  36a7  b7                	or	a, a
  9899  36a8  c8                	ret	Z
  9900  36a9  212f17            	ld	hl,__rock + 41
  9901  36ac  5e                	ld	e, (hl)
  9902  36ad  3a2e17            	ld	a, (__rock + 40)
  9903  36b0  213417            	ld	hl,__rock + 46
  9904  36b3  56                	ld	d, (hl)
  9905  36b4  c5                	push	bc
  9906  36b5  63                	ld	h, e
  9907  36b6  e5                	push	hl
  9908  36b7  33                	inc	sp
  9909  36b8  f5                	push	af
  9910  36b9  33                	inc	sp
  9911  36ba  d5                	push	de
  9912  36bb  33                	inc	sp
  9913  36bc  cd9411            	call	_vdp_setSpritePosition
  9914  36bf  f1                	pop	af
  9915  36c0  33                	inc	sp
  9916  36c1  c1                	pop	bc
  9917  36c2  af                	xor	a, a
  9918  36c3  02                	ld	(bc), a
  9919  36c4  c9                	ret
  9920                          	SECTION code_compiler
  9921                          ;	---------------------------------
  9922                          ; Function doGameLoop
  9923                          ; ---------------------------------
  9924                          _doGameLoop:
  9925  36c5  21d216            	ld	hl,__isGamePlaying + 0
  9926  36c8  3601              	ld	(hl),0x01
  9927  36ca  3ace16            	ld	a, (_TIME+0)
  9928  36cd  32d116            	ld	(__timeCntr+0), a
  9929  36d0  cd5600            	call	_initNABULIBAudio
  9930  36d3  cdb408            	call	_vdp_waitVDPReadyInt
  9931  36d6  af                	xor	a, a
  9932  36d7  f5                	push	af
  9933  36d8  33                	inc	sp
  9934  36d9  cdec0b            	call	_vdp_fillScreen
  9935  36dc  33                	inc	sp
  9936  36dd  0e00              	ld	c,0x00
  9937                          l_doGameLoop_00131:
  9938  36df  79                	ld	a, c
  9939  36e0  d632              	sub	a,0x32
  9940  36e2  3008              	jr	NC,l_doGameLoop_00101
  9941  36e4  c5                	push	bc
  9942  36e5  cdc028            	call	_doStars
  9943  36e8  c1                	pop	bc
  9944  36e9  0c                	inc	c
  9945  36ea  18f3              	jr	l_doGameLoop_00131
  9946                          l_doGameLoop_00101:
  9947  36ec  cdfe28            	call	_initPlayers
  9948  36ef  3acc16            	ld	a, (_PLAYER_CNT+0)
  9949  36f2  b7                	or	a, a
  9950  36f3  2803              	jr	Z,l_doGameLoop_00158
  9951  36f5  cd3928            	call	_updatePellets
  9952                          l_doGameLoop_00158:
  9953                          l_doGameLoop_00128:
  9954  36f8  cde404            	call	_isKeyPressed
  9955  36fb  7d                	ld	a, l
  9956  36fc  b7                	or	a, a
  9957  36fd  2809              	jr	Z,l_doGameLoop_00105
  9958  36ff  cdf904            	call	_getChar
  9959  3702  7d                	ld	a, l
  9960  3703  d671              	sub	a,0x71
  9961  3705  ca3d38            	jp	Z,l_doGameLoop_00129
  9962                          l_doGameLoop_00105:
  9963  3708  210300            	ld	hl,0x0003
  9964  370b  e5                	push	hl
  9965  370c  2acf16            	ld	hl, (__loopCntr)
  9966  370f  e5                	push	hl
  9967  3710  cd0000            	call	__moduint_callee
  9968  3713  7c                	ld	a, h
  9969  3714  b5                	or	a, l
  9970  3715  200a              	jr	NZ,l_doGameLoop_00148
  9971  3717  3a0f00            	ld	a, (_vdpStatusRegVal+0)
  9972  371a  cb6f              	bit	5, a
  9973  371c  2803              	jr	Z,l_doGameLoop_00148
  9974  371e  cda62f            	call	_doCollision
  9975                          l_doGameLoop_00148:
  9976  3721  0600              	ld	b,0x00
  9977                          l_doGameLoop_00134:
  9978  3723  21cc16            	ld	hl,_PLAYER_CNT
  9979  3726  78                	ld	a, b
  9980  3727  96                	sub	a, (hl)
  9981  3728  300b              	jr	NC,l_doGameLoop_00110
  9982  372a  c5                	push	bc
  9983  372b  c5                	push	bc
  9984  372c  33                	inc	sp
  9985  372d  cd612b            	call	_doPlayer
  9986  3730  33                	inc	sp
  9987  3731  c1                	pop	bc
  9988  3732  04                	inc	b
  9989  3733  18ee              	jr	l_doGameLoop_00134
  9990                          l_doGameLoop_00110:
  9991  3735  0600              	ld	b,0x00
  9992                          l_doGameLoop_00137:
  9993  3737  78                	ld	a, b
  9994  3738  d606              	sub	a,0x06
  9995  373a  300b              	jr	NC,l_doGameLoop_00111
  9996  373c  c5                	push	bc
  9997  373d  c5                	push	bc
  9998  373e  33                	inc	sp
  9999  373f  cd692e            	call	_doRock
 10000  3742  33                	inc	sp
 10001  3743  c1                	pop	bc
 10002  3744  04                	inc	b
 10003  3745  18f0              	jr	l_doGameLoop_00137
 10004                          l_doGameLoop_00111:
 10005  3747  cdb408            	call	_vdp_waitVDPReadyInt
 10006  374a  01e416            	ld	bc,__player + 10
 10007  374d  0a                	ld	a, (bc)
 10008  374e  b7                	or	a, a
 10009  374f  2819              	jr	Z,l_doGameLoop_00113
 10010  3751  3adb16            	ld	a, (__player + 1)
 10011  3754  21da16            	ld	hl,__player + 0
 10012  3757  5e                	ld	e, (hl)
 10013  3758  21e216            	ld	hl,__player + 8
 10014  375b  6e                	ld	l, (hl)
 10015  375c  c5                	push	bc
 10016  375d  57                	ld	d,a
 10017  375e  d5                	push	de
 10018  375f  7d                	ld	a, l
 10019  3760  f5                	push	af
 10020  3761  33                	inc	sp
 10021  3762  cd9411            	call	_vdp_setSpritePosition
 10022  3765  f1                	pop	af
 10023  3766  33                	inc	sp
 10024  3767  c1                	pop	bc
 10025  3768  af                	xor	a, a
 10026  3769  02                	ld	(bc), a
 10027                          l_doGameLoop_00113:
 10028  376a  3aef16            	ld	a, ((__player + 21) + 0)
 10029  376d  b7                	or	a, a
 10030  376e  281c              	jr	Z,l_doGameLoop_00115
 10031  3770  21e616            	ld	hl,__player + 12
 10032  3773  4e                	ld	c, (hl)
 10033  3774  3ae516            	ld	a, (__player + 11)
 10034  3777  21ed16            	ld	hl,__player + 19
 10035  377a  46                	ld	b, (hl)
 10036  377b  61                	ld	h, c
 10037  377c  e5                	push	hl
 10038  377d  33                	inc	sp
 10039  377e  f5                	push	af
 10040  377f  33                	inc	sp
 10041  3780  c5                	push	bc
 10042  3781  33                	inc	sp
 10043  3782  cd9411            	call	_vdp_setSpritePosition
 10044  3785  f1                	pop	af
 10045  3786  33                	inc	sp
 10046  3787  21ef16            	ld	hl, +(__player + 21)
 10047  378a  3600              	ld	(hl),0x00
 10048                          l_doGameLoop_00115:
 10049  378c  3afa16            	ld	a, ((__player + 32) + 0)
 10050  378f  b7                	or	a, a
 10051  3790  281c              	jr	Z,l_doGameLoop_00117
 10052  3792  21f116            	ld	hl,__player + 23
 10053  3795  4e                	ld	c, (hl)
 10054  3796  3af016            	ld	a, (__player + 22)
 10055  3799  21f816            	ld	hl,__player + 30
 10056  379c  46                	ld	b, (hl)
 10057  379d  61                	ld	h, c
 10058  379e  e5                	push	hl
 10059  379f  33                	inc	sp
 10060  37a0  f5                	push	af
 10061  37a1  33                	inc	sp
 10062  37a2  c5                	push	bc
 10063  37a3  33                	inc	sp
 10064  37a4  cd9411            	call	_vdp_setSpritePosition
 10065  37a7  f1                	pop	af
 10066  37a8  33                	inc	sp
 10067  37a9  21fa16            	ld	hl, +(__player + 32)
 10068  37ac  3600              	ld	(hl),0x00
 10069                          l_doGameLoop_00117:
 10070  37ae  3a0517            	ld	a, ((__player + 43) + 0)
 10071  37b1  b7                	or	a, a
 10072  37b2  281c              	jr	Z,l_doGameLoop_00119
 10073  37b4  21fc16            	ld	hl,__player + 34
 10074  37b7  4e                	ld	c, (hl)
 10075  37b8  3afb16            	ld	a, (__player + 33)
 10076  37bb  210317            	ld	hl,__player + 41
 10077  37be  46                	ld	b, (hl)
 10078  37bf  61                	ld	h, c
 10079  37c0  e5                	push	hl
 10080  37c1  33                	inc	sp
 10081  37c2  f5                	push	af
 10082  37c3  33                	inc	sp
 10083  37c4  c5                	push	bc
 10084  37c5  33                	inc	sp
 10085  37c6  cd9411            	call	_vdp_setSpritePosition
 10086  37c9  f1                	pop	af
 10087  37ca  33                	inc	sp
 10088  37cb  210517            	ld	hl, +(__player + 43)
 10089  37ce  3600              	ld	(hl),0x00
 10090                          l_doGameLoop_00119:
 10091  37d0  cdf935            	call	_renderRocks
 10092  37d3  3acc16            	ld	a, (_PLAYER_CNT+0)
 10093  37d6  b7                	or	a, a
 10094  37d7  285a              	jr	Z,l_doGameLoop_00125
 10095  37d9  213c00            	ld	hl,0x003c
 10096  37dc  e5                	push	hl
 10097  37dd  2acf16            	ld	hl, (__loopCntr)
 10098  37e0  e5                	push	hl
 10099  37e1  cd0000            	call	__moduint_callee
 10100  37e4  7c                	ld	a, h
 10101  37e5  b5                	or	a, l
 10102  37e6  204b              	jr	NZ,l_doGameLoop_00125
 10103  37e8  cdc028            	call	_doStars
 10104  37eb  21d116            	ld	hl,__timeCntr+0
 10105  37ee  35                	dec	(hl)
 10106  37ef  3ad116            	ld	a, (__timeCntr+0)
 10107  37f2  0600              	ld	b,0x00
 10108  37f4  4f                	ld	c, a
 10109  37f5  c5                	push	bc
 10110  37f6  210001            	ld	hl,___str_28
 10111  37f9  e5                	push	hl
 10112  37fa  215706            	ld	hl,_tb
 10113  37fd  e5                	push	hl
 10114  37fe  cd0000            	call	_sprintf
 10115  3801  210600            	ld	hl,6
 10116  3804  39                	add	hl, sp
 10117  3805  f9                	ld	sp, hl
 10118  3806  af                	xor	a, a
 10119  3807  57                	ld	d,a
 10120  3808  1e1c              	ld	e,0x1c
 10121  380a  d5                	push	de
 10122  380b  cde612            	call	_vdp_setCursor2
 10123  380e  215706            	ld	hl,_tb
 10124  3811  e3                	ex	(sp),hl
 10125  3812  cd2a12            	call	_vdp_print
 10126  3815  f1                	pop	af
 10127  3816  3ad116            	ld	a, (__timeCntr+0)
 10128  3819  d605              	sub	a,0x05
 10129  381b  3010              	jr	NC,l_doGameLoop_00121
 10130  381d  210a00            	ld	hl,0x000a
 10131  3820  e5                	push	hl
 10132  3821  3e3c              	ld	a,0x3c
 10133  3823  f5                	push	af
 10134  3824  33                	inc	sp
 10135  3825  af                	xor	a, a
 10136  3826  f5                	push	af
 10137  3827  33                	inc	sp
 10138  3828  cdd803            	call	_playNoteDelay
 10139  382b  f1                	pop	af
 10140  382c  f1                	pop	af
 10141                          l_doGameLoop_00121:
 10142  382d  3ad116            	ld	a, (__timeCntr+0)
 10143  3830  b7                	or	a, a
 10144  3831  280a              	jr	Z,l_doGameLoop_00129
 10145                          l_doGameLoop_00125:
 10146  3833  2acf16            	ld	hl, (__loopCntr)
 10147  3836  23                	inc	hl
 10148  3837  22cf16            	ld	(__loopCntr), hl
 10149  383a  c3f836            	jp	l_doGameLoop_00128
 10150                          l_doGameLoop_00129:
 10151  383d  21d216            	ld	hl,__isGamePlaying + 0
 10152  3840  3600              	ld	(hl),0x00
 10153  3842  c9                	ret
 10154                          	SECTION rodata_compiler
 10155                          ___str_28:
 10156  0100  25203375          	DEFM "% 3u"
 10157  0104  00                	DEFB 0x00
 10158                          	SECTION code_compiler
 10159                          ;	---------------------------------
 10160                          ; Function loadImage
 10161                          ; ---------------------------------
 10162                          _loadImage:
 10163  3843  dde5              	push	ix
 10164  3845  dd210000          	ld	ix,0
 10165  3849  dd39              	add	ix,sp
 10166  384b  3eff              	ld	a,0xff
 10167  384d  f5                	push	af
 10168  384e  33                	inc	sp
 10169  384f  210000            	ld	hl,0x0000
 10170  3852  e5                	push	hl
 10171  3853  dd6e05            	ld	l,(ix+5)
 10172  3856  dd6606            	ld	h,(ix+6)
 10173  3859  e5                	push	hl
 10174  385a  dd7e04            	ld	a,(ix+4)
 10175  385d  f5                	push	af
 10176  385e  33                	inc	sp
 10177  385f  cdc11a            	call	_rn_fileOpen
 10178  3862  f1                	pop	af
 10179  3863  f1                	pop	af
 10180  3864  f1                	pop	af
 10181  3865  45                	ld	b, l
 10182  3866  c5                	push	bc
 10183  3867  3e01              	ld	a,0x01
 10184  3869  f5                	push	af
 10185  386a  33                	inc	sp
 10186  386b  210000            	ld	hl,0x0000
 10187  386e  e5                	push	hl
 10188  386f  2e07              	ld	l,0x07
 10189  3871  e5                	push	hl
 10190  3872  c5                	push	bc
 10191  3873  33                	inc	sp
 10192  3874  cd9323            	call	_rn_fileHandleSeek
 10193  3877  210600            	ld	hl,6
 10194  387a  39                	add	hl, sp
 10195  387b  f9                	ld	sp, hl
 10196  387c  210000            	ld	hl,0x0000
 10197  387f  e5                	push	hl
 10198  3880  cd4b08            	call	_vdp_setWriteAddress
 10199  3883  216400            	ld	hl,0x0064
 10200  3886  e3                	ex	(sp),hl
 10201  3887  af                	xor	a, a
 10202  3888  f5                	push	af
 10203  3889  33                	inc	sp
 10204  388a  af                	xor	a, a
 10205  388b  f5                	push	af
 10206  388c  33                	inc	sp
 10207  388d  cdd803            	call	_playNoteDelay
 10208  3890  f1                	pop	af
 10209  3891  f1                	pop	af
 10210  3892  c1                	pop	bc
 10211                          l_loadImage_00105:
 10212  3893  c5                	push	bc
 10213  3894  218000            	ld	hl,0x0080
 10214  3897  e5                	push	hl
 10215  3898  6c                	ld	l, h
 10216  3899  e5                	push	hl
 10217  389a  21d705            	ld	hl,__imgBuf
 10218  389d  e5                	push	hl
 10219  389e  c5                	push	bc
 10220  389f  33                	inc	sp
 10221  38a0  cd3523            	call	_rn_fileHandleReadSeq
 10222  38a3  f1                	pop	af
 10223  38a4  f1                	pop	af
 10224  38a5  f1                	pop	af
 10225  38a6  33                	inc	sp
 10226  38a7  c1                	pop	bc
 10227  38a8  7d                	ld	a, l
 10228  38a9  4f                	ld	c, a
 10229  38aa  b7                	or	a, a
 10230  38ab  2812              	jr	Z,l_loadImage_00106
 10231  38ad  1e00              	ld	e,0x00
 10232                          l_loadImage_00108:
 10233  38af  7b                	ld	a, e
 10234  38b0  91                	sub	a, c
 10235  38b1  30e0              	jr	NC,l_loadImage_00105
 10236  38b3  21d705            	ld	hl,__imgBuf
 10237  38b6  1600              	ld	d,0x00
 10238  38b8  19                	add	hl, de
 10239  38b9  7e                	ld	a, (hl)
 10240  38ba  d3a0              	out	(_IO_VDPDATA), a
 10241  38bc  1c                	inc	e
 10242  38bd  18f0              	jr	l_loadImage_00108
 10243                          l_loadImage_00106:
 10244  38bf  c5                	push	bc
 10245  38c0  33                	inc	sp
 10246  38c1  cd221b            	call	_rn_fileHandleClose
 10247  38c4  33                	inc	sp
 10248  38c5  dde1              	pop	ix
 10249  38c7  c9                	ret
 10250                          	SECTION code_compiler
 10251                          ;	---------------------------------
 10252                          ; Function initMenu
 10253                          ; ---------------------------------
 10254                          _initMenu:
 10255  38c8  cdb408            	call	_vdp_waitVDPReadyInt
 10256  38cb  0e00              	ld	c,0x00
 10257                          l_initMenu_00103:
 10258  38cd  79                	ld	a, c
 10259  38ce  d632              	sub	a,0x32
 10260  38d0  3008              	jr	NC,l_initMenu_00101
 10261  38d2  c5                	push	bc
 10262  38d3  cdc028            	call	_doStars
 10263  38d6  c1                	pop	bc
 10264  38d7  0c                	inc	c
 10265  38d8  18f3              	jr	l_initMenu_00103
 10266                          l_initMenu_00101:
 10267  38da  111c17            	ld	de,0x171c
 10268  38dd  d5                	push	de
 10269  38de  cde612            	call	_vdp_setCursor2
 10270  38e1  210501            	ld	hl,___str_29
 10271  38e4  e3                	ex	(sp),hl
 10272  38e5  cd2a12            	call	_vdp_print
 10273  38e8  f1                	pop	af
 10274  38e9  110414            	ld	de,0x1404
 10275  38ec  d5                	push	de
 10276  38ed  cde612            	call	_vdp_setCursor2
 10277  38f0  210a01            	ld	hl,___str_30
 10278  38f3  e3                	ex	(sp),hl
 10279  38f4  cd2a12            	call	_vdp_print
 10280  38f7  f1                	pop	af
 10281  38f8  110816            	ld	de,0x1608
 10282  38fb  d5                	push	de
 10283  38fc  cde612            	call	_vdp_setCursor2
 10284  38ff  212401            	ld	hl,___str_31
 10285  3902  e3                	ex	(sp),hl
 10286  3903  cd2a12            	call	_vdp_print
 10287  3906  f1                	pop	af
 10288  3907  110906            	ld	de,0x0609
 10289  390a  d5                	push	de
 10290  390b  cde612            	call	_vdp_setCursor2
 10291  390e  213501            	ld	hl,___str_32
 10292  3911  e3                	ex	(sp),hl
 10293  3912  cd2a12            	call	_vdp_print
 10294  3915  f1                	pop	af
 10295  3916  110907            	ld	de,0x0709
 10296  3919  d5                	push	de
 10297  391a  cde612            	call	_vdp_setCursor2
 10298  391d  213c01            	ld	hl,___str_33
 10299  3920  e3                	ex	(sp),hl
 10300  3921  cd2a12            	call	_vdp_print
 10301  3924  f1                	pop	af
 10302  3925  110908            	ld	de,0x0809
 10303  3928  d5                	push	de
 10304  3929  cde612            	call	_vdp_setCursor2
 10305  392c  214501            	ld	hl,___str_34
 10306  392f  e3                	ex	(sp),hl
 10307  3930  cd2a12            	call	_vdp_print
 10308  3933  f1                	pop	af
 10309  3934  110909            	ld	de,0x0909
 10310  3937  d5                	push	de
 10311  3938  cde612            	call	_vdp_setCursor2
 10312  393b  214e01            	ld	hl,___str_35
 10313  393e  e3                	ex	(sp),hl
 10314  393f  cd2a12            	call	_vdp_print
 10315  3942  f1                	pop	af
 10316  3943  11090b            	ld	de,0x0b09
 10317  3946  d5                	push	de
 10318  3947  cde612            	call	_vdp_setCursor2
 10319  394a  215401            	ld	hl,___str_36
 10320  394d  e3                	ex	(sp),hl
 10321  394e  cd2a12            	call	_vdp_print
 10322  3951  f1                	pop	af
 10323  3952  11120b            	ld	de,0x0b12
 10324  3955  d5                	push	de
 10325  3956  cde612            	call	_vdp_setCursor2
 10326  3959  215a01            	ld	hl,___str_37
 10327  395c  e3                	ex	(sp),hl
 10328  395d  cd2a12            	call	_vdp_print
 10329  3960  f1                	pop	af
 10330  3961  c9                	ret
 10331                          	SECTION rodata_compiler
 10332                          ___str_29:
 10333  0105  76312e30          	DEFM "v1.0"
 10334  0109  00                	DEFB 0x00
 10335                          	SECTION rodata_compiler
 10336                          ___str_30:
 10337  010a  2850524553532051  	DEFM "(PRESS Q IN GAME TO EXIT)"
              20494e2047414d45  
              20544f2045584954  
              29                
 10338  0123  00                	DEFB 0x00
 10339                          	SECTION rodata_compiler
 10340                          ___str_31:
 10341  0124  444a205355524553  	DEFM "DJ SURES (C)2023"
              2028432932303233  
 10342  0134  00                	DEFB 0x00
 10343                          	SECTION rodata_compiler
 10344                          ___str_32:
 10345  0135  4c495645533a      	DEFM "LIVES:"
 10346  013b  00                	DEFB 0x00
 10347                          	SECTION rodata_compiler
 10348                          ___str_33:
 10349  013c  504c41594552533a  	DEFM "PLAYERS:"
 10350  0144  00                	DEFB 0x00
 10351                          	SECTION rodata_compiler
 10352                          ___str_34:
 10353  0145  50454c4c4554533a  	DEFM "PELLETS:"
 10354  014d  00                	DEFB 0x00
 10355                          	SECTION rodata_compiler
 10356                          ___str_35:
 10357  014e  54494d453a        	DEFM "TIME:"
 10358  0153  00                	DEFB 0x00
 10359                          	SECTION rodata_compiler
 10360                          ___str_36:
 10361  0154  504c415921        	DEFM "PLAY!"
 10362  0159  00                	DEFB 0x00
 10363                          	SECTION rodata_compiler
 10364                          ___str_37:
 10365  015a  5155495421        	DEFM "QUIT!"
 10366  015f  00                	DEFB 0x00
 10367                          	SECTION code_compiler
 10368                          ;	---------------------------------
 10369                          ; Function introScreens
 10370                          ; ---------------------------------
 10371                          _introScreens:
 10372  3962  cdd30a            	call	_vdp_clearVRAM
 10373  3965  af                	xor	a, a
 10374  3966  f5                	push	af
 10375  3967  33                	inc	sp
 10376  3968  cdec0a            	call	_vdp_initMSXMode
 10377  396b  33                	inc	sp
 10378  396c  216001            	ld	hl,___str_38
 10379  396f  e5                	push	hl
 10380  3970  3e3d              	ld	a,0x3d
 10381  3972  f5                	push	af
 10382  3973  33                	inc	sp
 10383  3974  cd4338            	call	_loadImage
 10384  3977  33                	inc	sp
 10385  3978  215000            	ld	hl,0x0050
 10386  397b  e3                	ex	(sp),hl
 10387  397c  3e05              	ld	a,0x05
 10388  397e  f5                	push	af
 10389  397f  33                	inc	sp
 10390  3980  af                	xor	a, a
 10391  3981  f5                	push	af
 10392  3982  33                	inc	sp
 10393  3983  cdd803            	call	_playNoteDelay
 10394  3986  f1                	pop	af
 10395  3987  f1                	pop	af
 10396                          l_introScreens_00107:
 10397  3988  cde404            	call	_isKeyPressed
 10398  398b  7d                	ld	a, l
 10399  398c  b7                	or	a, a
 10400  398d  2808              	jr	Z,l_introScreens_00102
 10401  398f  cdf904            	call	_getChar
 10402  3992  7d                	ld	a, l
 10403  3993  d620              	sub	a,0x20
 10404  3995  2807              	jr	Z,l_introScreens_00108
 10405                          l_introScreens_00102:
 10406  3997  3a0600            	ld	a, (__joyStatus + 0)
 10407  399a  cb67              	bit	4, a
 10408  399c  28ea              	jr	Z,l_introScreens_00107
 10409                          l_introScreens_00108:
 10410  399e  cdd30a            	call	_vdp_clearVRAM
 10411  39a1  219e01            	ld	hl,___str_39
 10412  39a4  e5                	push	hl
 10413  39a5  3e3c              	ld	a,0x3c
 10414  39a7  f5                	push	af
 10415  39a8  33                	inc	sp
 10416  39a9  cd4338            	call	_loadImage
 10417  39ac  33                	inc	sp
 10418  39ad  211110            	ld	hl,_loop1_nt
 10419  39b0  e3                	ex	(sp),hl
 10420  39b1  cd8625            	call	_nt_init
 10421  39b4  f1                	pop	af
 10422  39b5  2acf16            	ld	hl, (__loopCntr)
 10423  39b8  23                	inc	hl
 10424  39b9  22cf16            	ld	(__loopCntr), hl
 10425                          l_introScreens_00117:
 10426  39bc  cde404            	call	_isKeyPressed
 10427  39bf  7d                	ld	a, l
 10428  39c0  b7                	or	a, a
 10429  39c1  2808              	jr	Z,l_introScreens_00110
 10430  39c3  cdf904            	call	_getChar
 10431  39c6  7d                	ld	a, l
 10432  39c7  d620              	sub	a,0x20
 10433  39c9  2822              	jr	Z,l_introScreens_00119
 10434                          l_introScreens_00110:
 10435  39cb  3a0600            	ld	a, (__joyStatus + 0)
 10436  39ce  cb67              	bit	4, a
 10437  39d0  201b              	jr	NZ,l_introScreens_00119
 10438  39d2  212602            	ld	hl,0x0226
 10439  39d5  e5                	push	hl
 10440  39d6  2acf16            	ld	hl, (__loopCntr)
 10441  39d9  e5                	push	hl
 10442  39da  cd0000            	call	__moduint_callee
 10443  39dd  7c                	ld	a, h
 10444  39de  b5                	or	a, l
 10445  39df  2003              	jr	NZ,l_introScreens_00115
 10446  39e1  cdeb25            	call	_nt_handleNote
 10447                          l_introScreens_00115:
 10448  39e4  2acf16            	ld	hl, (__loopCntr)
 10449  39e7  23                	inc	hl
 10450  39e8  22cf16            	ld	(__loopCntr), hl
 10451  39eb  18cf              	jr	l_introScreens_00117
 10452                          l_introScreens_00119:
 10453  39ed  c9                	ret
 10454                          	SECTION rodata_compiler
 10455                          ___str_38:
 10456  0160  68747470733a2f2f  	DEFM "https://cloud.nabu.ca/resources/GameManYeah/RetroNETLogo1.SC"
              636c6f75642e6e61  
              62752e63612f7265  
              736f75726365732f  
              47616d654d616e59  
              6561682f52657472  
              6f4e45544c6f676f  
              312e5343          
 10457  019c  32                	DEFM "2"
 10458  019d  00                	DEFB 0x00
 10459                          	SECTION rodata_compiler
 10460                          ___str_39:
 10461  019e  68747470733a2f2f  	DEFM "https://cloud.nabu.ca/resources/GameManYeah/GameManYeah1.SC2"
              636c6f75642e6e61  
              62752e63612f7265  
              736f75726365732f  
              47616d654d616e59  
              6561682f47616d65  
              4d616e5965616831  
              2e534332          
 10462  01da  00                	DEFB 0x00
 10463                          	SECTION code_compiler
 10464                          ;	---------------------------------
 10465                          ; Function main
 10466                          ; ---------------------------------
 10467                          _main:
 10468  39ee  dde5              	push	ix
 10469  39f0  dd210000          	ld	ix,0
 10470  39f4  dd39              	add	ix,sp
 10471  39f6  3b                	dec	sp
 10472  39f7  cd0000            	call	_initNABULib
 10473  39fa  cd6239            	call	_introScreens
 10474  39fd  cdd30a            	call	_vdp_clearVRAM
 10475  3a00  af                	xor	a, a
 10476  3a01  f5                	push	af
 10477  3a02  33                	inc	sp
 10478  3a03  af                	xor	a, a
 10479  3a04  f5                	push	af
 10480  3a05  33                	inc	sp
 10481  3a06  af                	xor	a, a
 10482  3a07  57                	ld	d,a
 10483  3a08  1e01              	ld	e,0x01
 10484  3a0a  d5                	push	de
 10485  3a0b  af                	xor	a, a
 10486  3a0c  f5                	push	af
 10487  3a0d  33                	inc	sp
 10488  3a0e  cd630b            	call	_vdp_initG2Mode
 10489  3a11  f1                	pop	af
 10490  3a12  33                	inc	sp
 10491  3a13  210008            	ld	hl,0x0800
 10492  3a16  e3                	ex	(sp),hl
 10493  3a17  211100            	ld	hl,_PATTERN
 10494  3a1a  e5                	push	hl
 10495  3a1b  cd310d            	call	_vdp_loadPatternTable
 10496  3a1e  f1                	pop	af
 10497  3a1f  210008            	ld	hl,0x0800
 10498  3a22  e3                	ex	(sp),hl
 10499  3a23  211108            	ld	hl,_COLOR
 10500  3a26  e5                	push	hl
 10501  3a27  cda40d            	call	_vdp_loadColorTable
 10502  3a2a  f1                	pop	af
 10503  3a2b  216b15            	ld	hl,_SPRITE_DATA
 10504  3a2e  e3                	ex	(sp),hl
 10505  3a2f  210b00            	ld	hl,0x000b
 10506  3a32  e5                	push	hl
 10507  3a33  cdb810            	call	_vdp_loadSpritePatternNameTable
 10508  3a36  f1                	pop	af
 10509  3a37  f1                	pop	af
 10510  3a38  af                	xor	a, a
 10511  3a39  f5                	push	af
 10512  3a3a  33                	inc	sp
 10513  3a3b  cdec0b            	call	_vdp_fillScreen
 10514  3a3e  33                	inc	sp
 10515  3a3f  cd8208            	call	_vdp_enableVDPReadyInt
 10516  3a42  cdb408            	call	_vdp_waitVDPReadyInt
 10517  3a45  cdf029            	call	_initRocks
 10518  3a48  cdc838            	call	_initMenu
 10519  3a4b  cdfe28            	call	_initPlayers
 10520  3a4e  dd36ff00          	ld	(ix-1),0x00
 10521                          l_main_00172:
 10522  3a52  3acb16            	ld	a, (_PLAYER_LIVES+0)
 10523  3a55  0600              	ld	b,0x00
 10524  3a57  4f                	ld	c, a
 10525  3a58  c5                	push	bc
 10526  3a59  21db01            	ld	hl,___str_40
 10527  3a5c  e5                	push	hl
 10528  3a5d  215706            	ld	hl,_tb
 10529  3a60  e5                	push	hl
 10530  3a61  cd0000            	call	_sprintf
 10531  3a64  210600            	ld	hl,6
 10532  3a67  39                	add	hl, sp
 10533  3a68  f9                	ld	sp, hl
 10534  3a69  111206            	ld	de,0x0612
 10535  3a6c  d5                	push	de
 10536  3a6d  cde612            	call	_vdp_setCursor2
 10537  3a70  215706            	ld	hl,_tb
 10538  3a73  e3                	ex	(sp),hl
 10539  3a74  cd2a12            	call	_vdp_print
 10540  3a77  f1                	pop	af
 10541  3a78  dd7eff            	ld	a,(ix-1)
 10542  3a7b  b7                	or	a, a
 10543  3a7c  200f              	jr	NZ,l_main_00102
 10544  3a7e  11063e            	ld	de,0x3e06
 10545  3a81  d5                	push	de
 10546  3a82  3e07              	ld	a,0x07
 10547  3a84  f5                	push	af
 10548  3a85  33                	inc	sp
 10549  3a86  cd1414            	call	_vdp_writeCharAtLocation
 10550  3a89  f1                	pop	af
 10551  3a8a  33                	inc	sp
 10552  3a8b  180d              	jr	l_main_00103
 10553                          l_main_00102:
 10554  3a8d  110620            	ld	de,0x2006
 10555  3a90  d5                	push	de
 10556  3a91  3e07              	ld	a,0x07
 10557  3a93  f5                	push	af
 10558  3a94  33                	inc	sp
 10559  3a95  cd1414            	call	_vdp_writeCharAtLocation
 10560  3a98  f1                	pop	af
 10561  3a99  33                	inc	sp
 10562                          l_main_00103:
 10563  3a9a  3acc16            	ld	a, (_PLAYER_CNT+0)
 10564  3a9d  4f                	ld	c, a
 10565  3a9e  0600              	ld	b,0x00
 10566  3aa0  c5                	push	bc
 10567  3aa1  21db01            	ld	hl,___str_40
 10568  3aa4  e5                	push	hl
 10569  3aa5  215706            	ld	hl,_tb
 10570  3aa8  e5                	push	hl
 10571  3aa9  cd0000            	call	_sprintf
 10572  3aac  210600            	ld	hl,6
 10573  3aaf  39                	add	hl, sp
 10574  3ab0  f9                	ld	sp, hl
 10575  3ab1  111207            	ld	de,0x0712
 10576  3ab4  d5                	push	de
 10577  3ab5  cde612            	call	_vdp_setCursor2
 10578  3ab8  215706            	ld	hl,_tb
 10579  3abb  e3                	ex	(sp),hl
 10580  3abc  cd2a12            	call	_vdp_print
 10581  3abf  f1                	pop	af
 10582  3ac0  dd7eff            	ld	a,(ix-1)
 10583  3ac3  3d                	dec	a
 10584  3ac4  200f              	jr	NZ,l_main_00105
 10585  3ac6  11073e            	ld	de,0x3e07
 10586  3ac9  d5                	push	de
 10587  3aca  3e07              	ld	a,0x07
 10588  3acc  f5                	push	af
 10589  3acd  33                	inc	sp
 10590  3ace  cd1414            	call	_vdp_writeCharAtLocation
 10591  3ad1  f1                	pop	af
 10592  3ad2  33                	inc	sp
 10593  3ad3  180d              	jr	l_main_00106
 10594                          l_main_00105:
 10595  3ad5  110720            	ld	de,0x2007
 10596  3ad8  d5                	push	de
 10597  3ad9  3e07              	ld	a,0x07
 10598  3adb  f5                	push	af
 10599  3adc  33                	inc	sp
 10600  3add  cd1414            	call	_vdp_writeCharAtLocation
 10601  3ae0  f1                	pop	af
 10602  3ae1  33                	inc	sp
 10603                          l_main_00106:
 10604  3ae2  3acd16            	ld	a, (_PELLET_CNT+0)
 10605  3ae5  4f                	ld	c, a
 10606  3ae6  0600              	ld	b,0x00
 10607  3ae8  c5                	push	bc
 10608  3ae9  21de01            	ld	hl,___str_41
 10609  3aec  e5                	push	hl
 10610  3aed  215706            	ld	hl,_tb
 10611  3af0  e5                	push	hl
 10612  3af1  cd0000            	call	_sprintf
 10613  3af4  210600            	ld	hl,6
 10614  3af7  39                	add	hl, sp
 10615  3af8  f9                	ld	sp, hl
 10616  3af9  111208            	ld	de,0x0812
 10617  3afc  d5                	push	de
 10618  3afd  cde612            	call	_vdp_setCursor2
 10619  3b00  215706            	ld	hl,_tb
 10620  3b03  e3                	ex	(sp),hl
 10621  3b04  cd2a12            	call	_vdp_print
 10622  3b07  f1                	pop	af
 10623  3b08  dd7eff            	ld	a,(ix-1)
 10624  3b0b  d602              	sub	a,0x02
 10625  3b0d  200f              	jr	NZ,l_main_00108
 10626  3b0f  11083e            	ld	de,0x3e08
 10627  3b12  d5                	push	de
 10628  3b13  3e07              	ld	a,0x07
 10629  3b15  f5                	push	af
 10630  3b16  33                	inc	sp
 10631  3b17  cd1414            	call	_vdp_writeCharAtLocation
 10632  3b1a  f1                	pop	af
 10633  3b1b  33                	inc	sp
 10634  3b1c  180d              	jr	l_main_00109
 10635                          l_main_00108:
 10636  3b1e  110820            	ld	de,0x2008
 10637  3b21  d5                	push	de
 10638  3b22  3e07              	ld	a,0x07
 10639  3b24  f5                	push	af
 10640  3b25  33                	inc	sp
 10641  3b26  cd1414            	call	_vdp_writeCharAtLocation
 10642  3b29  f1                	pop	af
 10643  3b2a  33                	inc	sp
 10644                          l_main_00109:
 10645  3b2b  3ace16            	ld	a, (_TIME+0)
 10646  3b2e  4f                	ld	c, a
 10647  3b2f  0600              	ld	b,0x00
 10648  3b31  c5                	push	bc
 10649  3b32  21de01            	ld	hl,___str_41
 10650  3b35  e5                	push	hl
 10651  3b36  215706            	ld	hl,_tb
 10652  3b39  e5                	push	hl
 10653  3b3a  cd0000            	call	_sprintf
 10654  3b3d  210600            	ld	hl,6
 10655  3b40  39                	add	hl, sp
 10656  3b41  f9                	ld	sp, hl
 10657  3b42  111209            	ld	de,0x0912
 10658  3b45  d5                	push	de
 10659  3b46  cde612            	call	_vdp_setCursor2
 10660  3b49  215706            	ld	hl,_tb
 10661  3b4c  e3                	ex	(sp),hl
 10662  3b4d  cd2a12            	call	_vdp_print
 10663  3b50  f1                	pop	af
 10664  3b51  dd7eff            	ld	a,(ix-1)
 10665  3b54  d603              	sub	a,0x03
 10666  3b56  200f              	jr	NZ,l_main_00111
 10667  3b58  11093e            	ld	de,0x3e09
 10668  3b5b  d5                	push	de
 10669  3b5c  3e07              	ld	a,0x07
 10670  3b5e  f5                	push	af
 10671  3b5f  33                	inc	sp
 10672  3b60  cd1414            	call	_vdp_writeCharAtLocation
 10673  3b63  f1                	pop	af
 10674  3b64  33                	inc	sp
 10675  3b65  180d              	jr	l_main_00112
 10676                          l_main_00111:
 10677  3b67  110920            	ld	de,0x2009
 10678  3b6a  d5                	push	de
 10679  3b6b  3e07              	ld	a,0x07
 10680  3b6d  f5                	push	af
 10681  3b6e  33                	inc	sp
 10682  3b6f  cd1414            	call	_vdp_writeCharAtLocation
 10683  3b72  f1                	pop	af
 10684  3b73  33                	inc	sp
 10685                          l_main_00112:
 10686  3b74  dd7eff            	ld	a,(ix-1)
 10687  3b77  d604              	sub	a,0x04
 10688  3b79  200f              	jr	NZ,l_main_00114
 10689  3b7b  110b3e            	ld	de,0x3e0b
 10690  3b7e  d5                	push	de
 10691  3b7f  3e07              	ld	a,0x07
 10692  3b81  f5                	push	af
 10693  3b82  33                	inc	sp
 10694  3b83  cd1414            	call	_vdp_writeCharAtLocation
 10695  3b86  f1                	pop	af
 10696  3b87  33                	inc	sp
 10697  3b88  180d              	jr	l_main_00115
 10698                          l_main_00114:
 10699  3b8a  110b20            	ld	de,0x200b
 10700  3b8d  d5                	push	de
 10701  3b8e  3e07              	ld	a,0x07
 10702  3b90  f5                	push	af
 10703  3b91  33                	inc	sp
 10704  3b92  cd1414            	call	_vdp_writeCharAtLocation
 10705  3b95  f1                	pop	af
 10706  3b96  33                	inc	sp
 10707                          l_main_00115:
 10708  3b97  dd7eff            	ld	a,(ix-1)
 10709  3b9a  d605              	sub	a,0x05
 10710  3b9c  200f              	jr	NZ,l_main_00117
 10711  3b9e  110b3e            	ld	de,0x3e0b
 10712  3ba1  d5                	push	de
 10713  3ba2  3e10              	ld	a,0x10
 10714  3ba4  f5                	push	af
 10715  3ba5  33                	inc	sp
 10716  3ba6  cd1414            	call	_vdp_writeCharAtLocation
 10717  3ba9  f1                	pop	af
 10718  3baa  33                	inc	sp
 10719  3bab  180d              	jr	l_main_00127
 10720                          l_main_00117:
 10721  3bad  110b20            	ld	de,0x200b
 10722  3bb0  d5                	push	de
 10723  3bb1  3e10              	ld	a,0x10
 10724  3bb3  f5                	push	af
 10725  3bb4  33                	inc	sp
 10726  3bb5  cd1414            	call	_vdp_writeCharAtLocation
 10727  3bb8  f1                	pop	af
 10728  3bb9  33                	inc	sp
 10729                          l_main_00127:
 10730  3bba  3a0600            	ld	a, (__joyStatus + 0)
 10731  3bbd  e61f              	and	a,0x1f
 10732  3bbf  205e              	jr	NZ,l_main_00129
 10733  3bc1  210300            	ld	hl,0x0003
 10734  3bc4  e5                	push	hl
 10735  3bc5  2acf16            	ld	hl, (__loopCntr)
 10736  3bc8  e5                	push	hl
 10737  3bc9  cd0000            	call	__moduint_callee
 10738  3bcc  7c                	ld	a, h
 10739  3bcd  b5                	or	a, l
 10740  3bce  200a              	jr	NZ,l_main_00120
 10741  3bd0  3a0f00            	ld	a, (_vdpStatusRegVal+0)
 10742  3bd3  cb6f              	bit	5, a
 10743  3bd5  2803              	jr	Z,l_main_00120
 10744  3bd7  cda62f            	call	_doCollision
 10745                          l_main_00120:
 10746  3bda  210900            	ld	hl,0x0009
 10747  3bdd  e5                	push	hl
 10748  3bde  2acf16            	ld	hl, (__loopCntr)
 10749  3be1  e5                	push	hl
 10750  3be2  cd0000            	call	__moduint_callee
 10751  3be5  7c                	ld	a, h
 10752  3be6  b5                	or	a, l
 10753  3be7  2003              	jr	NZ,l_main_00123
 10754  3be9  cdeb25            	call	_nt_handleNote
 10755                          l_main_00123:
 10756  3bec  213c00            	ld	hl,0x003c
 10757  3bef  e5                	push	hl
 10758  3bf0  2acf16            	ld	hl, (__loopCntr)
 10759  3bf3  e5                	push	hl
 10760  3bf4  cd0000            	call	__moduint_callee
 10761  3bf7  7c                	ld	a, h
 10762  3bf8  b5                	or	a, l
 10763  3bf9  2003              	jr	NZ,l_main_00191
 10764  3bfb  cdc028            	call	_doStars
 10765                          l_main_00191:
 10766  3bfe  0600              	ld	b,0x00
 10767                          l_main_00175:
 10768  3c00  78                	ld	a, b
 10769  3c01  d606              	sub	a,0x06
 10770  3c03  300b              	jr	NC,l_main_00126
 10771  3c05  c5                	push	bc
 10772  3c06  c5                	push	bc
 10773  3c07  33                	inc	sp
 10774  3c08  cd692e            	call	_doRock
 10775  3c0b  33                	inc	sp
 10776  3c0c  c1                	pop	bc
 10777  3c0d  04                	inc	b
 10778  3c0e  18f0              	jr	l_main_00175
 10779                          l_main_00126:
 10780  3c10  cdb408            	call	_vdp_waitVDPReadyInt
 10781  3c13  cdf935            	call	_renderRocks
 10782  3c16  2acf16            	ld	hl, (__loopCntr)
 10783  3c19  23                	inc	hl
 10784  3c1a  22cf16            	ld	(__loopCntr), hl
 10785  3c1d  189b              	jr	l_main_00127
 10786                          l_main_00129:
 10787  3c1f  3a0600            	ld	a, (__joyStatus + 0)
 10788  3c22  e61f              	and	a,0x1f
 10789  3c24  5f                	ld	e, a
 10790  3c25  0e00              	ld	c,0x00
 10791  3c27  7b                	ld	a, e
 10792  3c28  3d                	dec	a
 10793  3c29  b1                	or	a, c
 10794  3c2a  cad23c            	jp	Z,l_main_00152
 10795  3c2d  7b                	ld	a, e
 10796  3c2e  d602              	sub	a,0x02
 10797  3c30  b1                	or	a, c
 10798  3c31  cabe3c            	jp	Z,l_main_00148
 10799  3c34  7b                	ld	a, e
 10800  3c35  d604              	sub	a,0x04
 10801  3c37  b1                	or	a, c
 10802  3c38  2823              	jr	Z,l_main_00134
 10803  3c3a  7b                	ld	a, e
 10804  3c3b  d608              	sub	a,0x08
 10805  3c3d  b1                	or	a, c
 10806  3c3e  280a              	jr	Z,l_main_00130
 10807  3c40  7b                	ld	a, e
 10808  3c41  d610              	sub	a,0x10
 10809  3c43  b1                	or	a, c
 10810  3c44  ca383d            	jp	Z,l_main_00166
 10811  3c47  c3793d            	jp	l_main_00170
 10812                          l_main_00130:
 10813  3c4a  dd7eff            	ld	a,(ix-1)
 10814  3c4d  b7                	or	a, a
 10815  3c4e  2007              	jr	NZ,l_main_00132
 10816  3c50  dd36ff05          	ld	(ix-1),0x05
 10817  3c54  c3793d            	jp	l_main_00170
 10818                          l_main_00132:
 10819  3c57  dd35ff            	dec	(ix-1)
 10820  3c5a  c3793d            	jp	l_main_00170
 10821                          l_main_00134:
 10822  3c5d  dd7eff            	ld	a,(ix-1)
 10823  3c60  b7                	or	a, a
 10824  3c61  2817              	jr	Z,l_main_00135
 10825  3c63  dd7eff            	ld	a,(ix-1)
 10826  3c66  3d                	dec	a
 10827  3c67  2822              	jr	Z,l_main_00138
 10828  3c69  dd7eff            	ld	a,(ix-1)
 10829  3c6c  d602              	sub	a,0x02
 10830  3c6e  282c              	jr	Z,l_main_00141
 10831  3c70  dd7eff            	ld	a,(ix-1)
 10832  3c73  d603              	sub	a,0x03
 10833  3c75  2834              	jr	Z,l_main_00144
 10834  3c77  c3793d            	jp	l_main_00170
 10835                          l_main_00135:
 10836  3c7a  3acb16            	ld	a, (_PLAYER_LIVES+0)
 10837  3c7d  d606              	sub	a,0x06
 10838  3c7f  3004              	jr	NC,l_main_00137
 10839  3c81  21cb16            	ld	hl,_PLAYER_LIVES+0
 10840  3c84  34                	inc	(hl)
 10841                          l_main_00137:
 10842  3c85  cdfe28            	call	_initPlayers
 10843  3c88  c3793d            	jp	l_main_00170
 10844                          l_main_00138:
 10845  3c8b  3acc16            	ld	a, (_PLAYER_CNT+0)
 10846  3c8e  d604              	sub	a,0x04
 10847  3c90  3004              	jr	NC,l_main_00140
 10848  3c92  21cc16            	ld	hl,_PLAYER_CNT+0
 10849  3c95  34                	inc	(hl)
 10850                          l_main_00140:
 10851  3c96  cdfe28            	call	_initPlayers
 10852  3c99  c3793d            	jp	l_main_00170
 10853                          l_main_00141:
 10854  3c9c  3acd16            	ld	a, (_PELLET_CNT+0)
 10855  3c9f  d60a              	sub	a,0x0a
 10856  3ca1  d2793d            	jp	NC, l_main_00170
 10857  3ca4  21cd16            	ld	hl,_PELLET_CNT+0
 10858  3ca7  34                	inc	(hl)
 10859  3ca8  c3793d            	jp	l_main_00170
 10860                          l_main_00144:
 10861  3cab  3ace16            	ld	a, (_TIME+0)
 10862  3cae  d6f0              	sub	a,0xf0
 10863  3cb0  d2793d            	jp	NC, l_main_00170
 10864  3cb3  3ace16            	ld	a, (_TIME+0)
 10865  3cb6  c60a              	add	a,0x0a
 10866  3cb8  32ce16            	ld	(_TIME+0), a
 10867  3cbb  c3793d            	jp	l_main_00170
 10868                          l_main_00148:
 10869  3cbe  dd7eff            	ld	a,(ix-1)
 10870  3cc1  d605              	sub	a,0x05
 10871  3cc3  2007              	jr	NZ,l_main_00150
 10872  3cc5  dd36ff00          	ld	(ix-1),0x00
 10873  3cc9  c3793d            	jp	l_main_00170
 10874                          l_main_00150:
 10875  3ccc  dd34ff            	inc	(ix-1)
 10876  3ccf  c3793d            	jp	l_main_00170
 10877                          l_main_00152:
 10878  3cd2  dd7eff            	ld	a,(ix-1)
 10879  3cd5  b7                	or	a, a
 10880  3cd6  2817              	jr	Z,l_main_00153
 10881  3cd8  dd7eff            	ld	a,(ix-1)
 10882  3cdb  3d                	dec	a
 10883  3cdc  2825              	jr	Z,l_main_00156
 10884  3cde  dd7eff            	ld	a,(ix-1)
 10885  3ce1  d602              	sub	a,0x02
 10886  3ce3  282d              	jr	Z,l_main_00159
 10887  3ce5  dd7eff            	ld	a,(ix-1)
 10888  3ce8  d603              	sub	a,0x03
 10889  3cea  2836              	jr	Z,l_main_00162
 10890  3cec  c3793d            	jp	l_main_00170
 10891                          l_main_00153:
 10892  3cef  3e01              	ld	a,0x01
 10893  3cf1  fd21cb16          	ld	iy,_PLAYER_LIVES
 10894  3cf5  fd9600            	sub	a,(iy+0)
 10895  3cf8  3003              	jr	NC,l_main_00155
 10896  3cfa  fd3500            	dec	(iy+0)
 10897                          l_main_00155:
 10898  3cfd  cdfe28            	call	_initPlayers
 10899  3d00  c3793d            	jp	l_main_00170
 10900                          l_main_00156:
 10901  3d03  3acc16            	ld	a, (_PLAYER_CNT+0)
 10902  3d06  b7                	or	a, a
 10903  3d07  2804              	jr	Z,l_main_00158
 10904  3d09  21cc16            	ld	hl,_PLAYER_CNT+0
 10905  3d0c  35                	dec	(hl)
 10906                          l_main_00158:
 10907  3d0d  cdfe28            	call	_initPlayers
 10908  3d10  1867              	jr	l_main_00170
 10909                          l_main_00159:
 10910  3d12  3e01              	ld	a,0x01
 10911  3d14  fd21cd16          	ld	iy,_PELLET_CNT
 10912  3d18  fd9600            	sub	a,(iy+0)
 10913  3d1b  305c              	jr	NC,l_main_00170
 10914  3d1d  fd3500            	dec	(iy+0)
 10915  3d20  1857              	jr	l_main_00170
 10916                          l_main_00162:
 10917  3d22  3e0a              	ld	a,0x0a
 10918  3d24  fd21ce16          	ld	iy,_TIME
 10919  3d28  fd9600            	sub	a,(iy+0)
 10920  3d2b  304c              	jr	NC,l_main_00170
 10921  3d2d  3ace16            	ld	a, (_TIME+0)
 10922  3d30  21ce16            	ld	hl,_TIME
 10923  3d33  c6f6              	add	a,0xf6
 10924  3d35  77                	ld	(hl), a
 10925  3d36  1841              	jr	l_main_00170
 10926                          l_main_00166:
 10927  3d38  dd7eff            	ld	a,(ix-1)
 10928  3d3b  d604              	sub	a,0x04
 10929  3d3d  2809              	jr	Z,l_main_00167
 10930  3d3f  dd7eff            	ld	a,(ix-1)
 10931  3d42  d605              	sub	a,0x05
 10932  3d44  2812              	jr	Z,l_main_00168
 10933  3d46  1831              	jr	l_main_00170
 10934                          l_main_00167:
 10935  3d48  cdc536            	call	_doGameLoop
 10936  3d4b  cdc838            	call	_initMenu
 10937  3d4e  211110            	ld	hl,_loop1_nt
 10938  3d51  e5                	push	hl
 10939  3d52  cd8625            	call	_nt_init
 10940  3d55  f1                	pop	af
 10941  3d56  1821              	jr	l_main_00170
 10942                          l_main_00168:
 10943  3d58  cdc008            	call	_vdp_disableVDPReadyInt
 10944  3d5b  cdcf25            	call	_nt_stopSounds
 10945  3d5e  cd5600            	call	_initNABULIBAudio
 10946  3d61  215000            	ld	hl,0x0050
 10947  3d64  e5                	push	hl
 10948  3d65  af                	xor	a, a
 10949  3d66  f5                	push	af
 10950  3d67  33                	inc	sp
 10951  3d68  af                	xor	a, a
 10952  3d69  f5                	push	af
 10953  3d6a  33                	inc	sp
 10954  3d6b  cdd803            	call	_playNoteDelay
 10955  3d6e  f1                	pop	af
 10956  3d6f  21e301            	ld	hl,___str_52
 10957  3d72  e3                	ex	(sp),hl
 10958  3d73  cd0000            	call	_puts
 10959  3d76  f1                	pop	af
 10960  3d77  1808              	jr	l_main_00177
 10961                          l_main_00170:
 10962  3d79  210600            	ld	hl,__joyStatus
 10963  3d7c  3600              	ld	(hl),0x00
 10964  3d7e  c3523a            	jp	l_main_00172
 10965                          l_main_00177:
 10966  3d81  33                	inc	sp
 10967  3d82  dde1              	pop	ix
 10968  3d84  c9                	ret
 10969                          	SECTION rodata_compiler
 10970                          ___str_40:
 10971  01db  2575              	DEFM "%u"
 10972  01dd  00                	DEFB 0x00
 10973                          	SECTION rodata_compiler
 10974                          ___str_41:
 10975  01de  25303375          	DEFM "%03u"
 10976  01e2  00                	DEFB 0x00
 10977                          	SECTION rodata_compiler
 10978                          ___str_52:
 10979  01e3  00                	DEFB 0x0a
 10980  01e4  2d2d2d2d2d2d2d2d  	DEFM "----------------------------------------"
              2d2d2d2d2d2d2d2d  
              2d2d2d2d2d2d2d2d  
              2d2d2d2d2d2d2d2d  
              2d2d2d2d2d2d2d2d  
 10981  020c  00                	DEFB 0x0a
 10982  020d  47616d654d616e59  	DEFM "GameManYeah!            DJ Sures (c)2023"
              6561682120202020  
              2020202020202020  
              444a205375726573  
              2028632932303233  
 10983  0235  00                	DEFB 0x0a
 10984  0236  68747470733a2f2f  	DEFM "https://nabu.ca"
              6e6162752e6361    
 10985  0245  00                	DEFB 0x0a
 10986  0246  00                	DEFB 0x0a
 10987  0247  5468616e6b20796f  	DEFM "Thank you for playing!"
              7520666f7220706c  
              6179696e6721      
 10988  025d  00                	DEFB 0x0a
 10989  025e  00                	DEFB 0x00
 10990                          	SECTION data_compiler
 10991                          __randomSeed:
 10992  0000  00                	DEFB +0x00
 10993                          __rxBufferReadPos:
 10994  0001  00                	DEFB +0x00
 10995                          __rxBufferWritePos:
 10996  0002  00                	DEFB +0x00
 10997                          __kbdBufferReadPos:
 10998  0003  00                	DEFB +0x00
 10999                          __kbdBufferWritePos:
 11000  0004  00                	DEFB +0x00
 11001                          __lastKeyboardIntVal:
 11002  0005  00                	DEFB +0x00
 11003                          __joyStatus:
 11004  0006  00                	DEFB +0x00
 11005  0007  00                	DEFB 0x00
 11006  0008  00                	DEFB 0x00
 11007  0009  00                	DEFB 0x00
 11008                          __ORIGINAL_INT_MASK:
 11009  000a  00                	DEFB +0x00
 11010                          _vdp_cursor:
 11011  000b  00                	DEFB +0x00
 11012  000c  00                	DEFB +0x00
 11013                          __vdpReg1Val:
 11014  000d  00                	DEFB +0x00
 11015                          __vdpInterruptEnabled:
 11016  000e  00                	DEFB +0x00
 11017                          _vdpStatusRegVal:
 11018  000f  00                	DEFB +0x00
 11019                          _vdpIsReady:
 11020  0010  00                	DEFB +0x00
 11021                          _PATTERN:
 11022  0011  00                	DEFB +0x00
 11023  0012  00                	DEFB +0x00
 11024  0013  00                	DEFB +0x00
 11025  0014  00                	DEFB +0x00
 11026  0015  00                	DEFB +0x00
 11027  0016  00                	DEFB +0x00
 11028  0017  00                	DEFB +0x00
 11029  0018  00                	DEFB +0x00
 11030  0019  02                	DEFB +0x02
 11031  001a  00                	DEFB +0x00
 11032  001b  00                	DEFB +0x00
 11033  001c  00                	DEFB +0x00
 11034  001d  00                	DEFB +0x00
 11035  001e  00                	DEFB +0x00
 11036  001f  00                	DEFB +0x00
 11037  0020  00                	DEFB +0x00
 11038  0021  00                	DEFB +0x00
 11039  0022  00                	DEFB +0x00
 11040  0023  00                	DEFB +0x00
 11041  0024  10                	DEFB +0x10
 11042  0025  00                	DEFB +0x00
 11043  0026  00                	DEFB +0x00
 11044  0027  00                	DEFB +0x00
 11045  0028  00                	DEFB +0x00
 11046  0029  00                	DEFB +0x00
 11047  002a  00                	DEFB +0x00
 11048  002b  00                	DEFB +0x00
 11049  002c  00                	DEFB +0x00
 11050  002d  00                	DEFB +0x00
 11051  002e  04                	DEFB +0x04
 11052  002f  00                	DEFB +0x00
 11053  0030  00                	DEFB +0x00
 11054  0031  80                	DEFB +0x80
 11055  0032  00                	DEFB +0x00
 11056  0033  00                	DEFB +0x00
 11057  0034  00                	DEFB +0x00
 11058  0035  00                	DEFB +0x00
 11059  0036  00                	DEFB +0x00
 11060  0037  00                	DEFB +0x00
 11061  0038  00                	DEFB +0x00
 11062  0039  00                	DEFB +0x00
 11063  003a  00                	DEFB +0x00
 11064  003b  00                	DEFB +0x00
 11065  003c  00                	DEFB +0x00
 11066  003d  00                	DEFB +0x00
 11067  003e  00                	DEFB +0x00
 11068  003f  40                	DEFB +0x40
 11069  0040  00                	DEFB +0x00
 11070  0041  00                	DEFB +0x00
 11071  0042  00                	DEFB +0x00
 11072  0043  00                	DEFB +0x00
 11073  0044  00                	DEFB +0x00
 11074  0045  00                	DEFB +0x00
 11075  0046  00                	DEFB +0x00
 11076  0047  00                	DEFB +0x00
 11077  0048  00                	DEFB +0x00
 11078  0049  00                	DEFB +0x00
 11079  004a  00                	DEFB +0x00
 11080  004b  00                	DEFB +0x00
 11081  004c  00                	DEFB +0x00
 11082  004d  00                	DEFB +0x00
 11083  004e  00                	DEFB +0x00
 11084  004f  00                	DEFB +0x00
 11085  0050  00                	DEFB +0x00
 11086  0051  18                	DEFB +0x18
 11087  0052  3c                	DEFB +0x3c
 11088  0053  66                	DEFB +0x66
 11089  0054  c3                	DEFB +0xc3
 11090  0055  c3                	DEFB +0xc3
 11091  0056  66                	DEFB +0x66
 11092  0057  3c                	DEFB +0x3c
 11093  0058  18                	DEFB +0x18
 11094  0059  00                	DEFB +0x00
 11095  005a  18                	DEFB +0x18
 11096  005b  24                	DEFB +0x24
 11097  005c  42                	DEFB +0x42
 11098  005d  ff                	DEFB +0xff
 11099  005e  7e                	DEFB +0x7e
 11100  005f  3c                	DEFB +0x3c
 11101  0060  00                	DEFB +0x00
 11102  0061  00                	DEFB +0x00
 11103  0062  00                	DEFB +0x00
 11104  0063  00                	DEFB +0x00
 11105  0064  00                	DEFB +0x00
 11106  0065  00                	DEFB +0x00
 11107  0066  00                	DEFB +0x00
 11108  0067  00                	DEFB +0x00
 11109  0068  00                	DEFB +0x00
 11110  0069  00                	DEFB +0x00
 11111  006a  00                	DEFB +0x00
 11112  006b  00                	DEFB +0x00
 11113  006c  00                	DEFB +0x00
 11114  006d  00                	DEFB +0x00
 11115  006e  00                	DEFB +0x00
 11116  006f  00                	DEFB +0x00
 11117  0070  00                	DEFB +0x00
 11118  0071  00                	DEFB +0x00
 11119  0072  00                	DEFB +0x00
 11120  0073  00                	DEFB +0x00
 11121  0074  00                	DEFB +0x00
 11122  0075  00                	DEFB +0x00
 11123  0076  00                	DEFB +0x00
 11124  0077  00                	DEFB +0x00
 11125  0078  00                	DEFB +0x00
 11126  0079  00                	DEFB +0x00
 11127  007a  00                	DEFB +0x00
 11128  007b  00                	DEFB +0x00
 11129  007c  00                	DEFB +0x00
 11130  007d  00                	DEFB +0x00
 11131  007e  00                	DEFB +0x00
 11132  007f  00                	DEFB +0x00
 11133  0080  00                	DEFB +0x00
 11134  0081  00                	DEFB +0x00
 11135  0082  00                	DEFB +0x00
 11136  0083  00                	DEFB +0x00
 11137  0084  00                	DEFB +0x00
 11138  0085  00                	DEFB +0x00
 11139  0086  00                	DEFB +0x00
 11140  0087  00                	DEFB +0x00
 11141  0088  00                	DEFB +0x00
 11142  0089  00                	DEFB +0x00
 11143  008a  00                	DEFB +0x00
 11144  008b  00                	DEFB +0x00
 11145  008c  00                	DEFB +0x00
 11146  008d  00                	DEFB +0x00
 11147  008e  00                	DEFB +0x00
 11148  008f  00                	DEFB +0x00
 11149  0090  00                	DEFB +0x00
 11150  0091  00                	DEFB +0x00
 11151  0092  00                	DEFB +0x00
 11152  0093  00                	DEFB +0x00
 11153  0094  00                	DEFB +0x00
 11154  0095  00                	DEFB +0x00
 11155  0096  00                	DEFB +0x00
 11156  0097  00                	DEFB +0x00
 11157  0098  00                	DEFB +0x00
 11158  0099  00                	DEFB +0x00
 11159  009a  00                	DEFB +0x00
 11160  009b  00                	DEFB +0x00
 11161  009c  00                	DEFB +0x00
 11162  009d  00                	DEFB +0x00
 11163  009e  00                	DEFB +0x00
 11164  009f  00                	DEFB +0x00
 11165  00a0  00                	DEFB +0x00
 11166  00a1  00                	DEFB +0x00
 11167  00a2  00                	DEFB +0x00
 11168  00a3  00                	DEFB +0x00
 11169  00a4  00                	DEFB +0x00
 11170  00a5  00                	DEFB +0x00
 11171  00a6  00                	DEFB +0x00
 11172  00a7  00                	DEFB +0x00
 11173  00a8  00                	DEFB +0x00
 11174  00a9  00                	DEFB +0x00
 11175  00aa  00                	DEFB +0x00
 11176  00ab  00                	DEFB +0x00
 11177  00ac  00                	DEFB +0x00
 11178  00ad  00                	DEFB +0x00
 11179  00ae  00                	DEFB +0x00
 11180  00af  00                	DEFB +0x00
 11181  00b0  00                	DEFB +0x00
 11182  00b1  00                	DEFB +0x00
 11183  00b2  00                	DEFB +0x00
 11184  00b3  00                	DEFB +0x00
 11185  00b4  00                	DEFB +0x00
 11186  00b5  00                	DEFB +0x00
 11187  00b6  00                	DEFB +0x00
 11188  00b7  00                	DEFB +0x00
 11189  00b8  00                	DEFB +0x00
 11190  00b9  00                	DEFB +0x00
 11191  00ba  00                	DEFB +0x00
 11192  00bb  00                	DEFB +0x00
 11193  00bc  00                	DEFB +0x00
 11194  00bd  00                	DEFB +0x00
 11195  00be  00                	DEFB +0x00
 11196  00bf  00                	DEFB +0x00
 11197  00c0  00                	DEFB +0x00
 11198  00c1  00                	DEFB +0x00
 11199  00c2  00                	DEFB +0x00
 11200  00c3  00                	DEFB +0x00
 11201  00c4  00                	DEFB +0x00
 11202  00c5  00                	DEFB +0x00
 11203  00c6  00                	DEFB +0x00
 11204  00c7  00                	DEFB +0x00
 11205  00c8  00                	DEFB +0x00
 11206  00c9  00                	DEFB +0x00
 11207  00ca  00                	DEFB +0x00
 11208  00cb  00                	DEFB +0x00
 11209  00cc  00                	DEFB +0x00
 11210  00cd  00                	DEFB +0x00
 11211  00ce  00                	DEFB +0x00
 11212  00cf  00                	DEFB +0x00
 11213  00d0  00                	DEFB +0x00
 11214  00d1  00                	DEFB +0x00
 11215  00d2  00                	DEFB +0x00
 11216  00d3  00                	DEFB +0x00
 11217  00d4  00                	DEFB +0x00
 11218  00d5  00                	DEFB +0x00
 11219  00d6  00                	DEFB +0x00
 11220  00d7  00                	DEFB +0x00
 11221  00d8  00                	DEFB +0x00
 11222  00d9  00                	DEFB +0x00
 11223  00da  00                	DEFB +0x00
 11224  00db  00                	DEFB +0x00
 11225  00dc  00                	DEFB +0x00
 11226  00dd  00                	DEFB +0x00
 11227  00de  00                	DEFB +0x00
 11228  00df  00                	DEFB +0x00
 11229  00e0  00                	DEFB +0x00
 11230  00e1  00                	DEFB +0x00
 11231  00e2  00                	DEFB +0x00
 11232  00e3  00                	DEFB +0x00
 11233  00e4  00                	DEFB +0x00
 11234  00e5  00                	DEFB +0x00
 11235  00e6  00                	DEFB +0x00
 11236  00e7  00                	DEFB +0x00
 11237  00e8  00                	DEFB +0x00
 11238  00e9  00                	DEFB +0x00
 11239  00ea  00                	DEFB +0x00
 11240  00eb  00                	DEFB +0x00
 11241  00ec  00                	DEFB +0x00
 11242  00ed  00                	DEFB +0x00
 11243  00ee  00                	DEFB +0x00
 11244  00ef  00                	DEFB +0x00
 11245  00f0  00                	DEFB +0x00
 11246  00f1  00                	DEFB +0x00
 11247  00f2  00                	DEFB +0x00
 11248  00f3  00                	DEFB +0x00
 11249  00f4  00                	DEFB +0x00
 11250  00f5  00                	DEFB +0x00
 11251  00f6  00                	DEFB +0x00
 11252  00f7  00                	DEFB +0x00
 11253  00f8  00                	DEFB +0x00
 11254  00f9  00                	DEFB +0x00
 11255  00fa  00                	DEFB +0x00
 11256  00fb  00                	DEFB +0x00
 11257  00fc  00                	DEFB +0x00
 11258  00fd  00                	DEFB +0x00
 11259  00fe  00                	DEFB +0x00
 11260  00ff  00                	DEFB +0x00
 11261  0100  00                	DEFB +0x00
 11262  0101  00                	DEFB +0x00
 11263  0102  00                	DEFB +0x00
 11264  0103  00                	DEFB +0x00
 11265  0104  00                	DEFB +0x00
 11266  0105  00                	DEFB +0x00
 11267  0106  00                	DEFB +0x00
 11268  0107  00                	DEFB +0x00
 11269  0108  00                	DEFB +0x00
 11270  0109  00                	DEFB +0x00
 11271  010a  00                	DEFB +0x00
 11272  010b  00                	DEFB +0x00
 11273  010c  00                	DEFB +0x00
 11274  010d  00                	DEFB +0x00
 11275  010e  00                	DEFB +0x00
 11276  010f  00                	DEFB +0x00
 11277  0110  00                	DEFB +0x00
 11278  0111  00                	DEFB +0x00
 11279  0112  00                	DEFB +0x00
 11280  0113  00                	DEFB +0x00
 11281  0114  00                	DEFB +0x00
 11282  0115  00                	DEFB +0x00
 11283  0116  00                	DEFB +0x00
 11284  0117  00                	DEFB +0x00
 11285  0118  00                	DEFB +0x00
 11286  0119  18                	DEFB +0x18
 11287  011a  3c                	DEFB +0x3c
 11288  011b  3c                	DEFB +0x3c
 11289  011c  18                	DEFB +0x18
 11290  011d  00                	DEFB +0x00
 11291  011e  00                	DEFB +0x00
 11292  011f  18                	DEFB +0x18
 11293  0120  00                	DEFB +0x00
 11294  0121  66                	DEFB +0x66
 11295  0122  66                	DEFB +0x66
 11296  0123  66                	DEFB +0x66
 11297  0124  00                	DEFB +0x00
 11298  0125  00                	DEFB +0x00
 11299  0126  00                	DEFB +0x00
 11300  0127  00                	DEFB +0x00
 11301  0128  00                	DEFB +0x00
 11302  0129  66                	DEFB +0x66
 11303  012a  66                	DEFB +0x66
 11304  012b  ff                	DEFB +0xff
 11305  012c  66                	DEFB +0x66
 11306  012d  ff                	DEFB +0xff
 11307  012e  66                	DEFB +0x66
 11308  012f  66                	DEFB +0x66
 11309  0130  00                	DEFB +0x00
 11310  0131  18                	DEFB +0x18
 11311  0132  3e                	DEFB +0x3e
 11312  0133  60                	DEFB +0x60
 11313  0134  3c                	DEFB +0x3c
 11314  0135  06                	DEFB +0x06
 11315  0136  7c                	DEFB +0x7c
 11316  0137  18                	DEFB +0x18
 11317  0138  00                	DEFB +0x00
 11318  0139  ff                	DEFB +0xff
 11319  013a  81                	DEFB +0x81
 11320  013b  b9                	DEFB +0xb9
 11321  013c  a5                	DEFB +0xa5
 11322  013d  b9                	DEFB +0xb9
 11323  013e  a5                	DEFB +0xa5
 11324  013f  81                	DEFB +0x81
 11325  0140  ff                	DEFB +0xff
 11326  0141  3c                	DEFB +0x3c
 11327  0142  66                	DEFB +0x66
 11328  0143  3c                	DEFB +0x3c
 11329  0144  38                	DEFB +0x38
 11330  0145  67                	DEFB +0x67
 11331  0146  66                	DEFB +0x66
 11332  0147  3f                	DEFB +0x3f
 11333  0148  00                	DEFB +0x00
 11334  0149  06                	DEFB +0x06
 11335  014a  0c                	DEFB +0x0c
 11336  014b  18                	DEFB +0x18
 11337  014c  00                	DEFB +0x00
 11338  014d  00                	DEFB +0x00
 11339  014e  00                	DEFB +0x00
 11340  014f  00                	DEFB +0x00
 11341  0150  00                	DEFB +0x00
 11342  0151  0c                	DEFB +0x0c
 11343  0152  18                	DEFB +0x18
 11344  0153  30                	DEFB +0x30
 11345  0154  30                	DEFB +0x30
 11346  0155  30                	DEFB +0x30
 11347  0156  18                	DEFB +0x18
 11348  0157  0c                	DEFB +0x0c
 11349  0158  00                	DEFB +0x00
 11350  0159  30                	DEFB +0x30
 11351  015a  18                	DEFB +0x18
 11352  015b  0c                	DEFB +0x0c
 11353  015c  0c                	DEFB +0x0c
 11354  015d  0c                	DEFB +0x0c
 11355  015e  18                	DEFB +0x18
 11356  015f  30                	DEFB +0x30
 11357  0160  00                	DEFB +0x00
 11358  0161  00                	DEFB +0x00
 11359  0162  66                	DEFB +0x66
 11360  0163  3c                	DEFB +0x3c
 11361  0164  ff                	DEFB +0xff
 11362  0165  3c                	DEFB +0x3c
 11363  0166  66                	DEFB +0x66
 11364  0167  00                	DEFB +0x00
 11365  0168  00                	DEFB +0x00
 11366  0169  00                	DEFB +0x00
 11367  016a  18                	DEFB +0x18
 11368  016b  18                	DEFB +0x18
 11369  016c  7e                	DEFB +0x7e
 11370  016d  18                	DEFB +0x18
 11371  016e  18                	DEFB +0x18
 11372  016f  00                	DEFB +0x00
 11373  0170  00                	DEFB +0x00
 11374  0171  00                	DEFB +0x00
 11375  0172  00                	DEFB +0x00
 11376  0173  00                	DEFB +0x00
 11377  0174  00                	DEFB +0x00
 11378  0175  18                	DEFB +0x18
 11379  0176  18                	DEFB +0x18
 11380  0177  30                	DEFB +0x30
 11381  0178  00                	DEFB +0x00
 11382  0179  00                	DEFB +0x00
 11383  017a  00                	DEFB +0x00
 11384  017b  00                	DEFB +0x00
 11385  017c  7e                	DEFB +0x7e
 11386  017d  00                	DEFB +0x00
 11387  017e  00                	DEFB +0x00
 11388  017f  00                	DEFB +0x00
 11389  0180  00                	DEFB +0x00
 11390  0181  00                	DEFB +0x00
 11391  0182  00                	DEFB +0x00
 11392  0183  00                	DEFB +0x00
 11393  0184  00                	DEFB +0x00
 11394  0185  00                	DEFB +0x00
 11395  0186  18                	DEFB +0x18
 11396  0187  18                	DEFB +0x18
 11397  0188  00                	DEFB +0x00
 11398  0189  00                	DEFB +0x00
 11399  018a  06                	DEFB +0x06
 11400  018b  0c                	DEFB +0x0c
 11401  018c  18                	DEFB +0x18
 11402  018d  30                	DEFB +0x30
 11403  018e  60                	DEFB +0x60
 11404  018f  c0                	DEFB +0xc0
 11405  0190  00                	DEFB +0x00
 11406  0191  fe                	DEFB +0xfe
 11407  0192  c6                	DEFB +0xc6
 11408  0193  c6                	DEFB +0xc6
 11409  0194  e6                	DEFB +0xe6
 11410  0195  e6                	DEFB +0xe6
 11411  0196  e6                	DEFB +0xe6
 11412  0197  fe                	DEFB +0xfe
 11413  0198  00                	DEFB +0x00
 11414  0199  38                	DEFB +0x38
 11415  019a  38                	DEFB +0x38
 11416  019b  18                	DEFB +0x18
 11417  019c  18                	DEFB +0x18
 11418  019d  18                	DEFB +0x18
 11419  019e  3c                	DEFB +0x3c
 11420  019f  3c                	DEFB +0x3c
 11421  01a0  00                	DEFB +0x00
 11422  01a1  fe                	DEFB +0xfe
 11423  01a2  06                	DEFB +0x06
 11424  01a3  06                	DEFB +0x06
 11425  01a4  fe                	DEFB +0xfe
 11426  01a5  c0                	DEFB +0xc0
 11427  01a6  c0                	DEFB +0xc0
 11428  01a7  fe                	DEFB +0xfe
 11429  01a8  00                	DEFB +0x00
 11430  01a9  fc                	DEFB +0xfc
 11431  01aa  0c                	DEFB +0x0c
 11432  01ab  0c                	DEFB +0x0c
 11433  01ac  7e                	DEFB +0x7e
 11434  01ad  0e                	DEFB +0x0e
 11435  01ae  0e                	DEFB +0x0e
 11436  01af  fe                	DEFB +0xfe
 11437  01b0  00                	DEFB +0x00
 11438  01b1  c0                	DEFB +0xc0
 11439  01b2  c0                	DEFB +0xc0
 11440  01b3  c6                	DEFB +0xc6
 11441  01b4  c6                	DEFB +0xc6
 11442  01b5  fe                	DEFB +0xfe
 11443  01b6  06                	DEFB +0x06
 11444  01b7  06                	DEFB +0x06
 11445  01b8  00                	DEFB +0x00
 11446  01b9  fe                	DEFB +0xfe
 11447  01ba  c0                	DEFB +0xc0
 11448  01bb  c0                	DEFB +0xc0
 11449  01bc  fe                	DEFB +0xfe
 11450  01bd  06                	DEFB +0x06
 11451  01be  06                	DEFB +0x06
 11452  01bf  fe                	DEFB +0xfe
 11453  01c0  00                	DEFB +0x00
 11454  01c1  fc                	DEFB +0xfc
 11455  01c2  cc                	DEFB +0xcc
 11456  01c3  c0                	DEFB +0xc0
 11457  01c4  fe                	DEFB +0xfe
 11458  01c5  c6                	DEFB +0xc6
 11459  01c6  c6                	DEFB +0xc6
 11460  01c7  fe                	DEFB +0xfe
 11461  01c8  00                	DEFB +0x00
 11462  01c9  fe                	DEFB +0xfe
 11463  01ca  c6                	DEFB +0xc6
 11464  01cb  0c                	DEFB +0x0c
 11465  01cc  18                	DEFB +0x18
 11466  01cd  38                	DEFB +0x38
 11467  01ce  38                	DEFB +0x38
 11468  01cf  38                	DEFB +0x38
 11469  01d0  00                	DEFB +0x00
 11470  01d1  7e                	DEFB +0x7e
 11471  01d2  66                	DEFB +0x66
 11472  01d3  66                	DEFB +0x66
 11473  01d4  fe                	DEFB +0xfe
 11474  01d5  e6                	DEFB +0xe6
 11475  01d6  e6                	DEFB +0xe6
 11476  01d7  fe                	DEFB +0xfe
 11477  01d8  00                	DEFB +0x00
 11478  01d9  fe                	DEFB +0xfe
 11479  01da  c6                	DEFB +0xc6
 11480  01db  c6                	DEFB +0xc6
 11481  01dc  fe                	DEFB +0xfe
 11482  01dd  0e                	DEFB +0x0e
 11483  01de  0e                	DEFB +0x0e
 11484  01df  0e                	DEFB +0x0e
 11485  01e0  00                	DEFB +0x00
 11486  01e1  00                	DEFB +0x00
 11487  01e2  00                	DEFB +0x00
 11488  01e3  18                	DEFB +0x18
 11489  01e4  00                	DEFB +0x00
 11490  01e5  00                	DEFB +0x00
 11491  01e6  18                	DEFB +0x18
 11492  01e7  00                	DEFB +0x00
 11493  01e8  00                	DEFB +0x00
 11494  01e9  00                	DEFB +0x00
 11495  01ea  00                	DEFB +0x00
 11496  01eb  18                	DEFB +0x18
 11497  01ec  00                	DEFB +0x00
 11498  01ed  00                	DEFB +0x00
 11499  01ee  18                	DEFB +0x18
 11500  01ef  30                	DEFB +0x30
 11501  01f0  00                	DEFB +0x00
 11502  01f1  0c                	DEFB +0x0c
 11503  01f2  18                	DEFB +0x18
 11504  01f3  30                	DEFB +0x30
 11505  01f4  60                	DEFB +0x60
 11506  01f5  30                	DEFB +0x30
 11507  01f6  18                	DEFB +0x18
 11508  01f7  0c                	DEFB +0x0c
 11509  01f8  00                	DEFB +0x00
 11510  01f9  00                	DEFB +0x00
 11511  01fa  00                	DEFB +0x00
 11512  01fb  7e                	DEFB +0x7e
 11513  01fc  00                	DEFB +0x00
 11514  01fd  7e                	DEFB +0x7e
 11515  01fe  00                	DEFB +0x00
 11516  01ff  00                	DEFB +0x00
 11517  0200  00                	DEFB +0x00
 11518  0201  30                	DEFB +0x30
 11519  0202  18                	DEFB +0x18
 11520  0203  0c                	DEFB +0x0c
 11521  0204  06                	DEFB +0x06
 11522  0205  0c                	DEFB +0x0c
 11523  0206  18                	DEFB +0x18
 11524  0207  30                	DEFB +0x30
 11525  0208  00                	DEFB +0x00
 11526  0209  3c                	DEFB +0x3c
 11527  020a  66                	DEFB +0x66
 11528  020b  06                	DEFB +0x06
 11529  020c  0c                	DEFB +0x0c
 11530  020d  18                	DEFB +0x18
 11531  020e  00                	DEFB +0x00
 11532  020f  18                	DEFB +0x18
 11533  0210  00                	DEFB +0x00
 11534  0211  fe                	DEFB +0xfe
 11535  0212  fe                	DEFB +0xfe
 11536  0213  c6                	DEFB +0xc6
 11537  0214  d6                	DEFB +0xd6
 11538  0215  dc                	DEFB +0xdc
 11539  0216  c0                	DEFB +0xc0
 11540  0217  fe                	DEFB +0xfe
 11541  0218  fe                	DEFB +0xfe
 11542  0219  7e                	DEFB +0x7e
 11543  021a  66                	DEFB +0x66
 11544  021b  66                	DEFB +0x66
 11545  021c  7e                	DEFB +0x7e
 11546  021d  e6                	DEFB +0xe6
 11547  021e  e6                	DEFB +0xe6
 11548  021f  e6                	DEFB +0xe6
 11549  0220  00                	DEFB +0x00
 11550  0221  fc                	DEFB +0xfc
 11551  0222  cc                	DEFB +0xcc
 11552  0223  cc                	DEFB +0xcc
 11553  0224  fe                	DEFB +0xfe
 11554  0225  c6                	DEFB +0xc6
 11555  0226  c6                	DEFB +0xc6
 11556  0227  fe                	DEFB +0xfe
 11557  0228  00                	DEFB +0x00
 11558  0229  fe                	DEFB +0xfe
 11559  022a  ce                	DEFB +0xce
 11560  022b  ce                	DEFB +0xce
 11561  022c  c0                	DEFB +0xc0
 11562  022d  c0                	DEFB +0xc0
 11563  022e  c6                	DEFB +0xc6
 11564  022f  fe                	DEFB +0xfe
 11565  0230  00                	DEFB +0x00
 11566  0231  fc                	DEFB +0xfc
 11567  0232  e6                	DEFB +0xe6
 11568  0233  e6                	DEFB +0xe6
 11569  0234  e6                	DEFB +0xe6
 11570  0235  e6                	DEFB +0xe6
 11571  0236  e6                	DEFB +0xe6
 11572  0237  fc                	DEFB +0xfc
 11573  0238  00                	DEFB +0x00
 11574  0239  fe                	DEFB +0xfe
 11575  023a  c0                	DEFB +0xc0
 11576  023b  c0                	DEFB +0xc0
 11577  023c  f8                	DEFB +0xf8
 11578  023d  e0                	DEFB +0xe0
 11579  023e  e0                	DEFB +0xe0
 11580  023f  fe                	DEFB +0xfe
 11581  0240  00                	DEFB +0x00
 11582  0241  fe                	DEFB +0xfe
 11583  0242  e0                	DEFB +0xe0
 11584  0243  e0                	DEFB +0xe0
 11585  0244  f8                	DEFB +0xf8
 11586  0245  60                	DEFB +0x60
 11587  0246  60                	DEFB +0x60
 11588  0247  60                	DEFB +0x60
 11589  0248  00                	DEFB +0x00
 11590  0249  fe                	DEFB +0xfe
 11591  024a  c6                	DEFB +0xc6
 11592  024b  c0                	DEFB +0xc0
 11593  024c  c0                	DEFB +0xc0
 11594  024d  ce                	DEFB +0xce
 11595  024e  c6                	DEFB +0xc6
 11596  024f  fe                	DEFB +0xfe
 11597  0250  00                	DEFB +0x00
 11598  0251  c6                	DEFB +0xc6
 11599  0252  c6                	DEFB +0xc6
 11600  0253  c6                	DEFB +0xc6
 11601  0254  fe                	DEFB +0xfe
 11602  0255  e6                	DEFB +0xe6
 11603  0256  e6                	DEFB +0xe6
 11604  0257  e6                	DEFB +0xe6
 11605  0258  00                	DEFB +0x00
 11606  0259  18                	DEFB +0x18
 11607  025a  18                	DEFB +0x18
 11608  025b  18                	DEFB +0x18
 11609  025c  38                	DEFB +0x38
 11610  025d  38                	DEFB +0x38
 11611  025e  38                	DEFB +0x38
 11612  025f  38                	DEFB +0x38
 11613  0260  00                	DEFB +0x00
 11614  0261  3e                	DEFB +0x3e
 11615  0262  0c                	DEFB +0x0c
 11616  0263  0c                	DEFB +0x0c
 11617  0264  0e                	DEFB +0x0e
 11618  0265  ce                	DEFB +0xce
 11619  0266  ce                	DEFB +0xce
 11620  0267  fe                	DEFB +0xfe
 11621  0268  00                	DEFB +0x00
 11622  0269  c6                	DEFB +0xc6
 11623  026a  cc                	DEFB +0xcc
 11624  026b  d8                	DEFB +0xd8
 11625  026c  fe                	DEFB +0xfe
 11626  026d  e6                	DEFB +0xe6
 11627  026e  e6                	DEFB +0xe6
 11628  026f  e6                	DEFB +0xe6
 11629  0270  00                	DEFB +0x00
 11630  0271  60                	DEFB +0x60
 11631  0272  60                	DEFB +0x60
 11632  0273  60                	DEFB +0x60
 11633  0274  e0                	DEFB +0xe0
 11634  0275  e0                	DEFB +0xe0
 11635  0276  e0                	DEFB +0xe0
 11636  0277  fe                	DEFB +0xfe
 11637  0278  00                	DEFB +0x00
 11638  0279  c6                	DEFB +0xc6
 11639  027a  ee                	DEFB +0xee
 11640  027b  fe                	DEFB +0xfe
 11641  027c  d6                	DEFB +0xd6
 11642  027d  c6                	DEFB +0xc6
 11643  027e  c6                	DEFB +0xc6
 11644  027f  c6                	DEFB +0xc6
 11645  0280  00                	DEFB +0x00
 11646  0281  e6                	DEFB +0xe6
 11647  0282  f6                	DEFB +0xf6
 11648  0283  de                	DEFB +0xde
 11649  0284  ce                	DEFB +0xce
 11650  0285  e6                	DEFB +0xe6
 11651  0286  e6                	DEFB +0xe6
 11652  0287  e6                	DEFB +0xe6
 11653  0288  00                	DEFB +0x00
 11654  0289  fe                	DEFB +0xfe
 11655  028a  c6                	DEFB +0xc6
 11656  028b  c6                	DEFB +0xc6
 11657  028c  ce                	DEFB +0xce
 11658  028d  ce                	DEFB +0xce
 11659  028e  ce                	DEFB +0xce
 11660  028f  fe                	DEFB +0xfe
 11661  0290  00                	DEFB +0x00
 11662  0291  fe                	DEFB +0xfe
 11663  0292  c6                	DEFB +0xc6
 11664  0293  c6                	DEFB +0xc6
 11665  0294  fe                	DEFB +0xfe
 11666  0295  e0                	DEFB +0xe0
 11667  0296  e0                	DEFB +0xe0
 11668  0297  e0                	DEFB +0xe0
 11669  0298  00                	DEFB +0x00
 11670  0299  fe                	DEFB +0xfe
 11671  029a  c6                	DEFB +0xc6
 11672  029b  c6                	DEFB +0xc6
 11673  029c  c6                	DEFB +0xc6
 11674  029d  c6                	DEFB +0xc6
 11675  029e  ce                	DEFB +0xce
 11676  029f  fe                	DEFB +0xfe
 11677  02a0  0f                	DEFB +0x0f
 11678  02a1  fc                	DEFB +0xfc
 11679  02a2  e6                	DEFB +0xe6
 11680  02a3  e6                	DEFB +0xe6
 11681  02a4  fc                	DEFB +0xfc
 11682  02a5  ce                	DEFB +0xce
 11683  02a6  ce                	DEFB +0xce
 11684  02a7  ce                	DEFB +0xce
 11685  02a8  00                	DEFB +0x00
 11686  02a9  fe                	DEFB +0xfe
 11687  02aa  c6                	DEFB +0xc6
 11688  02ab  c0                	DEFB +0xc0
 11689  02ac  fe                	DEFB +0xfe
 11690  02ad  06                	DEFB +0x06
 11691  02ae  e6                	DEFB +0xe6
 11692  02af  fe                	DEFB +0xfe
 11693  02b0  00                	DEFB +0x00
 11694  02b1  7e                	DEFB +0x7e
 11695  02b2  18                	DEFB +0x18
 11696  02b3  18                	DEFB +0x18
 11697  02b4  38                	DEFB +0x38
 11698  02b5  38                	DEFB +0x38
 11699  02b6  38                	DEFB +0x38
 11700  02b7  38                	DEFB +0x38
 11701  02b8  00                	DEFB +0x00
 11702  02b9  c6                	DEFB +0xc6
 11703  02ba  c6                	DEFB +0xc6
 11704  02bb  c6                	DEFB +0xc6
 11705  02bc  ce                	DEFB +0xce
 11706  02bd  ce                	DEFB +0xce
 11707  02be  ce                	DEFB +0xce
 11708  02bf  fe                	DEFB +0xfe
 11709  02c0  00                	DEFB +0x00
 11710  02c1  c6                	DEFB +0xc6
 11711  02c2  c6                	DEFB +0xc6
 11712  02c3  c6                	DEFB +0xc6
 11713  02c4  c6                	DEFB +0xc6
 11714  02c5  c6                	DEFB +0xc6
 11715  02c6  6c                	DEFB +0x6c
 11716  02c7  38                	DEFB +0x38
 11717  02c8  00                	DEFB +0x00
 11718  02c9  c6                	DEFB +0xc6
 11719  02ca  c6                	DEFB +0xc6
 11720  02cb  c6                	DEFB +0xc6
 11721  02cc  c6                	DEFB +0xc6
 11722  02cd  d6                	DEFB +0xd6
 11723  02ce  fe                	DEFB +0xfe
 11724  02cf  ee                	DEFB +0xee
 11725  02d0  00                	DEFB +0x00
 11726  02d1  c6                	DEFB +0xc6
 11727  02d2  c6                	DEFB +0xc6
 11728  02d3  6c                	DEFB +0x6c
 11729  02d4  38                	DEFB +0x38
 11730  02d5  6c                	DEFB +0x6c
 11731  02d6  c6                	DEFB +0xc6
 11732  02d7  c6                	DEFB +0xc6
 11733  02d8  00                	DEFB +0x00
 11734  02d9  c6                	DEFB +0xc6
 11735  02da  c6                	DEFB +0xc6
 11736  02db  6c                	DEFB +0x6c
 11737  02dc  38                	DEFB +0x38
 11738  02dd  38                	DEFB +0x38
 11739  02de  38                	DEFB +0x38
 11740  02df  38                	DEFB +0x38
 11741  02e0  00                	DEFB +0x00
 11742  02e1  fe                	DEFB +0xfe
 11743  02e2  cc                	DEFB +0xcc
 11744  02e3  18                	DEFB +0x18
 11745  02e4  30                	DEFB +0x30
 11746  02e5  60                	DEFB +0x60
 11747  02e6  c6                	DEFB +0xc6
 11748  02e7  fe                	DEFB +0xfe
 11749  02e8  00                	DEFB +0x00
 11750  02e9  00                	DEFB +0x00
 11751  02ea  00                	DEFB +0x00
 11752  02eb  00                	DEFB +0x00
 11753  02ec  00                	DEFB +0x00
 11754  02ed  00                	DEFB +0x00
 11755  02ee  00                	DEFB +0x00
 11756  02ef  00                	DEFB +0x00
 11757  02f0  00                	DEFB +0x00
 11758  02f1  00                	DEFB +0x00
 11759  02f2  00                	DEFB +0x00
 11760  02f3  00                	DEFB +0x00
 11761  02f4  00                	DEFB +0x00
 11762  02f5  00                	DEFB +0x00
 11763  02f6  00                	DEFB +0x00
 11764  02f7  00                	DEFB +0x00
 11765  02f8  00                	DEFB +0x00
 11766  02f9  00                	DEFB +0x00
 11767  02fa  00                	DEFB +0x00
 11768  02fb  00                	DEFB +0x00
 11769  02fc  00                	DEFB +0x00
 11770  02fd  00                	DEFB +0x00
 11771  02fe  00                	DEFB +0x00
 11772  02ff  00                	DEFB +0x00
 11773  0300  00                	DEFB +0x00
 11774  0301  00                	DEFB +0x00
 11775  0302  00                	DEFB +0x00
 11776  0303  00                	DEFB +0x00
 11777  0304  00                	DEFB +0x00
 11778  0305  00                	DEFB +0x00
 11779  0306  00                	DEFB +0x00
 11780  0307  00                	DEFB +0x00
 11781  0308  00                	DEFB +0x00
 11782  0309  00                	DEFB +0x00
 11783  030a  00                	DEFB +0x00
 11784  030b  00                	DEFB +0x00
 11785  030c  00                	DEFB +0x00
 11786  030d  00                	DEFB +0x00
 11787  030e  00                	DEFB +0x00
 11788  030f  00                	DEFB +0x00
 11789  0310  00                	DEFB +0x00
 11790  0311  00                	DEFB +0x00
 11791  0312  00                	DEFB +0x00
 11792  0313  00                	DEFB +0x00
 11793  0314  00                	DEFB +0x00
 11794  0315  00                	DEFB +0x00
 11795  0316  00                	DEFB +0x00
 11796  0317  00                	DEFB +0x00
 11797  0318  00                	DEFB +0x00
 11798  0319  00                	DEFB +0x00
 11799  031a  00                	DEFB +0x00
 11800  031b  00                	DEFB +0x00
 11801  031c  00                	DEFB +0x00
 11802  031d  00                	DEFB +0x00
 11803  031e  00                	DEFB +0x00
 11804  031f  00                	DEFB +0x00
 11805  0320  00                	DEFB +0x00
 11806  0321  00                	DEFB +0x00
 11807  0322  00                	DEFB +0x00
 11808  0323  00                	DEFB +0x00
 11809  0324  00                	DEFB +0x00
 11810  0325  00                	DEFB +0x00
 11811  0326  00                	DEFB +0x00
 11812  0327  00                	DEFB +0x00
 11813  0328  00                	DEFB +0x00
 11814  0329  00                	DEFB +0x00
 11815  032a  00                	DEFB +0x00
 11816  032b  00                	DEFB +0x00
 11817  032c  00                	DEFB +0x00
 11818  032d  00                	DEFB +0x00
 11819  032e  00                	DEFB +0x00
 11820  032f  00                	DEFB +0x00
 11821  0330  00                	DEFB +0x00
 11822  0331  00                	DEFB +0x00
 11823  0332  00                	DEFB +0x00
 11824  0333  00                	DEFB +0x00
 11825  0334  00                	DEFB +0x00
 11826  0335  00                	DEFB +0x00
 11827  0336  00                	DEFB +0x00
 11828  0337  00                	DEFB +0x00
 11829  0338  00                	DEFB +0x00
 11830  0339  00                	DEFB +0x00
 11831  033a  00                	DEFB +0x00
 11832  033b  00                	DEFB +0x00
 11833  033c  00                	DEFB +0x00
 11834  033d  00                	DEFB +0x00
 11835  033e  00                	DEFB +0x00
 11836  033f  00                	DEFB +0x00
 11837  0340  00                	DEFB +0x00
 11838  0341  00                	DEFB +0x00
 11839  0342  00                	DEFB +0x00
 11840  0343  00                	DEFB +0x00
 11841  0344  00                	DEFB +0x00
 11842  0345  00                	DEFB +0x00
 11843  0346  00                	DEFB +0x00
 11844  0347  00                	DEFB +0x00
 11845  0348  00                	DEFB +0x00
 11846  0349  00                	DEFB +0x00
 11847  034a  00                	DEFB +0x00
 11848  034b  00                	DEFB +0x00
 11849  034c  00                	DEFB +0x00
 11850  034d  00                	DEFB +0x00
 11851  034e  00                	DEFB +0x00
 11852  034f  00                	DEFB +0x00
 11853  0350  00                	DEFB +0x00
 11854  0351  00                	DEFB +0x00
 11855  0352  00                	DEFB +0x00
 11856  0353  00                	DEFB +0x00
 11857  0354  00                	DEFB +0x00
 11858  0355  00                	DEFB +0x00
 11859  0356  00                	DEFB +0x00
 11860  0357  00                	DEFB +0x00
 11861  0358  00                	DEFB +0x00
 11862  0359  00                	DEFB +0x00
 11863  035a  00                	DEFB +0x00
 11864  035b  00                	DEFB +0x00
 11865  035c  00                	DEFB +0x00
 11866  035d  00                	DEFB +0x00
 11867  035e  00                	DEFB +0x00
 11868  035f  00                	DEFB +0x00
 11869  0360  00                	DEFB +0x00
 11870  0361  00                	DEFB +0x00
 11871  0362  00                	DEFB +0x00
 11872  0363  00                	DEFB +0x00
 11873  0364  00                	DEFB +0x00
 11874  0365  00                	DEFB +0x00
 11875  0366  00                	DEFB +0x00
 11876  0367  00                	DEFB +0x00
 11877  0368  00                	DEFB +0x00
 11878  0369  00                	DEFB +0x00
 11879  036a  00                	DEFB +0x00
 11880  036b  00                	DEFB +0x00
 11881  036c  00                	DEFB +0x00
 11882  036d  00                	DEFB +0x00
 11883  036e  00                	DEFB +0x00
 11884  036f  00                	DEFB +0x00
 11885  0370  00                	DEFB +0x00
 11886  0371  00                	DEFB +0x00
 11887  0372  00                	DEFB +0x00
 11888  0373  00                	DEFB +0x00
 11889  0374  00                	DEFB +0x00
 11890  0375  00                	DEFB +0x00
 11891  0376  00                	DEFB +0x00
 11892  0377  00                	DEFB +0x00
 11893  0378  00                	DEFB +0x00
 11894  0379  00                	DEFB +0x00
 11895  037a  00                	DEFB +0x00
 11896  037b  00                	DEFB +0x00
 11897  037c  00                	DEFB +0x00
 11898  037d  00                	DEFB +0x00
 11899  037e  00                	DEFB +0x00
 11900  037f  00                	DEFB +0x00
 11901  0380  00                	DEFB +0x00
 11902  0381  00                	DEFB +0x00
 11903  0382  00                	DEFB +0x00
 11904  0383  00                	DEFB +0x00
 11905  0384  00                	DEFB +0x00
 11906  0385  00                	DEFB +0x00
 11907  0386  00                	DEFB +0x00
 11908  0387  00                	DEFB +0x00
 11909  0388  00                	DEFB +0x00
 11910  0389  00                	DEFB +0x00
 11911  038a  00                	DEFB +0x00
 11912  038b  00                	DEFB +0x00
 11913  038c  00                	DEFB +0x00
 11914  038d  00                	DEFB +0x00
 11915  038e  00                	DEFB +0x00
 11916  038f  00                	DEFB +0x00
 11917  0390  00                	DEFB +0x00
 11918  0391  00                	DEFB +0x00
 11919  0392  00                	DEFB +0x00
 11920  0393  00                	DEFB +0x00
 11921  0394  00                	DEFB +0x00
 11922  0395  00                	DEFB +0x00
 11923  0396  00                	DEFB +0x00
 11924  0397  00                	DEFB +0x00
 11925  0398  00                	DEFB +0x00
 11926  0399  00                	DEFB +0x00
 11927  039a  00                	DEFB +0x00
 11928  039b  00                	DEFB +0x00
 11929  039c  00                	DEFB +0x00
 11930  039d  00                	DEFB +0x00
 11931  039e  00                	DEFB +0x00
 11932  039f  00                	DEFB +0x00
 11933  03a0  00                	DEFB +0x00
 11934  03a1  00                	DEFB +0x00
 11935  03a2  00                	DEFB +0x00
 11936  03a3  00                	DEFB +0x00
 11937  03a4  00                	DEFB +0x00
 11938  03a5  00                	DEFB +0x00
 11939  03a6  00                	DEFB +0x00
 11940  03a7  00                	DEFB +0x00
 11941  03a8  00                	DEFB +0x00
 11942  03a9  00                	DEFB +0x00
 11943  03aa  00                	DEFB +0x00
 11944  03ab  00                	DEFB +0x00
 11945  03ac  00                	DEFB +0x00
 11946  03ad  00                	DEFB +0x00
 11947  03ae  00                	DEFB +0x00
 11948  03af  00                	DEFB +0x00
 11949  03b0  00                	DEFB +0x00
 11950  03b1  00                	DEFB +0x00
 11951  03b2  00                	DEFB +0x00
 11952  03b3  00                	DEFB +0x00
 11953  03b4  00                	DEFB +0x00
 11954  03b5  00                	DEFB +0x00
 11955  03b6  00                	DEFB +0x00
 11956  03b7  00                	DEFB +0x00
 11957  03b8  00                	DEFB +0x00
 11958  03b9  00                	DEFB +0x00
 11959  03ba  00                	DEFB +0x00
 11960  03bb  00                	DEFB +0x00
 11961  03bc  00                	DEFB +0x00
 11962  03bd  00                	DEFB +0x00
 11963  03be  00                	DEFB +0x00
 11964  03bf  00                	DEFB +0x00
 11965  03c0  00                	DEFB +0x00
 11966  03c1  00                	DEFB +0x00
 11967  03c2  00                	DEFB +0x00
 11968  03c3  00                	DEFB +0x00
 11969  03c4  00                	DEFB +0x00
 11970  03c5  00                	DEFB +0x00
 11971  03c6  00                	DEFB +0x00
 11972  03c7  00                	DEFB +0x00
 11973  03c8  00                	DEFB +0x00
 11974  03c9  00                	DEFB +0x00
 11975  03ca  00                	DEFB +0x00
 11976  03cb  00                	DEFB +0x00
 11977  03cc  00                	DEFB +0x00
 11978  03cd  00                	DEFB +0x00
 11979  03ce  00                	DEFB +0x00
 11980  03cf  00                	DEFB +0x00
 11981  03d0  00                	DEFB +0x00
 11982  03d1  00                	DEFB +0x00
 11983  03d2  00                	DEFB +0x00
 11984  03d3  00                	DEFB +0x00
 11985  03d4  00                	DEFB +0x00
 11986  03d5  00                	DEFB +0x00
 11987  03d6  00                	DEFB +0x00
 11988  03d7  00                	DEFB +0x00
 11989  03d8  00                	DEFB +0x00
 11990  03d9  00                	DEFB +0x00
 11991  03da  00                	DEFB +0x00
 11992  03db  00                	DEFB +0x00
 11993  03dc  00                	DEFB +0x00
 11994  03dd  00                	DEFB +0x00
 11995  03de  00                	DEFB +0x00
 11996  03df  00                	DEFB +0x00
 11997  03e0  00                	DEFB +0x00
 11998  03e1  00                	DEFB +0x00
 11999  03e2  00                	DEFB +0x00
 12000  03e3  00                	DEFB +0x00
 12001  03e4  00                	DEFB +0x00
 12002  03e5  00                	DEFB +0x00
 12003  03e6  00                	DEFB +0x00
 12004  03e7  00                	DEFB +0x00
 12005  03e8  00                	DEFB +0x00
 12006  03e9  00                	DEFB +0x00
 12007  03ea  00                	DEFB +0x00
 12008  03eb  00                	DEFB +0x00
 12009  03ec  00                	DEFB +0x00
 12010  03ed  00                	DEFB +0x00
 12011  03ee  00                	DEFB +0x00
 12012  03ef  00                	DEFB +0x00
 12013  03f0  00                	DEFB +0x00
 12014  03f1  00                	DEFB +0x00
 12015  03f2  00                	DEFB +0x00
 12016  03f3  00                	DEFB +0x00
 12017  03f4  00                	DEFB +0x00
 12018  03f5  00                	DEFB +0x00
 12019  03f6  00                	DEFB +0x00
 12020  03f7  00                	DEFB +0x00
 12021  03f8  00                	DEFB +0x00
 12022  03f9  00                	DEFB +0x00
 12023  03fa  00                	DEFB +0x00
 12024  03fb  00                	DEFB +0x00
 12025  03fc  00                	DEFB +0x00
 12026  03fd  00                	DEFB +0x00
 12027  03fe  00                	DEFB +0x00
 12028  03ff  00                	DEFB +0x00
 12029  0400  00                	DEFB +0x00
 12030  0401  00                	DEFB +0x00
 12031  0402  00                	DEFB +0x00
 12032  0403  00                	DEFB +0x00
 12033  0404  00                	DEFB +0x00
 12034  0405  00                	DEFB +0x00
 12035  0406  00                	DEFB +0x00
 12036  0407  00                	DEFB +0x00
 12037  0408  00                	DEFB +0x00
 12038  0409  00                	DEFB +0x00
 12039  040a  00                	DEFB +0x00
 12040  040b  00                	DEFB +0x00
 12041  040c  00                	DEFB +0x00
 12042  040d  00                	DEFB +0x00
 12043  040e  00                	DEFB +0x00
 12044  040f  00                	DEFB +0x00
 12045  0410  00                	DEFB +0x00
 12046  0411  00                	DEFB +0x00
 12047  0412  00                	DEFB +0x00
 12048  0413  00                	DEFB +0x00
 12049  0414  00                	DEFB +0x00
 12050  0415  00                	DEFB +0x00
 12051  0416  00                	DEFB +0x00
 12052  0417  00                	DEFB +0x00
 12053  0418  00                	DEFB +0x00
 12054  0419  00                	DEFB +0x00
 12055  041a  00                	DEFB +0x00
 12056  041b  00                	DEFB +0x00
 12057  041c  00                	DEFB +0x00
 12058  041d  00                	DEFB +0x00
 12059  041e  00                	DEFB +0x00
 12060  041f  00                	DEFB +0x00
 12061  0420  00                	DEFB +0x00
 12062  0421  00                	DEFB +0x00
 12063  0422  00                	DEFB +0x00
 12064  0423  00                	DEFB +0x00
 12065  0424  00                	DEFB +0x00
 12066  0425  00                	DEFB +0x00
 12067  0426  00                	DEFB +0x00
 12068  0427  00                	DEFB +0x00
 12069  0428  00                	DEFB +0x00
 12070  0429  00                	DEFB +0x00
 12071  042a  00                	DEFB +0x00
 12072  042b  00                	DEFB +0x00
 12073  042c  00                	DEFB +0x00
 12074  042d  00                	DEFB +0x00
 12075  042e  00                	DEFB +0x00
 12076  042f  00                	DEFB +0x00
 12077  0430  00                	DEFB +0x00
 12078  0431  00                	DEFB +0x00
 12079  0432  00                	DEFB +0x00
 12080  0433  00                	DEFB +0x00
 12081  0434  00                	DEFB +0x00
 12082  0435  00                	DEFB +0x00
 12083  0436  00                	DEFB +0x00
 12084  0437  00                	DEFB +0x00
 12085  0438  00                	DEFB +0x00
 12086  0439  00                	DEFB +0x00
 12087  043a  00                	DEFB +0x00
 12088  043b  00                	DEFB +0x00
 12089  043c  00                	DEFB +0x00
 12090  043d  00                	DEFB +0x00
 12091  043e  00                	DEFB +0x00
 12092  043f  00                	DEFB +0x00
 12093  0440  00                	DEFB +0x00
 12094  0441  00                	DEFB +0x00
 12095  0442  00                	DEFB +0x00
 12096  0443  00                	DEFB +0x00
 12097  0444  00                	DEFB +0x00
 12098  0445  00                	DEFB +0x00
 12099  0446  00                	DEFB +0x00
 12100  0447  00                	DEFB +0x00
 12101  0448  00                	DEFB +0x00
 12102  0449  00                	DEFB +0x00
 12103  044a  00                	DEFB +0x00
 12104  044b  00                	DEFB +0x00
 12105  044c  00                	DEFB +0x00
 12106  044d  00                	DEFB +0x00
 12107  044e  00                	DEFB +0x00
 12108  044f  00                	DEFB +0x00
 12109  0450  00                	DEFB +0x00
 12110  0451  00                	DEFB +0x00
 12111  0452  00                	DEFB +0x00
 12112  0453  00                	DEFB +0x00
 12113  0454  00                	DEFB +0x00
 12114  0455  00                	DEFB +0x00
 12115  0456  00                	DEFB +0x00
 12116  0457  00                	DEFB +0x00
 12117  0458  00                	DEFB +0x00
 12118  0459  00                	DEFB +0x00
 12119  045a  00                	DEFB +0x00
 12120  045b  00                	DEFB +0x00
 12121  045c  00                	DEFB +0x00
 12122  045d  00                	DEFB +0x00
 12123  045e  00                	DEFB +0x00
 12124  045f  00                	DEFB +0x00
 12125  0460  00                	DEFB +0x00
 12126  0461  00                	DEFB +0x00
 12127  0462  00                	DEFB +0x00
 12128  0463  00                	DEFB +0x00
 12129  0464  00                	DEFB +0x00
 12130  0465  00                	DEFB +0x00
 12131  0466  00                	DEFB +0x00
 12132  0467  00                	DEFB +0x00
 12133  0468  00                	DEFB +0x00
 12134  0469  00                	DEFB +0x00
 12135  046a  00                	DEFB +0x00
 12136  046b  00                	DEFB +0x00
 12137  046c  00                	DEFB +0x00
 12138  046d  00                	DEFB +0x00
 12139  046e  00                	DEFB +0x00
 12140  046f  00                	DEFB +0x00
 12141  0470  00                	DEFB +0x00
 12142  0471  00                	DEFB +0x00
 12143  0472  00                	DEFB +0x00
 12144  0473  00                	DEFB +0x00
 12145  0474  00                	DEFB +0x00
 12146  0475  00                	DEFB +0x00
 12147  0476  00                	DEFB +0x00
 12148  0477  00                	DEFB +0x00
 12149  0478  00                	DEFB +0x00
 12150  0479  00                	DEFB +0x00
 12151  047a  00                	DEFB +0x00
 12152  047b  00                	DEFB +0x00
 12153  047c  00                	DEFB +0x00
 12154  047d  00                	DEFB +0x00
 12155  047e  00                	DEFB +0x00
 12156  047f  00                	DEFB +0x00
 12157  0480  00                	DEFB +0x00
 12158  0481  00                	DEFB +0x00
 12159  0482  00                	DEFB +0x00
 12160  0483  00                	DEFB +0x00
 12161  0484  00                	DEFB +0x00
 12162  0485  00                	DEFB +0x00
 12163  0486  00                	DEFB +0x00
 12164  0487  00                	DEFB +0x00
 12165  0488  00                	DEFB +0x00
 12166  0489  00                	DEFB +0x00
 12167  048a  00                	DEFB +0x00
 12168  048b  00                	DEFB +0x00
 12169  048c  00                	DEFB +0x00
 12170  048d  00                	DEFB +0x00
 12171  048e  00                	DEFB +0x00
 12172  048f  00                	DEFB +0x00
 12173  0490  00                	DEFB +0x00
 12174  0491  00                	DEFB +0x00
 12175  0492  00                	DEFB +0x00
 12176  0493  00                	DEFB +0x00
 12177  0494  00                	DEFB +0x00
 12178  0495  00                	DEFB +0x00
 12179  0496  00                	DEFB +0x00
 12180  0497  00                	DEFB +0x00
 12181  0498  00                	DEFB +0x00
 12182  0499  00                	DEFB +0x00
 12183  049a  00                	DEFB +0x00
 12184  049b  00                	DEFB +0x00
 12185  049c  00                	DEFB +0x00
 12186  049d  00                	DEFB +0x00
 12187  049e  00                	DEFB +0x00
 12188  049f  00                	DEFB +0x00
 12189  04a0  00                	DEFB +0x00
 12190  04a1  00                	DEFB +0x00
 12191  04a2  00                	DEFB +0x00
 12192  04a3  00                	DEFB +0x00
 12193  04a4  00                	DEFB +0x00
 12194  04a5  00                	DEFB +0x00
 12195  04a6  00                	DEFB +0x00
 12196  04a7  00                	DEFB +0x00
 12197  04a8  00                	DEFB +0x00
 12198  04a9  00                	DEFB +0x00
 12199  04aa  00                	DEFB +0x00
 12200  04ab  00                	DEFB +0x00
 12201  04ac  00                	DEFB +0x00
 12202  04ad  00                	DEFB +0x00
 12203  04ae  00                	DEFB +0x00
 12204  04af  00                	DEFB +0x00
 12205  04b0  00                	DEFB +0x00
 12206  04b1  00                	DEFB +0x00
 12207  04b2  00                	DEFB +0x00
 12208  04b3  00                	DEFB +0x00
 12209  04b4  00                	DEFB +0x00
 12210  04b5  00                	DEFB +0x00
 12211  04b6  00                	DEFB +0x00
 12212  04b7  00                	DEFB +0x00
 12213  04b8  00                	DEFB +0x00
 12214  04b9  00                	DEFB +0x00
 12215  04ba  00                	DEFB +0x00
 12216  04bb  00                	DEFB +0x00
 12217  04bc  00                	DEFB +0x00
 12218  04bd  00                	DEFB +0x00
 12219  04be  00                	DEFB +0x00
 12220  04bf  00                	DEFB +0x00
 12221  04c0  00                	DEFB +0x00
 12222  04c1  00                	DEFB +0x00
 12223  04c2  00                	DEFB +0x00
 12224  04c3  00                	DEFB +0x00
 12225  04c4  00                	DEFB +0x00
 12226  04c5  00                	DEFB +0x00
 12227  04c6  00                	DEFB +0x00
 12228  04c7  00                	DEFB +0x00
 12229  04c8  00                	DEFB +0x00
 12230  04c9  00                	DEFB +0x00
 12231  04ca  00                	DEFB +0x00
 12232  04cb  00                	DEFB +0x00
 12233  04cc  00                	DEFB +0x00
 12234  04cd  00                	DEFB +0x00
 12235  04ce  00                	DEFB +0x00
 12236  04cf  00                	DEFB +0x00
 12237  04d0  00                	DEFB +0x00
 12238  04d1  00                	DEFB +0x00
 12239  04d2  00                	DEFB +0x00
 12240  04d3  00                	DEFB +0x00
 12241  04d4  00                	DEFB +0x00
 12242  04d5  00                	DEFB +0x00
 12243  04d6  00                	DEFB +0x00
 12244  04d7  00                	DEFB +0x00
 12245  04d8  00                	DEFB +0x00
 12246  04d9  00                	DEFB +0x00
 12247  04da  00                	DEFB +0x00
 12248  04db  00                	DEFB +0x00
 12249  04dc  00                	DEFB +0x00
 12250  04dd  00                	DEFB +0x00
 12251  04de  00                	DEFB +0x00
 12252  04df  00                	DEFB +0x00
 12253  04e0  00                	DEFB +0x00
 12254  04e1  00                	DEFB +0x00
 12255  04e2  00                	DEFB +0x00
 12256  04e3  00                	DEFB +0x00
 12257  04e4  00                	DEFB +0x00
 12258  04e5  00                	DEFB +0x00
 12259  04e6  00                	DEFB +0x00
 12260  04e7  00                	DEFB +0x00
 12261  04e8  00                	DEFB +0x00
 12262  04e9  00                	DEFB +0x00
 12263  04ea  00                	DEFB +0x00
 12264  04eb  00                	DEFB +0x00
 12265  04ec  00                	DEFB +0x00
 12266  04ed  00                	DEFB +0x00
 12267  04ee  00                	DEFB +0x00
 12268  04ef  00                	DEFB +0x00
 12269  04f0  00                	DEFB +0x00
 12270  04f1  00                	DEFB +0x00
 12271  04f2  00                	DEFB +0x00
 12272  04f3  00                	DEFB +0x00
 12273  04f4  00                	DEFB +0x00
 12274  04f5  00                	DEFB +0x00
 12275  04f6  00                	DEFB +0x00
 12276  04f7  00                	DEFB +0x00
 12277  04f8  00                	DEFB +0x00
 12278  04f9  00                	DEFB +0x00
 12279  04fa  00                	DEFB +0x00
 12280  04fb  00                	DEFB +0x00
 12281  04fc  00                	DEFB +0x00
 12282  04fd  00                	DEFB +0x00
 12283  04fe  00                	DEFB +0x00
 12284  04ff  00                	DEFB +0x00
 12285  0500  00                	DEFB +0x00
 12286  0501  00                	DEFB +0x00
 12287  0502  00                	DEFB +0x00
 12288  0503  00                	DEFB +0x00
 12289  0504  00                	DEFB +0x00
 12290  0505  00                	DEFB +0x00
 12291  0506  00                	DEFB +0x00
 12292  0507  00                	DEFB +0x00
 12293  0508  00                	DEFB +0x00
 12294  0509  00                	DEFB +0x00
 12295  050a  00                	DEFB +0x00
 12296  050b  00                	DEFB +0x00
 12297  050c  00                	DEFB +0x00
 12298  050d  00                	DEFB +0x00
 12299  050e  00                	DEFB +0x00
 12300  050f  00                	DEFB +0x00
 12301  0510  00                	DEFB +0x00
 12302  0511  00                	DEFB +0x00
 12303  0512  00                	DEFB +0x00
 12304  0513  00                	DEFB +0x00
 12305  0514  00                	DEFB +0x00
 12306  0515  00                	DEFB +0x00
 12307  0516  00                	DEFB +0x00
 12308  0517  00                	DEFB +0x00
 12309  0518  00                	DEFB +0x00
 12310  0519  00                	DEFB +0x00
 12311  051a  00                	DEFB +0x00
 12312  051b  00                	DEFB +0x00
 12313  051c  00                	DEFB +0x00
 12314  051d  00                	DEFB +0x00
 12315  051e  00                	DEFB +0x00
 12316  051f  00                	DEFB +0x00
 12317  0520  00                	DEFB +0x00
 12318  0521  00                	DEFB +0x00
 12319  0522  00                	DEFB +0x00
 12320  0523  00                	DEFB +0x00
 12321  0524  00                	DEFB +0x00
 12322  0525  00                	DEFB +0x00
 12323  0526  00                	DEFB +0x00
 12324  0527  00                	DEFB +0x00
 12325  0528  00                	DEFB +0x00
 12326  0529  00                	DEFB +0x00
 12327  052a  00                	DEFB +0x00
 12328  052b  00                	DEFB +0x00
 12329  052c  00                	DEFB +0x00
 12330  052d  00                	DEFB +0x00
 12331  052e  00                	DEFB +0x00
 12332  052f  00                	DEFB +0x00
 12333  0530  00                	DEFB +0x00
 12334  0531  00                	DEFB +0x00
 12335  0532  00                	DEFB +0x00
 12336  0533  00                	DEFB +0x00
 12337  0534  00                	DEFB +0x00
 12338  0535  00                	DEFB +0x00
 12339  0536  00                	DEFB +0x00
 12340  0537  00                	DEFB +0x00
 12341  0538  00                	DEFB +0x00
 12342  0539  00                	DEFB +0x00
 12343  053a  00                	DEFB +0x00
 12344  053b  00                	DEFB +0x00
 12345  053c  00                	DEFB +0x00
 12346  053d  00                	DEFB +0x00
 12347  053e  00                	DEFB +0x00
 12348  053f  00                	DEFB +0x00
 12349  0540  00                	DEFB +0x00
 12350  0541  00                	DEFB +0x00
 12351  0542  00                	DEFB +0x00
 12352  0543  00                	DEFB +0x00
 12353  0544  00                	DEFB +0x00
 12354  0545  00                	DEFB +0x00
 12355  0546  00                	DEFB +0x00
 12356  0547  00                	DEFB +0x00
 12357  0548  00                	DEFB +0x00
 12358  0549  00                	DEFB +0x00
 12359  054a  00                	DEFB +0x00
 12360  054b  00                	DEFB +0x00
 12361  054c  00                	DEFB +0x00
 12362  054d  00                	DEFB +0x00
 12363  054e  00                	DEFB +0x00
 12364  054f  00                	DEFB +0x00
 12365  0550  00                	DEFB +0x00
 12366  0551  00                	DEFB +0x00
 12367  0552  00                	DEFB +0x00
 12368  0553  00                	DEFB +0x00
 12369  0554  00                	DEFB +0x00
 12370  0555  00                	DEFB +0x00
 12371  0556  00                	DEFB +0x00
 12372  0557  00                	DEFB +0x00
 12373  0558  00                	DEFB +0x00
 12374  0559  00                	DEFB +0x00
 12375  055a  00                	DEFB +0x00
 12376  055b  00                	DEFB +0x00
 12377  055c  00                	DEFB +0x00
 12378  055d  00                	DEFB +0x00
 12379  055e  00                	DEFB +0x00
 12380  055f  00                	DEFB +0x00
 12381  0560  00                	DEFB +0x00
 12382  0561  00                	DEFB +0x00
 12383  0562  00                	DEFB +0x00
 12384  0563  00                	DEFB +0x00
 12385  0564  00                	DEFB +0x00
 12386  0565  00                	DEFB +0x00
 12387  0566  00                	DEFB +0x00
 12388  0567  00                	DEFB +0x00
 12389  0568  00                	DEFB +0x00
 12390  0569  00                	DEFB +0x00
 12391  056a  00                	DEFB +0x00
 12392  056b  00                	DEFB +0x00
 12393  056c  00                	DEFB +0x00
 12394  056d  00                	DEFB +0x00
 12395  056e  00                	DEFB +0x00
 12396  056f  00                	DEFB +0x00
 12397  0570  00                	DEFB +0x00
 12398  0571  00                	DEFB +0x00
 12399  0572  00                	DEFB +0x00
 12400  0573  00                	DEFB +0x00
 12401  0574  00                	DEFB +0x00
 12402  0575  00                	DEFB +0x00
 12403  0576  00                	DEFB +0x00
 12404  0577  00                	DEFB +0x00
 12405  0578  00                	DEFB +0x00
 12406  0579  00                	DEFB +0x00
 12407  057a  00                	DEFB +0x00
 12408  057b  00                	DEFB +0x00
 12409  057c  00                	DEFB +0x00
 12410  057d  00                	DEFB +0x00
 12411  057e  00                	DEFB +0x00
 12412  057f  00                	DEFB +0x00
 12413  0580  00                	DEFB +0x00
 12414  0581  00                	DEFB +0x00
 12415  0582  00                	DEFB +0x00
 12416  0583  00                	DEFB +0x00
 12417  0584  00                	DEFB +0x00
 12418  0585  00                	DEFB +0x00
 12419  0586  00                	DEFB +0x00
 12420  0587  00                	DEFB +0x00
 12421  0588  00                	DEFB +0x00
 12422  0589  00                	DEFB +0x00
 12423  058a  00                	DEFB +0x00
 12424  058b  00                	DEFB +0x00
 12425  058c  00                	DEFB +0x00
 12426  058d  00                	DEFB +0x00
 12427  058e  00                	DEFB +0x00
 12428  058f  00                	DEFB +0x00
 12429  0590  00                	DEFB +0x00
 12430  0591  00                	DEFB +0x00
 12431  0592  00                	DEFB +0x00
 12432  0593  00                	DEFB +0x00
 12433  0594  00                	DEFB +0x00
 12434  0595  00                	DEFB +0x00
 12435  0596  00                	DEFB +0x00
 12436  0597  00                	DEFB +0x00
 12437  0598  00                	DEFB +0x00
 12438  0599  00                	DEFB +0x00
 12439  059a  00                	DEFB +0x00
 12440  059b  00                	DEFB +0x00
 12441  059c  00                	DEFB +0x00
 12442  059d  00                	DEFB +0x00
 12443  059e  00                	DEFB +0x00
 12444  059f  00                	DEFB +0x00
 12445  05a0  00                	DEFB +0x00
 12446  05a1  00                	DEFB +0x00
 12447  05a2  00                	DEFB +0x00
 12448  05a3  00                	DEFB +0x00
 12449  05a4  00                	DEFB +0x00
 12450  05a5  00                	DEFB +0x00
 12451  05a6  00                	DEFB +0x00
 12452  05a7  00                	DEFB +0x00
 12453  05a8  00                	DEFB +0x00
 12454  05a9  00                	DEFB +0x00
 12455  05aa  00                	DEFB +0x00
 12456  05ab  00                	DEFB +0x00
 12457  05ac  00                	DEFB +0x00
 12458  05ad  00                	DEFB +0x00
 12459  05ae  00                	DEFB +0x00
 12460  05af  00                	DEFB +0x00
 12461  05b0  00                	DEFB +0x00
 12462  05b1  00                	DEFB +0x00
 12463  05b2  00                	DEFB +0x00
 12464  05b3  00                	DEFB +0x00
 12465  05b4  00                	DEFB +0x00
 12466  05b5  00                	DEFB +0x00
 12467  05b6  00                	DEFB +0x00
 12468  05b7  00                	DEFB +0x00
 12469  05b8  00                	DEFB +0x00
 12470  05b9  00                	DEFB +0x00
 12471  05ba  00                	DEFB +0x00
 12472  05bb  00                	DEFB +0x00
 12473  05bc  00                	DEFB +0x00
 12474  05bd  00                	DEFB +0x00
 12475  05be  00                	DEFB +0x00
 12476  05bf  00                	DEFB +0x00
 12477  05c0  00                	DEFB +0x00
 12478  05c1  00                	DEFB +0x00
 12479  05c2  00                	DEFB +0x00
 12480  05c3  00                	DEFB +0x00
 12481  05c4  00                	DEFB +0x00
 12482  05c5  00                	DEFB +0x00
 12483  05c6  00                	DEFB +0x00
 12484  05c7  00                	DEFB +0x00
 12485  05c8  00                	DEFB +0x00
 12486  05c9  00                	DEFB +0x00
 12487  05ca  00                	DEFB +0x00
 12488  05cb  00                	DEFB +0x00
 12489  05cc  00                	DEFB +0x00
 12490  05cd  00                	DEFB +0x00
 12491  05ce  00                	DEFB +0x00
 12492  05cf  00                	DEFB +0x00
 12493  05d0  00                	DEFB +0x00
 12494  05d1  00                	DEFB +0x00
 12495  05d2  00                	DEFB +0x00
 12496  05d3  00                	DEFB +0x00
 12497  05d4  00                	DEFB +0x00
 12498  05d5  00                	DEFB +0x00
 12499  05d6  00                	DEFB +0x00
 12500  05d7  00                	DEFB +0x00
 12501  05d8  00                	DEFB +0x00
 12502  05d9  00                	DEFB +0x00
 12503  05da  00                	DEFB +0x00
 12504  05db  00                	DEFB +0x00
 12505  05dc  00                	DEFB +0x00
 12506  05dd  00                	DEFB +0x00
 12507  05de  00                	DEFB +0x00
 12508  05df  00                	DEFB +0x00
 12509  05e0  00                	DEFB +0x00
 12510  05e1  00                	DEFB +0x00
 12511  05e2  00                	DEFB +0x00
 12512  05e3  00                	DEFB +0x00
 12513  05e4  00                	DEFB +0x00
 12514  05e5  00                	DEFB +0x00
 12515  05e6  00                	DEFB +0x00
 12516  05e7  00                	DEFB +0x00
 12517  05e8  00                	DEFB +0x00
 12518  05e9  00                	DEFB +0x00
 12519  05ea  00                	DEFB +0x00
 12520  05eb  00                	DEFB +0x00
 12521  05ec  00                	DEFB +0x00
 12522  05ed  00                	DEFB +0x00
 12523  05ee  00                	DEFB +0x00
 12524  05ef  00                	DEFB +0x00
 12525  05f0  00                	DEFB +0x00
 12526  05f1  00                	DEFB +0x00
 12527  05f2  00                	DEFB +0x00
 12528  05f3  00                	DEFB +0x00
 12529  05f4  00                	DEFB +0x00
 12530  05f5  00                	DEFB +0x00
 12531  05f6  00                	DEFB +0x00
 12532  05f7  00                	DEFB +0x00
 12533  05f8  00                	DEFB +0x00
 12534  05f9  00                	DEFB +0x00
 12535  05fa  00                	DEFB +0x00
 12536  05fb  00                	DEFB +0x00
 12537  05fc  00                	DEFB +0x00
 12538  05fd  00                	DEFB +0x00
 12539  05fe  00                	DEFB +0x00
 12540  05ff  00                	DEFB +0x00
 12541  0600  00                	DEFB +0x00
 12542  0601  00                	DEFB +0x00
 12543  0602  00                	DEFB +0x00
 12544  0603  00                	DEFB +0x00
 12545  0604  00                	DEFB +0x00
 12546  0605  00                	DEFB +0x00
 12547  0606  00                	DEFB +0x00
 12548  0607  00                	DEFB +0x00
 12549  0608  00                	DEFB +0x00
 12550  0609  00                	DEFB +0x00
 12551  060a  00                	DEFB +0x00
 12552  060b  00                	DEFB +0x00
 12553  060c  00                	DEFB +0x00
 12554  060d  00                	DEFB +0x00
 12555  060e  00                	DEFB +0x00
 12556  060f  00                	DEFB +0x00
 12557  0610  00                	DEFB +0x00
 12558  0611  00                	DEFB +0x00
 12559  0612  00                	DEFB +0x00
 12560  0613  00                	DEFB +0x00
 12561  0614  00                	DEFB +0x00
 12562  0615  00                	DEFB +0x00
 12563  0616  00                	DEFB +0x00
 12564  0617  00                	DEFB +0x00
 12565  0618  00                	DEFB +0x00
 12566  0619  00                	DEFB +0x00
 12567  061a  00                	DEFB +0x00
 12568  061b  00                	DEFB +0x00
 12569  061c  00                	DEFB +0x00
 12570  061d  00                	DEFB +0x00
 12571  061e  00                	DEFB +0x00
 12572  061f  00                	DEFB +0x00
 12573  0620  00                	DEFB +0x00
 12574  0621  00                	DEFB +0x00
 12575  0622  00                	DEFB +0x00
 12576  0623  00                	DEFB +0x00
 12577  0624  00                	DEFB +0x00
 12578  0625  00                	DEFB +0x00
 12579  0626  00                	DEFB +0x00
 12580  0627  00                	DEFB +0x00
 12581  0628  00                	DEFB +0x00
 12582  0629  00                	DEFB +0x00
 12583  062a  00                	DEFB +0x00
 12584  062b  00                	DEFB +0x00
 12585  062c  00                	DEFB +0x00
 12586  062d  00                	DEFB +0x00
 12587  062e  00                	DEFB +0x00
 12588  062f  00                	DEFB +0x00
 12589  0630  00                	DEFB +0x00
 12590  0631  00                	DEFB +0x00
 12591  0632  00                	DEFB +0x00
 12592  0633  00                	DEFB +0x00
 12593  0634  00                	DEFB +0x00
 12594  0635  00                	DEFB +0x00
 12595  0636  00                	DEFB +0x00
 12596  0637  00                	DEFB +0x00
 12597  0638  00                	DEFB +0x00
 12598  0639  00                	DEFB +0x00
 12599  063a  00                	DEFB +0x00
 12600  063b  00                	DEFB +0x00
 12601  063c  00                	DEFB +0x00
 12602  063d  00                	DEFB +0x00
 12603  063e  00                	DEFB +0x00
 12604  063f  00                	DEFB +0x00
 12605  0640  00                	DEFB +0x00
 12606  0641  00                	DEFB +0x00
 12607  0642  00                	DEFB +0x00
 12608  0643  00                	DEFB +0x00
 12609  0644  00                	DEFB +0x00
 12610  0645  00                	DEFB +0x00
 12611  0646  00                	DEFB +0x00
 12612  0647  00                	DEFB +0x00
 12613  0648  00                	DEFB +0x00
 12614  0649  00                	DEFB +0x00
 12615  064a  00                	DEFB +0x00
 12616  064b  00                	DEFB +0x00
 12617  064c  00                	DEFB +0x00
 12618  064d  00                	DEFB +0x00
 12619  064e  00                	DEFB +0x00
 12620  064f  00                	DEFB +0x00
 12621  0650  00                	DEFB +0x00
 12622  0651  00                	DEFB +0x00
 12623  0652  00                	DEFB +0x00
 12624  0653  00                	DEFB +0x00
 12625  0654  00                	DEFB +0x00
 12626  0655  00                	DEFB +0x00
 12627  0656  00                	DEFB +0x00
 12628  0657  00                	DEFB +0x00
 12629  0658  00                	DEFB +0x00
 12630  0659  00                	DEFB +0x00
 12631  065a  00                	DEFB +0x00
 12632  065b  00                	DEFB +0x00
 12633  065c  00                	DEFB +0x00
 12634  065d  00                	DEFB +0x00
 12635  065e  00                	DEFB +0x00
 12636  065f  00                	DEFB +0x00
 12637  0660  00                	DEFB +0x00
 12638  0661  00                	DEFB +0x00
 12639  0662  00                	DEFB +0x00
 12640  0663  00                	DEFB +0x00
 12641  0664  00                	DEFB +0x00
 12642  0665  00                	DEFB +0x00
 12643  0666  00                	DEFB +0x00
 12644  0667  00                	DEFB +0x00
 12645  0668  00                	DEFB +0x00
 12646  0669  00                	DEFB +0x00
 12647  066a  00                	DEFB +0x00
 12648  066b  00                	DEFB +0x00
 12649  066c  00                	DEFB +0x00
 12650  066d  00                	DEFB +0x00
 12651  066e  00                	DEFB +0x00
 12652  066f  00                	DEFB +0x00
 12653  0670  00                	DEFB +0x00
 12654  0671  00                	DEFB +0x00
 12655  0672  00                	DEFB +0x00
 12656  0673  00                	DEFB +0x00
 12657  0674  00                	DEFB +0x00
 12658  0675  00                	DEFB +0x00
 12659  0676  00                	DEFB +0x00
 12660  0677  00                	DEFB +0x00
 12661  0678  00                	DEFB +0x00
 12662  0679  00                	DEFB +0x00
 12663  067a  00                	DEFB +0x00
 12664  067b  00                	DEFB +0x00
 12665  067c  00                	DEFB +0x00
 12666  067d  00                	DEFB +0x00
 12667  067e  00                	DEFB +0x00
 12668  067f  00                	DEFB +0x00
 12669  0680  00                	DEFB +0x00
 12670  0681  00                	DEFB +0x00
 12671  0682  00                	DEFB +0x00
 12672  0683  00                	DEFB +0x00
 12673  0684  00                	DEFB +0x00
 12674  0685  00                	DEFB +0x00
 12675  0686  00                	DEFB +0x00
 12676  0687  00                	DEFB +0x00
 12677  0688  00                	DEFB +0x00
 12678  0689  00                	DEFB +0x00
 12679  068a  00                	DEFB +0x00
 12680  068b  00                	DEFB +0x00
 12681  068c  00                	DEFB +0x00
 12682  068d  00                	DEFB +0x00
 12683  068e  00                	DEFB +0x00
 12684  068f  00                	DEFB +0x00
 12685  0690  00                	DEFB +0x00
 12686  0691  00                	DEFB +0x00
 12687  0692  00                	DEFB +0x00
 12688  0693  00                	DEFB +0x00
 12689  0694  00                	DEFB +0x00
 12690  0695  00                	DEFB +0x00
 12691  0696  00                	DEFB +0x00
 12692  0697  00                	DEFB +0x00
 12693  0698  00                	DEFB +0x00
 12694  0699  00                	DEFB +0x00
 12695  069a  00                	DEFB +0x00
 12696  069b  00                	DEFB +0x00
 12697  069c  00                	DEFB +0x00
 12698  069d  00                	DEFB +0x00
 12699  069e  00                	DEFB +0x00
 12700  069f  00                	DEFB +0x00
 12701  06a0  00                	DEFB +0x00
 12702  06a1  00                	DEFB +0x00
 12703  06a2  00                	DEFB +0x00
 12704  06a3  00                	DEFB +0x00
 12705  06a4  00                	DEFB +0x00
 12706  06a5  00                	DEFB +0x00
 12707  06a6  00                	DEFB +0x00
 12708  06a7  00                	DEFB +0x00
 12709  06a8  00                	DEFB +0x00
 12710  06a9  00                	DEFB +0x00
 12711  06aa  00                	DEFB +0x00
 12712  06ab  00                	DEFB +0x00
 12713  06ac  00                	DEFB +0x00
 12714  06ad  00                	DEFB +0x00
 12715  06ae  00                	DEFB +0x00
 12716  06af  00                	DEFB +0x00
 12717  06b0  00                	DEFB +0x00
 12718  06b1  00                	DEFB +0x00
 12719  06b2  00                	DEFB +0x00
 12720  06b3  00                	DEFB +0x00
 12721  06b4  00                	DEFB +0x00
 12722  06b5  00                	DEFB +0x00
 12723  06b6  00                	DEFB +0x00
 12724  06b7  00                	DEFB +0x00
 12725  06b8  00                	DEFB +0x00
 12726  06b9  00                	DEFB +0x00
 12727  06ba  00                	DEFB +0x00
 12728  06bb  00                	DEFB +0x00
 12729  06bc  00                	DEFB +0x00
 12730  06bd  00                	DEFB +0x00
 12731  06be  00                	DEFB +0x00
 12732  06bf  00                	DEFB +0x00
 12733  06c0  00                	DEFB +0x00
 12734  06c1  00                	DEFB +0x00
 12735  06c2  00                	DEFB +0x00
 12736  06c3  00                	DEFB +0x00
 12737  06c4  00                	DEFB +0x00
 12738  06c5  00                	DEFB +0x00
 12739  06c6  00                	DEFB +0x00
 12740  06c7  00                	DEFB +0x00
 12741  06c8  00                	DEFB +0x00
 12742  06c9  00                	DEFB +0x00
 12743  06ca  00                	DEFB +0x00
 12744  06cb  00                	DEFB +0x00
 12745  06cc  00                	DEFB +0x00
 12746  06cd  00                	DEFB +0x00
 12747  06ce  00                	DEFB +0x00
 12748  06cf  00                	DEFB +0x00
 12749  06d0  00                	DEFB +0x00
 12750  06d1  00                	DEFB +0x00
 12751  06d2  00                	DEFB +0x00
 12752  06d3  00                	DEFB +0x00
 12753  06d4  00                	DEFB +0x00
 12754  06d5  00                	DEFB +0x00
 12755  06d6  00                	DEFB +0x00
 12756  06d7  00                	DEFB +0x00
 12757  06d8  00                	DEFB +0x00
 12758  06d9  00                	DEFB +0x00
 12759  06da  00                	DEFB +0x00
 12760  06db  00                	DEFB +0x00
 12761  06dc  00                	DEFB +0x00
 12762  06dd  00                	DEFB +0x00
 12763  06de  00                	DEFB +0x00
 12764  06df  00                	DEFB +0x00
 12765  06e0  00                	DEFB +0x00
 12766  06e1  00                	DEFB +0x00
 12767  06e2  00                	DEFB +0x00
 12768  06e3  00                	DEFB +0x00
 12769  06e4  00                	DEFB +0x00
 12770  06e5  00                	DEFB +0x00
 12771  06e6  00                	DEFB +0x00
 12772  06e7  00                	DEFB +0x00
 12773  06e8  00                	DEFB +0x00
 12774  06e9  00                	DEFB +0x00
 12775  06ea  00                	DEFB +0x00
 12776  06eb  00                	DEFB +0x00
 12777  06ec  00                	DEFB +0x00
 12778  06ed  00                	DEFB +0x00
 12779  06ee  00                	DEFB +0x00
 12780  06ef  00                	DEFB +0x00
 12781  06f0  00                	DEFB +0x00
 12782  06f1  00                	DEFB +0x00
 12783  06f2  00                	DEFB +0x00
 12784  06f3  00                	DEFB +0x00
 12785  06f4  00                	DEFB +0x00
 12786  06f5  00                	DEFB +0x00
 12787  06f6  00                	DEFB +0x00
 12788  06f7  00                	DEFB +0x00
 12789  06f8  00                	DEFB +0x00
 12790  06f9  00                	DEFB +0x00
 12791  06fa  00                	DEFB +0x00
 12792  06fb  00                	DEFB +0x00
 12793  06fc  00                	DEFB +0x00
 12794  06fd  00                	DEFB +0x00
 12795  06fe  00                	DEFB +0x00
 12796  06ff  00                	DEFB +0x00
 12797  0700  00                	DEFB +0x00
 12798  0701  00                	DEFB +0x00
 12799  0702  00                	DEFB +0x00
 12800  0703  00                	DEFB +0x00
 12801  0704  00                	DEFB +0x00
 12802  0705  00                	DEFB +0x00
 12803  0706  00                	DEFB +0x00
 12804  0707  00                	DEFB +0x00
 12805  0708  00                	DEFB +0x00
 12806  0709  00                	DEFB +0x00
 12807  070a  00                	DEFB +0x00
 12808  070b  00                	DEFB +0x00
 12809  070c  00                	DEFB +0x00
 12810  070d  00                	DEFB +0x00
 12811  070e  00                	DEFB +0x00
 12812  070f  00                	DEFB +0x00
 12813  0710  00                	DEFB +0x00
 12814  0711  00                	DEFB +0x00
 12815  0712  00                	DEFB +0x00
 12816  0713  00                	DEFB +0x00
 12817  0714  00                	DEFB +0x00
 12818  0715  00                	DEFB +0x00
 12819  0716  00                	DEFB +0x00
 12820  0717  00                	DEFB +0x00
 12821  0718  00                	DEFB +0x00
 12822  0719  00                	DEFB +0x00
 12823  071a  00                	DEFB +0x00
 12824  071b  00                	DEFB +0x00
 12825  071c  00                	DEFB +0x00
 12826  071d  00                	DEFB +0x00
 12827  071e  00                	DEFB +0x00
 12828  071f  00                	DEFB +0x00
 12829  0720  00                	DEFB +0x00
 12830  0721  00                	DEFB +0x00
 12831  0722  00                	DEFB +0x00
 12832  0723  00                	DEFB +0x00
 12833  0724  00                	DEFB +0x00
 12834  0725  00                	DEFB +0x00
 12835  0726  00                	DEFB +0x00
 12836  0727  00                	DEFB +0x00
 12837  0728  00                	DEFB +0x00
 12838  0729  00                	DEFB +0x00
 12839  072a  00                	DEFB +0x00
 12840  072b  00                	DEFB +0x00
 12841  072c  00                	DEFB +0x00
 12842  072d  00                	DEFB +0x00
 12843  072e  00                	DEFB +0x00
 12844  072f  00                	DEFB +0x00
 12845  0730  00                	DEFB +0x00
 12846  0731  00                	DEFB +0x00
 12847  0732  00                	DEFB +0x00
 12848  0733  00                	DEFB +0x00
 12849  0734  00                	DEFB +0x00
 12850  0735  00                	DEFB +0x00
 12851  0736  00                	DEFB +0x00
 12852  0737  00                	DEFB +0x00
 12853  0738  00                	DEFB +0x00
 12854  0739  00                	DEFB +0x00
 12855  073a  00                	DEFB +0x00
 12856  073b  00                	DEFB +0x00
 12857  073c  00                	DEFB +0x00
 12858  073d  00                	DEFB +0x00
 12859  073e  00                	DEFB +0x00
 12860  073f  00                	DEFB +0x00
 12861  0740  00                	DEFB +0x00
 12862  0741  00                	DEFB +0x00
 12863  0742  00                	DEFB +0x00
 12864  0743  00                	DEFB +0x00
 12865  0744  00                	DEFB +0x00
 12866  0745  00                	DEFB +0x00
 12867  0746  00                	DEFB +0x00
 12868  0747  00                	DEFB +0x00
 12869  0748  00                	DEFB +0x00
 12870  0749  00                	DEFB +0x00
 12871  074a  00                	DEFB +0x00
 12872  074b  00                	DEFB +0x00
 12873  074c  00                	DEFB +0x00
 12874  074d  00                	DEFB +0x00
 12875  074e  00                	DEFB +0x00
 12876  074f  00                	DEFB +0x00
 12877  0750  00                	DEFB +0x00
 12878  0751  00                	DEFB +0x00
 12879  0752  00                	DEFB +0x00
 12880  0753  00                	DEFB +0x00
 12881  0754  00                	DEFB +0x00
 12882  0755  00                	DEFB +0x00
 12883  0756  00                	DEFB +0x00
 12884  0757  00                	DEFB +0x00
 12885  0758  00                	DEFB +0x00
 12886  0759  00                	DEFB +0x00
 12887  075a  00                	DEFB +0x00
 12888  075b  00                	DEFB +0x00
 12889  075c  00                	DEFB +0x00
 12890  075d  00                	DEFB +0x00
 12891  075e  00                	DEFB +0x00
 12892  075f  00                	DEFB +0x00
 12893  0760  00                	DEFB +0x00
 12894  0761  00                	DEFB +0x00
 12895  0762  00                	DEFB +0x00
 12896  0763  00                	DEFB +0x00
 12897  0764  00                	DEFB +0x00
 12898  0765  00                	DEFB +0x00
 12899  0766  00                	DEFB +0x00
 12900  0767  00                	DEFB +0x00
 12901  0768  00                	DEFB +0x00
 12902  0769  00                	DEFB +0x00
 12903  076a  00                	DEFB +0x00
 12904  076b  00                	DEFB +0x00
 12905  076c  00                	DEFB +0x00
 12906  076d  00                	DEFB +0x00
 12907  076e  00                	DEFB +0x00
 12908  076f  00                	DEFB +0x00
 12909  0770  00                	DEFB +0x00
 12910  0771  00                	DEFB +0x00
 12911  0772  00                	DEFB +0x00
 12912  0773  00                	DEFB +0x00
 12913  0774  00                	DEFB +0x00
 12914  0775  00                	DEFB +0x00
 12915  0776  00                	DEFB +0x00
 12916  0777  00                	DEFB +0x00
 12917  0778  00                	DEFB +0x00
 12918  0779  00                	DEFB +0x00
 12919  077a  00                	DEFB +0x00
 12920  077b  00                	DEFB +0x00
 12921  077c  00                	DEFB +0x00
 12922  077d  00                	DEFB +0x00
 12923  077e  00                	DEFB +0x00
 12924  077f  00                	DEFB +0x00
 12925  0780  00                	DEFB +0x00
 12926  0781  00                	DEFB +0x00
 12927  0782  00                	DEFB +0x00
 12928  0783  00                	DEFB +0x00
 12929  0784  00                	DEFB +0x00
 12930  0785  00                	DEFB +0x00
 12931  0786  00                	DEFB +0x00
 12932  0787  00                	DEFB +0x00
 12933  0788  00                	DEFB +0x00
 12934  0789  00                	DEFB +0x00
 12935  078a  00                	DEFB +0x00
 12936  078b  00                	DEFB +0x00
 12937  078c  00                	DEFB +0x00
 12938  078d  00                	DEFB +0x00
 12939  078e  00                	DEFB +0x00
 12940  078f  00                	DEFB +0x00
 12941  0790  00                	DEFB +0x00
 12942  0791  00                	DEFB +0x00
 12943  0792  00                	DEFB +0x00
 12944  0793  00                	DEFB +0x00
 12945  0794  00                	DEFB +0x00
 12946  0795  00                	DEFB +0x00
 12947  0796  00                	DEFB +0x00
 12948  0797  00                	DEFB +0x00
 12949  0798  00                	DEFB +0x00
 12950  0799  00                	DEFB +0x00
 12951  079a  00                	DEFB +0x00
 12952  079b  00                	DEFB +0x00
 12953  079c  00                	DEFB +0x00
 12954  079d  00                	DEFB +0x00
 12955  079e  00                	DEFB +0x00
 12956  079f  00                	DEFB +0x00
 12957  07a0  00                	DEFB +0x00
 12958  07a1  00                	DEFB +0x00
 12959  07a2  00                	DEFB +0x00
 12960  07a3  00                	DEFB +0x00
 12961  07a4  00                	DEFB +0x00
 12962  07a5  00                	DEFB +0x00
 12963  07a6  00                	DEFB +0x00
 12964  07a7  00                	DEFB +0x00
 12965  07a8  00                	DEFB +0x00
 12966  07a9  00                	DEFB +0x00
 12967  07aa  00                	DEFB +0x00
 12968  07ab  00                	DEFB +0x00
 12969  07ac  00                	DEFB +0x00
 12970  07ad  00                	DEFB +0x00
 12971  07ae  00                	DEFB +0x00
 12972  07af  00                	DEFB +0x00
 12973  07b0  00                	DEFB +0x00
 12974  07b1  00                	DEFB +0x00
 12975  07b2  00                	DEFB +0x00
 12976  07b3  00                	DEFB +0x00
 12977  07b4  00                	DEFB +0x00
 12978  07b5  00                	DEFB +0x00
 12979  07b6  00                	DEFB +0x00
 12980  07b7  00                	DEFB +0x00
 12981  07b8  00                	DEFB +0x00
 12982  07b9  00                	DEFB +0x00
 12983  07ba  00                	DEFB +0x00
 12984  07bb  00                	DEFB +0x00
 12985  07bc  00                	DEFB +0x00
 12986  07bd  00                	DEFB +0x00
 12987  07be  00                	DEFB +0x00
 12988  07bf  00                	DEFB +0x00
 12989  07c0  00                	DEFB +0x00
 12990  07c1  00                	DEFB +0x00
 12991  07c2  00                	DEFB +0x00
 12992  07c3  00                	DEFB +0x00
 12993  07c4  00                	DEFB +0x00
 12994  07c5  00                	DEFB +0x00
 12995  07c6  00                	DEFB +0x00
 12996  07c7  00                	DEFB +0x00
 12997  07c8  00                	DEFB +0x00
 12998  07c9  00                	DEFB +0x00
 12999  07ca  00                	DEFB +0x00
 13000  07cb  00                	DEFB +0x00
 13001  07cc  00                	DEFB +0x00
 13002  07cd  00                	DEFB +0x00
 13003  07ce  00                	DEFB +0x00
 13004  07cf  00                	DEFB +0x00
 13005  07d0  00                	DEFB +0x00
 13006  07d1  00                	DEFB +0x00
 13007  07d2  00                	DEFB +0x00
 13008  07d3  00                	DEFB +0x00
 13009  07d4  00                	DEFB +0x00
 13010  07d5  00                	DEFB +0x00
 13011  07d6  00                	DEFB +0x00
 13012  07d7  00                	DEFB +0x00
 13013  07d8  00                	DEFB +0x00
 13014  07d9  00                	DEFB +0x00
 13015  07da  00                	DEFB +0x00
 13016  07db  00                	DEFB +0x00
 13017  07dc  00                	DEFB +0x00
 13018  07dd  00                	DEFB +0x00
 13019  07de  00                	DEFB +0x00
 13020  07df  00                	DEFB +0x00
 13021  07e0  00                	DEFB +0x00
 13022  07e1  00                	DEFB +0x00
 13023  07e2  00                	DEFB +0x00
 13024  07e3  00                	DEFB +0x00
 13025  07e4  00                	DEFB +0x00
 13026  07e5  00                	DEFB +0x00
 13027  07e6  00                	DEFB +0x00
 13028  07e7  00                	DEFB +0x00
 13029  07e8  00                	DEFB +0x00
 13030  07e9  00                	DEFB +0x00
 13031  07ea  00                	DEFB +0x00
 13032  07eb  00                	DEFB +0x00
 13033  07ec  00                	DEFB +0x00
 13034  07ed  00                	DEFB +0x00
 13035  07ee  00                	DEFB +0x00
 13036  07ef  00                	DEFB +0x00
 13037  07f0  00                	DEFB +0x00
 13038  07f1  00                	DEFB +0x00
 13039  07f2  00                	DEFB +0x00
 13040  07f3  00                	DEFB +0x00
 13041  07f4  00                	DEFB +0x00
 13042  07f5  00                	DEFB +0x00
 13043  07f6  00                	DEFB +0x00
 13044  07f7  00                	DEFB +0x00
 13045  07f8  00                	DEFB +0x00
 13046  07f9  00                	DEFB +0x00
 13047  07fa  00                	DEFB +0x00
 13048  07fb  00                	DEFB +0x00
 13049  07fc  00                	DEFB +0x00
 13050  07fd  00                	DEFB +0x00
 13051  07fe  00                	DEFB +0x00
 13052  07ff  00                	DEFB +0x00
 13053  0800  00                	DEFB +0x00
 13054  0801  00                	DEFB +0x00
 13055  0802  00                	DEFB +0x00
 13056  0803  00                	DEFB +0x00
 13057  0804  00                	DEFB +0x00
 13058  0805  00                	DEFB +0x00
 13059  0806  00                	DEFB +0x00
 13060  0807  00                	DEFB +0x00
 13061  0808  00                	DEFB +0x00
 13062  0809  00                	DEFB +0x00
 13063  080a  00                	DEFB +0x00
 13064  080b  00                	DEFB +0x00
 13065  080c  00                	DEFB +0x00
 13066  080d  00                	DEFB +0x00
 13067  080e  00                	DEFB +0x00
 13068  080f  00                	DEFB +0x00
 13069  0810  00                	DEFB +0x00
 13070                          _COLOR:
 13071  0811  41                	DEFB +0x41
 13072  0812  41                	DEFB +0x41
 13073  0813  41                	DEFB +0x41
 13074  0814  41                	DEFB +0x41
 13075  0815  41                	DEFB +0x41
 13076  0816  41                	DEFB +0x41
 13077  0817  41                	DEFB +0x41
 13078  0818  41                	DEFB +0x41
 13079  0819  e1                	DEFB +0xe1
 13080  081a  e1                	DEFB +0xe1
 13081  081b  e1                	DEFB +0xe1
 13082  081c  e1                	DEFB +0xe1
 13083  081d  e1                	DEFB +0xe1
 13084  081e  e1                	DEFB +0xe1
 13085  081f  e1                	DEFB +0xe1
 13086  0820  e1                	DEFB +0xe1
 13087  0821  f1                	DEFB +0xf1
 13088  0822  f1                	DEFB +0xf1
 13089  0823  f1                	DEFB +0xf1
 13090  0824  f1                	DEFB +0xf1
 13091  0825  f1                	DEFB +0xf1
 13092  0826  f1                	DEFB +0xf1
 13093  0827  f1                	DEFB +0xf1
 13094  0828  f1                	DEFB +0xf1
 13095  0829  e1                	DEFB +0xe1
 13096  082a  e1                	DEFB +0xe1
 13097  082b  e1                	DEFB +0xe1
 13098  082c  e1                	DEFB +0xe1
 13099  082d  e1                	DEFB +0xe1
 13100  082e  e1                	DEFB +0xe1
 13101  082f  e1                	DEFB +0xe1
 13102  0830  e1                	DEFB +0xe1
 13103  0831  e1                	DEFB +0xe1
 13104  0832  e1                	DEFB +0xe1
 13105  0833  e1                	DEFB +0xe1
 13106  0834  e1                	DEFB +0xe1
 13107  0835  e1                	DEFB +0xe1
 13108  0836  e1                	DEFB +0xe1
 13109  0837  e1                	DEFB +0xe1
 13110  0838  e1                	DEFB +0xe1
 13111  0839  f1                	DEFB +0xf1
 13112  083a  f1                	DEFB +0xf1
 13113  083b  f1                	DEFB +0xf1
 13114  083c  f1                	DEFB +0xf1
 13115  083d  f1                	DEFB +0xf1
 13116  083e  f1                	DEFB +0xf1
 13117  083f  f1                	DEFB +0xf1
 13118  0840  f1                	DEFB +0xf1
 13119  0841  b1                	DEFB +0xb1
 13120  0842  b1                	DEFB +0xb1
 13121  0843  b1                	DEFB +0xb1
 13122  0844  b1                	DEFB +0xb1
 13123  0845  b1                	DEFB +0xb1
 13124  0846  b1                	DEFB +0xb1
 13125  0847  b1                	DEFB +0xb1
 13126  0848  b1                	DEFB +0xb1
 13127  0849  41                	DEFB +0x41
 13128  084a  41                	DEFB +0x41
 13129  084b  41                	DEFB +0x41
 13130  084c  41                	DEFB +0x41
 13131  084d  41                	DEFB +0x41
 13132  084e  41                	DEFB +0x41
 13133  084f  41                	DEFB +0x41
 13134  0850  41                	DEFB +0x41
 13135  0851  b1                	DEFB +0xb1
 13136  0852  b1                	DEFB +0xb1
 13137  0853  b1                	DEFB +0xb1
 13138  0854  b1                	DEFB +0xb1
 13139  0855  b1                	DEFB +0xb1
 13140  0856  b1                	DEFB +0xb1
 13141  0857  b1                	DEFB +0xb1
 13142  0858  b1                	DEFB +0xb1
 13143  0859  41                	DEFB +0x41
 13144  085a  41                	DEFB +0x41
 13145  085b  41                	DEFB +0x41
 13146  085c  41                	DEFB +0x41
 13147  085d  41                	DEFB +0x41
 13148  085e  41                	DEFB +0x41
 13149  085f  41                	DEFB +0x41
 13150  0860  41                	DEFB +0x41
 13151  0861  41                	DEFB +0x41
 13152  0862  41                	DEFB +0x41
 13153  0863  41                	DEFB +0x41
 13154  0864  41                	DEFB +0x41
 13155  0865  41                	DEFB +0x41
 13156  0866  41                	DEFB +0x41
 13157  0867  41                	DEFB +0x41
 13158  0868  41                	DEFB +0x41
 13159  0869  41                	DEFB +0x41
 13160  086a  41                	DEFB +0x41
 13161  086b  41                	DEFB +0x41
 13162  086c  41                	DEFB +0x41
 13163  086d  41                	DEFB +0x41
 13164  086e  41                	DEFB +0x41
 13165  086f  41                	DEFB +0x41
 13166  0870  41                	DEFB +0x41
 13167  0871  41                	DEFB +0x41
 13168  0872  41                	DEFB +0x41
 13169  0873  41                	DEFB +0x41
 13170  0874  41                	DEFB +0x41
 13171  0875  41                	DEFB +0x41
 13172  0876  41                	DEFB +0x41
 13173  0877  41                	DEFB +0x41
 13174  0878  41                	DEFB +0x41
 13175  0879  41                	DEFB +0x41
 13176  087a  41                	DEFB +0x41
 13177  087b  41                	DEFB +0x41
 13178  087c  41                	DEFB +0x41
 13179  087d  41                	DEFB +0x41
 13180  087e  41                	DEFB +0x41
 13181  087f  41                	DEFB +0x41
 13182  0880  41                	DEFB +0x41
 13183  0881  41                	DEFB +0x41
 13184  0882  41                	DEFB +0x41
 13185  0883  41                	DEFB +0x41
 13186  0884  41                	DEFB +0x41
 13187  0885  41                	DEFB +0x41
 13188  0886  41                	DEFB +0x41
 13189  0887  41                	DEFB +0x41
 13190  0888  41                	DEFB +0x41
 13191  0889  41                	DEFB +0x41
 13192  088a  41                	DEFB +0x41
 13193  088b  41                	DEFB +0x41
 13194  088c  41                	DEFB +0x41
 13195  088d  41                	DEFB +0x41
 13196  088e  41                	DEFB +0x41
 13197  088f  41                	DEFB +0x41
 13198  0890  41                	DEFB +0x41
 13199  0891  41                	DEFB +0x41
 13200  0892  41                	DEFB +0x41
 13201  0893  41                	DEFB +0x41
 13202  0894  41                	DEFB +0x41
 13203  0895  41                	DEFB +0x41
 13204  0896  41                	DEFB +0x41
 13205  0897  41                	DEFB +0x41
 13206  0898  41                	DEFB +0x41
 13207  0899  41                	DEFB +0x41
 13208  089a  41                	DEFB +0x41
 13209  089b  41                	DEFB +0x41
 13210  089c  41                	DEFB +0x41
 13211  089d  41                	DEFB +0x41
 13212  089e  41                	DEFB +0x41
 13213  089f  41                	DEFB +0x41
 13214  08a0  41                	DEFB +0x41
 13215  08a1  41                	DEFB +0x41
 13216  08a2  41                	DEFB +0x41
 13217  08a3  41                	DEFB +0x41
 13218  08a4  41                	DEFB +0x41
 13219  08a5  41                	DEFB +0x41
 13220  08a6  41                	DEFB +0x41
 13221  08a7  41                	DEFB +0x41
 13222  08a8  41                	DEFB +0x41
 13223  08a9  41                	DEFB +0x41
 13224  08aa  41                	DEFB +0x41
 13225  08ab  41                	DEFB +0x41
 13226  08ac  41                	DEFB +0x41
 13227  08ad  41                	DEFB +0x41
 13228  08ae  41                	DEFB +0x41
 13229  08af  41                	DEFB +0x41
 13230  08b0  41                	DEFB +0x41
 13231  08b1  41                	DEFB +0x41
 13232  08b2  41                	DEFB +0x41
 13233  08b3  41                	DEFB +0x41
 13234  08b4  41                	DEFB +0x41
 13235  08b5  41                	DEFB +0x41
 13236  08b6  41                	DEFB +0x41
 13237  08b7  41                	DEFB +0x41
 13238  08b8  41                	DEFB +0x41
 13239  08b9  41                	DEFB +0x41
 13240  08ba  41                	DEFB +0x41
 13241  08bb  41                	DEFB +0x41
 13242  08bc  41                	DEFB +0x41
 13243  08bd  41                	DEFB +0x41
 13244  08be  41                	DEFB +0x41
 13245  08bf  41                	DEFB +0x41
 13246  08c0  41                	DEFB +0x41
 13247  08c1  41                	DEFB +0x41
 13248  08c2  41                	DEFB +0x41
 13249  08c3  41                	DEFB +0x41
 13250  08c4  41                	DEFB +0x41
 13251  08c5  41                	DEFB +0x41
 13252  08c6  41                	DEFB +0x41
 13253  08c7  41                	DEFB +0x41
 13254  08c8  41                	DEFB +0x41
 13255  08c9  41                	DEFB +0x41
 13256  08ca  41                	DEFB +0x41
 13257  08cb  41                	DEFB +0x41
 13258  08cc  41                	DEFB +0x41
 13259  08cd  41                	DEFB +0x41
 13260  08ce  41                	DEFB +0x41
 13261  08cf  41                	DEFB +0x41
 13262  08d0  41                	DEFB +0x41
 13263  08d1  41                	DEFB +0x41
 13264  08d2  41                	DEFB +0x41
 13265  08d3  41                	DEFB +0x41
 13266  08d4  41                	DEFB +0x41
 13267  08d5  41                	DEFB +0x41
 13268  08d6  41                	DEFB +0x41
 13269  08d7  41                	DEFB +0x41
 13270  08d8  41                	DEFB +0x41
 13271  08d9  41                	DEFB +0x41
 13272  08da  41                	DEFB +0x41
 13273  08db  41                	DEFB +0x41
 13274  08dc  41                	DEFB +0x41
 13275  08dd  41                	DEFB +0x41
 13276  08de  41                	DEFB +0x41
 13277  08df  41                	DEFB +0x41
 13278  08e0  41                	DEFB +0x41
 13279  08e1  41                	DEFB +0x41
 13280  08e2  41                	DEFB +0x41
 13281  08e3  41                	DEFB +0x41
 13282  08e4  41                	DEFB +0x41
 13283  08e5  41                	DEFB +0x41
 13284  08e6  41                	DEFB +0x41
 13285  08e7  41                	DEFB +0x41
 13286  08e8  41                	DEFB +0x41
 13287  08e9  41                	DEFB +0x41
 13288  08ea  41                	DEFB +0x41
 13289  08eb  41                	DEFB +0x41
 13290  08ec  41                	DEFB +0x41
 13291  08ed  41                	DEFB +0x41
 13292  08ee  41                	DEFB +0x41
 13293  08ef  41                	DEFB +0x41
 13294  08f0  41                	DEFB +0x41
 13295  08f1  41                	DEFB +0x41
 13296  08f2  41                	DEFB +0x41
 13297  08f3  41                	DEFB +0x41
 13298  08f4  41                	DEFB +0x41
 13299  08f5  41                	DEFB +0x41
 13300  08f6  41                	DEFB +0x41
 13301  08f7  41                	DEFB +0x41
 13302  08f8  41                	DEFB +0x41
 13303  08f9  41                	DEFB +0x41
 13304  08fa  41                	DEFB +0x41
 13305  08fb  41                	DEFB +0x41
 13306  08fc  41                	DEFB +0x41
 13307  08fd  41                	DEFB +0x41
 13308  08fe  41                	DEFB +0x41
 13309  08ff  41                	DEFB +0x41
 13310  0900  41                	DEFB +0x41
 13311  0901  41                	DEFB +0x41
 13312  0902  41                	DEFB +0x41
 13313  0903  41                	DEFB +0x41
 13314  0904  41                	DEFB +0x41
 13315  0905  41                	DEFB +0x41
 13316  0906  41                	DEFB +0x41
 13317  0907  41                	DEFB +0x41
 13318  0908  41                	DEFB +0x41
 13319  0909  41                	DEFB +0x41
 13320  090a  41                	DEFB +0x41
 13321  090b  41                	DEFB +0x41
 13322  090c  41                	DEFB +0x41
 13323  090d  41                	DEFB +0x41
 13324  090e  41                	DEFB +0x41
 13325  090f  41                	DEFB +0x41
 13326  0910  41                	DEFB +0x41
 13327  0911  f1                	DEFB +0xf1
 13328  0912  f1                	DEFB +0xf1
 13329  0913  f1                	DEFB +0xf1
 13330  0914  f1                	DEFB +0xf1
 13331  0915  f1                	DEFB +0xf1
 13332  0916  f1                	DEFB +0xf1
 13333  0917  f1                	DEFB +0xf1
 13334  0918  f1                	DEFB +0xf1
 13335  0919  f1                	DEFB +0xf1
 13336  091a  f1                	DEFB +0xf1
 13337  091b  f1                	DEFB +0xf1
 13338  091c  f1                	DEFB +0xf1
 13339  091d  f1                	DEFB +0xf1
 13340  091e  f1                	DEFB +0xf1
 13341  091f  f1                	DEFB +0xf1
 13342  0920  f1                	DEFB +0xf1
 13343  0921  f1                	DEFB +0xf1
 13344  0922  f1                	DEFB +0xf1
 13345  0923  f1                	DEFB +0xf1
 13346  0924  f1                	DEFB +0xf1
 13347  0925  f1                	DEFB +0xf1
 13348  0926  f1                	DEFB +0xf1
 13349  0927  f1                	DEFB +0xf1
 13350  0928  f1                	DEFB +0xf1
 13351  0929  f1                	DEFB +0xf1
 13352  092a  f1                	DEFB +0xf1
 13353  092b  f1                	DEFB +0xf1
 13354  092c  f1                	DEFB +0xf1
 13355  092d  f1                	DEFB +0xf1
 13356  092e  f1                	DEFB +0xf1
 13357  092f  f1                	DEFB +0xf1
 13358  0930  f1                	DEFB +0xf1
 13359  0931  f1                	DEFB +0xf1
 13360  0932  f1                	DEFB +0xf1
 13361  0933  f1                	DEFB +0xf1
 13362  0934  f1                	DEFB +0xf1
 13363  0935  f1                	DEFB +0xf1
 13364  0936  f1                	DEFB +0xf1
 13365  0937  f1                	DEFB +0xf1
 13366  0938  f1                	DEFB +0xf1
 13367  0939  f1                	DEFB +0xf1
 13368  093a  f1                	DEFB +0xf1
 13369  093b  f1                	DEFB +0xf1
 13370  093c  f1                	DEFB +0xf1
 13371  093d  f1                	DEFB +0xf1
 13372  093e  f1                	DEFB +0xf1
 13373  093f  f1                	DEFB +0xf1
 13374  0940  f1                	DEFB +0xf1
 13375  0941  f1                	DEFB +0xf1
 13376  0942  f1                	DEFB +0xf1
 13377  0943  f1                	DEFB +0xf1
 13378  0944  f1                	DEFB +0xf1
 13379  0945  f1                	DEFB +0xf1
 13380  0946  f1                	DEFB +0xf1
 13381  0947  f1                	DEFB +0xf1
 13382  0948  f1                	DEFB +0xf1
 13383  0949  f1                	DEFB +0xf1
 13384  094a  f1                	DEFB +0xf1
 13385  094b  f1                	DEFB +0xf1
 13386  094c  f1                	DEFB +0xf1
 13387  094d  f1                	DEFB +0xf1
 13388  094e  f1                	DEFB +0xf1
 13389  094f  f1                	DEFB +0xf1
 13390  0950  f1                	DEFB +0xf1
 13391  0951  f1                	DEFB +0xf1
 13392  0952  f1                	DEFB +0xf1
 13393  0953  f1                	DEFB +0xf1
 13394  0954  f1                	DEFB +0xf1
 13395  0955  f1                	DEFB +0xf1
 13396  0956  f1                	DEFB +0xf1
 13397  0957  f1                	DEFB +0xf1
 13398  0958  f1                	DEFB +0xf1
 13399  0959  f1                	DEFB +0xf1
 13400  095a  f1                	DEFB +0xf1
 13401  095b  f1                	DEFB +0xf1
 13402  095c  f1                	DEFB +0xf1
 13403  095d  f1                	DEFB +0xf1
 13404  095e  f1                	DEFB +0xf1
 13405  095f  f1                	DEFB +0xf1
 13406  0960  f1                	DEFB +0xf1
 13407  0961  f1                	DEFB +0xf1
 13408  0962  f1                	DEFB +0xf1
 13409  0963  f1                	DEFB +0xf1
 13410  0964  f1                	DEFB +0xf1
 13411  0965  f1                	DEFB +0xf1
 13412  0966  f1                	DEFB +0xf1
 13413  0967  f1                	DEFB +0xf1
 13414  0968  f1                	DEFB +0xf1
 13415  0969  f1                	DEFB +0xf1
 13416  096a  f1                	DEFB +0xf1
 13417  096b  f1                	DEFB +0xf1
 13418  096c  f1                	DEFB +0xf1
 13419  096d  f1                	DEFB +0xf1
 13420  096e  f1                	DEFB +0xf1
 13421  096f  f1                	DEFB +0xf1
 13422  0970  f1                	DEFB +0xf1
 13423  0971  f1                	DEFB +0xf1
 13424  0972  f1                	DEFB +0xf1
 13425  0973  f1                	DEFB +0xf1
 13426  0974  f1                	DEFB +0xf1
 13427  0975  f1                	DEFB +0xf1
 13428  0976  f1                	DEFB +0xf1
 13429  0977  f1                	DEFB +0xf1
 13430  0978  f1                	DEFB +0xf1
 13431  0979  f1                	DEFB +0xf1
 13432  097a  f1                	DEFB +0xf1
 13433  097b  f1                	DEFB +0xf1
 13434  097c  f1                	DEFB +0xf1
 13435  097d  f1                	DEFB +0xf1
 13436  097e  f1                	DEFB +0xf1
 13437  097f  f1                	DEFB +0xf1
 13438  0980  f1                	DEFB +0xf1
 13439  0981  f1                	DEFB +0xf1
 13440  0982  f1                	DEFB +0xf1
 13441  0983  f1                	DEFB +0xf1
 13442  0984  f1                	DEFB +0xf1
 13443  0985  f1                	DEFB +0xf1
 13444  0986  f1                	DEFB +0xf1
 13445  0987  f1                	DEFB +0xf1
 13446  0988  f1                	DEFB +0xf1
 13447  0989  f1                	DEFB +0xf1
 13448  098a  f1                	DEFB +0xf1
 13449  098b  f1                	DEFB +0xf1
 13450  098c  f1                	DEFB +0xf1
 13451  098d  f1                	DEFB +0xf1
 13452  098e  f1                	DEFB +0xf1
 13453  098f  f1                	DEFB +0xf1
 13454  0990  f1                	DEFB +0xf1
 13455  0991  f1                	DEFB +0xf1
 13456  0992  f1                	DEFB +0xf1
 13457  0993  f1                	DEFB +0xf1
 13458  0994  f1                	DEFB +0xf1
 13459  0995  f1                	DEFB +0xf1
 13460  0996  f1                	DEFB +0xf1
 13461  0997  f1                	DEFB +0xf1
 13462  0998  f1                	DEFB +0xf1
 13463  0999  f1                	DEFB +0xf1
 13464  099a  f1                	DEFB +0xf1
 13465  099b  f1                	DEFB +0xf1
 13466  099c  f1                	DEFB +0xf1
 13467  099d  f1                	DEFB +0xf1
 13468  099e  f1                	DEFB +0xf1
 13469  099f  f1                	DEFB +0xf1
 13470  09a0  f1                	DEFB +0xf1
 13471  09a1  f1                	DEFB +0xf1
 13472  09a2  f1                	DEFB +0xf1
 13473  09a3  f1                	DEFB +0xf1
 13474  09a4  f1                	DEFB +0xf1
 13475  09a5  f1                	DEFB +0xf1
 13476  09a6  f1                	DEFB +0xf1
 13477  09a7  f1                	DEFB +0xf1
 13478  09a8  f1                	DEFB +0xf1
 13479  09a9  f1                	DEFB +0xf1
 13480  09aa  f1                	DEFB +0xf1
 13481  09ab  f1                	DEFB +0xf1
 13482  09ac  f1                	DEFB +0xf1
 13483  09ad  f1                	DEFB +0xf1
 13484  09ae  f1                	DEFB +0xf1
 13485  09af  f1                	DEFB +0xf1
 13486  09b0  f1                	DEFB +0xf1
 13487  09b1  f1                	DEFB +0xf1
 13488  09b2  f1                	DEFB +0xf1
 13489  09b3  f1                	DEFB +0xf1
 13490  09b4  f1                	DEFB +0xf1
 13491  09b5  f1                	DEFB +0xf1
 13492  09b6  f1                	DEFB +0xf1
 13493  09b7  f1                	DEFB +0xf1
 13494  09b8  f1                	DEFB +0xf1
 13495  09b9  f1                	DEFB +0xf1
 13496  09ba  f1                	DEFB +0xf1
 13497  09bb  f1                	DEFB +0xf1
 13498  09bc  f1                	DEFB +0xf1
 13499  09bd  f1                	DEFB +0xf1
 13500  09be  f1                	DEFB +0xf1
 13501  09bf  f1                	DEFB +0xf1
 13502  09c0  f1                	DEFB +0xf1
 13503  09c1  f1                	DEFB +0xf1
 13504  09c2  f1                	DEFB +0xf1
 13505  09c3  f1                	DEFB +0xf1
 13506  09c4  f1                	DEFB +0xf1
 13507  09c5  f1                	DEFB +0xf1
 13508  09c6  f1                	DEFB +0xf1
 13509  09c7  f1                	DEFB +0xf1
 13510  09c8  f1                	DEFB +0xf1
 13511  09c9  f1                	DEFB +0xf1
 13512  09ca  f1                	DEFB +0xf1
 13513  09cb  f1                	DEFB +0xf1
 13514  09cc  f1                	DEFB +0xf1
 13515  09cd  f1                	DEFB +0xf1
 13516  09ce  f1                	DEFB +0xf1
 13517  09cf  f1                	DEFB +0xf1
 13518  09d0  f1                	DEFB +0xf1
 13519  09d1  f1                	DEFB +0xf1
 13520  09d2  f1                	DEFB +0xf1
 13521  09d3  f1                	DEFB +0xf1
 13522  09d4  f1                	DEFB +0xf1
 13523  09d5  f1                	DEFB +0xf1
 13524  09d6  f1                	DEFB +0xf1
 13525  09d7  f1                	DEFB +0xf1
 13526  09d8  f1                	DEFB +0xf1
 13527  09d9  f1                	DEFB +0xf1
 13528  09da  f1                	DEFB +0xf1
 13529  09db  f1                	DEFB +0xf1
 13530  09dc  f1                	DEFB +0xf1
 13531  09dd  f1                	DEFB +0xf1
 13532  09de  f1                	DEFB +0xf1
 13533  09df  f1                	DEFB +0xf1
 13534  09e0  f1                	DEFB +0xf1
 13535  09e1  f1                	DEFB +0xf1
 13536  09e2  f1                	DEFB +0xf1
 13537  09e3  f1                	DEFB +0xf1
 13538  09e4  f1                	DEFB +0xf1
 13539  09e5  f1                	DEFB +0xf1
 13540  09e6  f1                	DEFB +0xf1
 13541  09e7  f1                	DEFB +0xf1
 13542  09e8  f1                	DEFB +0xf1
 13543  09e9  f1                	DEFB +0xf1
 13544  09ea  f1                	DEFB +0xf1
 13545  09eb  f1                	DEFB +0xf1
 13546  09ec  f1                	DEFB +0xf1
 13547  09ed  f1                	DEFB +0xf1
 13548  09ee  f1                	DEFB +0xf1
 13549  09ef  f1                	DEFB +0xf1
 13550  09f0  f1                	DEFB +0xf1
 13551  09f1  f1                	DEFB +0xf1
 13552  09f2  f1                	DEFB +0xf1
 13553  09f3  f1                	DEFB +0xf1
 13554  09f4  f1                	DEFB +0xf1
 13555  09f5  f1                	DEFB +0xf1
 13556  09f6  f1                	DEFB +0xf1
 13557  09f7  f1                	DEFB +0xf1
 13558  09f8  f1                	DEFB +0xf1
 13559  09f9  f1                	DEFB +0xf1
 13560  09fa  f1                	DEFB +0xf1
 13561  09fb  f1                	DEFB +0xf1
 13562  09fc  f1                	DEFB +0xf1
 13563  09fd  f1                	DEFB +0xf1
 13564  09fe  f1                	DEFB +0xf1
 13565  09ff  f1                	DEFB +0xf1
 13566  0a00  f1                	DEFB +0xf1
 13567  0a01  21                	DEFB +0x21
 13568  0a02  21                	DEFB +0x21
 13569  0a03  21                	DEFB +0x21
 13570  0a04  21                	DEFB +0x21
 13571  0a05  21                	DEFB +0x21
 13572  0a06  21                	DEFB +0x21
 13573  0a07  21                	DEFB +0x21
 13574  0a08  21                	DEFB +0x21
 13575  0a09  f1                	DEFB +0xf1
 13576  0a0a  f1                	DEFB +0xf1
 13577  0a0b  f1                	DEFB +0xf1
 13578  0a0c  f1                	DEFB +0xf1
 13579  0a0d  f1                	DEFB +0xf1
 13580  0a0e  f1                	DEFB +0xf1
 13581  0a0f  f1                	DEFB +0xf1
 13582  0a10  f1                	DEFB +0xf1
 13583  0a11  f1                	DEFB +0xf1
 13584  0a12  f1                	DEFB +0xf1
 13585  0a13  f1                	DEFB +0xf1
 13586  0a14  f1                	DEFB +0xf1
 13587  0a15  f1                	DEFB +0xf1
 13588  0a16  f1                	DEFB +0xf1
 13589  0a17  f1                	DEFB +0xf1
 13590  0a18  f1                	DEFB +0xf1
 13591  0a19  f1                	DEFB +0xf1
 13592  0a1a  f1                	DEFB +0xf1
 13593  0a1b  f1                	DEFB +0xf1
 13594  0a1c  f1                	DEFB +0xf1
 13595  0a1d  f1                	DEFB +0xf1
 13596  0a1e  f1                	DEFB +0xf1
 13597  0a1f  f1                	DEFB +0xf1
 13598  0a20  f1                	DEFB +0xf1
 13599  0a21  f1                	DEFB +0xf1
 13600  0a22  f1                	DEFB +0xf1
 13601  0a23  f1                	DEFB +0xf1
 13602  0a24  f1                	DEFB +0xf1
 13603  0a25  f1                	DEFB +0xf1
 13604  0a26  f1                	DEFB +0xf1
 13605  0a27  f1                	DEFB +0xf1
 13606  0a28  f1                	DEFB +0xf1
 13607  0a29  f1                	DEFB +0xf1
 13608  0a2a  f1                	DEFB +0xf1
 13609  0a2b  f1                	DEFB +0xf1
 13610  0a2c  f1                	DEFB +0xf1
 13611  0a2d  f1                	DEFB +0xf1
 13612  0a2e  f1                	DEFB +0xf1
 13613  0a2f  f1                	DEFB +0xf1
 13614  0a30  f1                	DEFB +0xf1
 13615  0a31  f1                	DEFB +0xf1
 13616  0a32  f1                	DEFB +0xf1
 13617  0a33  f1                	DEFB +0xf1
 13618  0a34  f1                	DEFB +0xf1
 13619  0a35  f1                	DEFB +0xf1
 13620  0a36  f1                	DEFB +0xf1
 13621  0a37  f1                	DEFB +0xf1
 13622  0a38  f1                	DEFB +0xf1
 13623  0a39  f1                	DEFB +0xf1
 13624  0a3a  f1                	DEFB +0xf1
 13625  0a3b  f1                	DEFB +0xf1
 13626  0a3c  f1                	DEFB +0xf1
 13627  0a3d  f1                	DEFB +0xf1
 13628  0a3e  f1                	DEFB +0xf1
 13629  0a3f  f1                	DEFB +0xf1
 13630  0a40  f1                	DEFB +0xf1
 13631  0a41  f1                	DEFB +0xf1
 13632  0a42  f1                	DEFB +0xf1
 13633  0a43  f1                	DEFB +0xf1
 13634  0a44  f1                	DEFB +0xf1
 13635  0a45  f1                	DEFB +0xf1
 13636  0a46  f1                	DEFB +0xf1
 13637  0a47  f1                	DEFB +0xf1
 13638  0a48  f1                	DEFB +0xf1
 13639  0a49  f1                	DEFB +0xf1
 13640  0a4a  f1                	DEFB +0xf1
 13641  0a4b  f1                	DEFB +0xf1
 13642  0a4c  f1                	DEFB +0xf1
 13643  0a4d  f1                	DEFB +0xf1
 13644  0a4e  f1                	DEFB +0xf1
 13645  0a4f  f1                	DEFB +0xf1
 13646  0a50  f1                	DEFB +0xf1
 13647  0a51  f1                	DEFB +0xf1
 13648  0a52  f1                	DEFB +0xf1
 13649  0a53  f1                	DEFB +0xf1
 13650  0a54  f1                	DEFB +0xf1
 13651  0a55  f1                	DEFB +0xf1
 13652  0a56  f1                	DEFB +0xf1
 13653  0a57  f1                	DEFB +0xf1
 13654  0a58  f1                	DEFB +0xf1
 13655  0a59  f1                	DEFB +0xf1
 13656  0a5a  f1                	DEFB +0xf1
 13657  0a5b  f1                	DEFB +0xf1
 13658  0a5c  f1                	DEFB +0xf1
 13659  0a5d  f1                	DEFB +0xf1
 13660  0a5e  f1                	DEFB +0xf1
 13661  0a5f  f1                	DEFB +0xf1
 13662  0a60  f1                	DEFB +0xf1
 13663  0a61  f1                	DEFB +0xf1
 13664  0a62  f1                	DEFB +0xf1
 13665  0a63  f1                	DEFB +0xf1
 13666  0a64  f1                	DEFB +0xf1
 13667  0a65  f1                	DEFB +0xf1
 13668  0a66  f1                	DEFB +0xf1
 13669  0a67  f1                	DEFB +0xf1
 13670  0a68  f1                	DEFB +0xf1
 13671  0a69  f1                	DEFB +0xf1
 13672  0a6a  f1                	DEFB +0xf1
 13673  0a6b  f1                	DEFB +0xf1
 13674  0a6c  f1                	DEFB +0xf1
 13675  0a6d  f1                	DEFB +0xf1
 13676  0a6e  f1                	DEFB +0xf1
 13677  0a6f  f1                	DEFB +0xf1
 13678  0a70  f1                	DEFB +0xf1
 13679  0a71  f1                	DEFB +0xf1
 13680  0a72  f1                	DEFB +0xf1
 13681  0a73  f1                	DEFB +0xf1
 13682  0a74  f1                	DEFB +0xf1
 13683  0a75  f1                	DEFB +0xf1
 13684  0a76  f1                	DEFB +0xf1
 13685  0a77  f1                	DEFB +0xf1
 13686  0a78  f1                	DEFB +0xf1
 13687  0a79  f1                	DEFB +0xf1
 13688  0a7a  f1                	DEFB +0xf1
 13689  0a7b  f1                	DEFB +0xf1
 13690  0a7c  f1                	DEFB +0xf1
 13691  0a7d  f1                	DEFB +0xf1
 13692  0a7e  f1                	DEFB +0xf1
 13693  0a7f  f1                	DEFB +0xf1
 13694  0a80  f1                	DEFB +0xf1
 13695  0a81  f1                	DEFB +0xf1
 13696  0a82  f1                	DEFB +0xf1
 13697  0a83  f1                	DEFB +0xf1
 13698  0a84  f1                	DEFB +0xf1
 13699  0a85  f1                	DEFB +0xf1
 13700  0a86  f1                	DEFB +0xf1
 13701  0a87  f1                	DEFB +0xf1
 13702  0a88  f1                	DEFB +0xf1
 13703  0a89  f1                	DEFB +0xf1
 13704  0a8a  f1                	DEFB +0xf1
 13705  0a8b  f1                	DEFB +0xf1
 13706  0a8c  f1                	DEFB +0xf1
 13707  0a8d  f1                	DEFB +0xf1
 13708  0a8e  f1                	DEFB +0xf1
 13709  0a8f  f1                	DEFB +0xf1
 13710  0a90  f1                	DEFB +0xf1
 13711  0a91  f1                	DEFB +0xf1
 13712  0a92  f1                	DEFB +0xf1
 13713  0a93  f1                	DEFB +0xf1
 13714  0a94  f1                	DEFB +0xf1
 13715  0a95  f1                	DEFB +0xf1
 13716  0a96  f1                	DEFB +0xf1
 13717  0a97  f1                	DEFB +0xf1
 13718  0a98  f1                	DEFB +0xf1
 13719  0a99  f1                	DEFB +0xf1
 13720  0a9a  f1                	DEFB +0xf1
 13721  0a9b  f1                	DEFB +0xf1
 13722  0a9c  f1                	DEFB +0xf1
 13723  0a9d  f1                	DEFB +0xf1
 13724  0a9e  f1                	DEFB +0xf1
 13725  0a9f  f1                	DEFB +0xf1
 13726  0aa0  f1                	DEFB +0xf1
 13727  0aa1  f1                	DEFB +0xf1
 13728  0aa2  f1                	DEFB +0xf1
 13729  0aa3  f1                	DEFB +0xf1
 13730  0aa4  f1                	DEFB +0xf1
 13731  0aa5  f1                	DEFB +0xf1
 13732  0aa6  f1                	DEFB +0xf1
 13733  0aa7  f1                	DEFB +0xf1
 13734  0aa8  f1                	DEFB +0xf1
 13735  0aa9  f1                	DEFB +0xf1
 13736  0aaa  f1                	DEFB +0xf1
 13737  0aab  f1                	DEFB +0xf1
 13738  0aac  f1                	DEFB +0xf1
 13739  0aad  f1                	DEFB +0xf1
 13740  0aae  f1                	DEFB +0xf1
 13741  0aaf  f1                	DEFB +0xf1
 13742  0ab0  f1                	DEFB +0xf1
 13743  0ab1  f1                	DEFB +0xf1
 13744  0ab2  f1                	DEFB +0xf1
 13745  0ab3  f1                	DEFB +0xf1
 13746  0ab4  f1                	DEFB +0xf1
 13747  0ab5  f1                	DEFB +0xf1
 13748  0ab6  f1                	DEFB +0xf1
 13749  0ab7  f1                	DEFB +0xf1
 13750  0ab8  f1                	DEFB +0xf1
 13751  0ab9  f1                	DEFB +0xf1
 13752  0aba  f1                	DEFB +0xf1
 13753  0abb  f1                	DEFB +0xf1
 13754  0abc  f1                	DEFB +0xf1
 13755  0abd  f1                	DEFB +0xf1
 13756  0abe  f1                	DEFB +0xf1
 13757  0abf  f1                	DEFB +0xf1
 13758  0ac0  f1                	DEFB +0xf1
 13759  0ac1  f1                	DEFB +0xf1
 13760  0ac2  f1                	DEFB +0xf1
 13761  0ac3  f1                	DEFB +0xf1
 13762  0ac4  f1                	DEFB +0xf1
 13763  0ac5  f1                	DEFB +0xf1
 13764  0ac6  f1                	DEFB +0xf1
 13765  0ac7  f1                	DEFB +0xf1
 13766  0ac8  f1                	DEFB +0xf1
 13767  0ac9  f1                	DEFB +0xf1
 13768  0aca  f1                	DEFB +0xf1
 13769  0acb  f1                	DEFB +0xf1
 13770  0acc  f1                	DEFB +0xf1
 13771  0acd  f1                	DEFB +0xf1
 13772  0ace  f1                	DEFB +0xf1
 13773  0acf  f1                	DEFB +0xf1
 13774  0ad0  f1                	DEFB +0xf1
 13775  0ad1  f1                	DEFB +0xf1
 13776  0ad2  f1                	DEFB +0xf1
 13777  0ad3  f1                	DEFB +0xf1
 13778  0ad4  f1                	DEFB +0xf1
 13779  0ad5  f1                	DEFB +0xf1
 13780  0ad6  f1                	DEFB +0xf1
 13781  0ad7  f1                	DEFB +0xf1
 13782  0ad8  f1                	DEFB +0xf1
 13783  0ad9  f1                	DEFB +0xf1
 13784  0ada  f1                	DEFB +0xf1
 13785  0adb  f1                	DEFB +0xf1
 13786  0adc  f1                	DEFB +0xf1
 13787  0add  f1                	DEFB +0xf1
 13788  0ade  f1                	DEFB +0xf1
 13789  0adf  f1                	DEFB +0xf1
 13790  0ae0  f1                	DEFB +0xf1
 13791  0ae1  f1                	DEFB +0xf1
 13792  0ae2  f1                	DEFB +0xf1
 13793  0ae3  f1                	DEFB +0xf1
 13794  0ae4  f1                	DEFB +0xf1
 13795  0ae5  f1                	DEFB +0xf1
 13796  0ae6  f1                	DEFB +0xf1
 13797  0ae7  f1                	DEFB +0xf1
 13798  0ae8  f1                	DEFB +0xf1
 13799  0ae9  c1                	DEFB +0xc1
 13800  0aea  c1                	DEFB +0xc1
 13801  0aeb  c1                	DEFB +0xc1
 13802  0aec  c1                	DEFB +0xc1
 13803  0aed  c1                	DEFB +0xc1
 13804  0aee  c1                	DEFB +0xc1
 13805  0aef  c1                	DEFB +0xc1
 13806  0af0  c1                	DEFB +0xc1
 13807  0af1  41                	DEFB +0x41
 13808  0af2  41                	DEFB +0x41
 13809  0af3  41                	DEFB +0x41
 13810  0af4  41                	DEFB +0x41
 13811  0af5  41                	DEFB +0x41
 13812  0af6  41                	DEFB +0x41
 13813  0af7  41                	DEFB +0x41
 13814  0af8  41                	DEFB +0x41
 13815  0af9  41                	DEFB +0x41
 13816  0afa  41                	DEFB +0x41
 13817  0afb  41                	DEFB +0x41
 13818  0afc  41                	DEFB +0x41
 13819  0afd  41                	DEFB +0x41
 13820  0afe  41                	DEFB +0x41
 13821  0aff  41                	DEFB +0x41
 13822  0b00  41                	DEFB +0x41
 13823  0b01  41                	DEFB +0x41
 13824  0b02  41                	DEFB +0x41
 13825  0b03  41                	DEFB +0x41
 13826  0b04  41                	DEFB +0x41
 13827  0b05  41                	DEFB +0x41
 13828  0b06  41                	DEFB +0x41
 13829  0b07  41                	DEFB +0x41
 13830  0b08  41                	DEFB +0x41
 13831  0b09  41                	DEFB +0x41
 13832  0b0a  41                	DEFB +0x41
 13833  0b0b  41                	DEFB +0x41
 13834  0b0c  41                	DEFB +0x41
 13835  0b0d  41                	DEFB +0x41
 13836  0b0e  41                	DEFB +0x41
 13837  0b0f  41                	DEFB +0x41
 13838  0b10  41                	DEFB +0x41
 13839  0b11  41                	DEFB +0x41
 13840  0b12  41                	DEFB +0x41
 13841  0b13  41                	DEFB +0x41
 13842  0b14  41                	DEFB +0x41
 13843  0b15  41                	DEFB +0x41
 13844  0b16  41                	DEFB +0x41
 13845  0b17  41                	DEFB +0x41
 13846  0b18  41                	DEFB +0x41
 13847  0b19  41                	DEFB +0x41
 13848  0b1a  41                	DEFB +0x41
 13849  0b1b  41                	DEFB +0x41
 13850  0b1c  41                	DEFB +0x41
 13851  0b1d  41                	DEFB +0x41
 13852  0b1e  41                	DEFB +0x41
 13853  0b1f  41                	DEFB +0x41
 13854  0b20  41                	DEFB +0x41
 13855  0b21  41                	DEFB +0x41
 13856  0b22  41                	DEFB +0x41
 13857  0b23  41                	DEFB +0x41
 13858  0b24  41                	DEFB +0x41
 13859  0b25  41                	DEFB +0x41
 13860  0b26  41                	DEFB +0x41
 13861  0b27  41                	DEFB +0x41
 13862  0b28  41                	DEFB +0x41
 13863  0b29  41                	DEFB +0x41
 13864  0b2a  41                	DEFB +0x41
 13865  0b2b  41                	DEFB +0x41
 13866  0b2c  41                	DEFB +0x41
 13867  0b2d  41                	DEFB +0x41
 13868  0b2e  41                	DEFB +0x41
 13869  0b2f  41                	DEFB +0x41
 13870  0b30  41                	DEFB +0x41
 13871  0b31  41                	DEFB +0x41
 13872  0b32  41                	DEFB +0x41
 13873  0b33  41                	DEFB +0x41
 13874  0b34  41                	DEFB +0x41
 13875  0b35  41                	DEFB +0x41
 13876  0b36  41                	DEFB +0x41
 13877  0b37  41                	DEFB +0x41
 13878  0b38  41                	DEFB +0x41
 13879  0b39  41                	DEFB +0x41
 13880  0b3a  41                	DEFB +0x41
 13881  0b3b  41                	DEFB +0x41
 13882  0b3c  41                	DEFB +0x41
 13883  0b3d  41                	DEFB +0x41
 13884  0b3e  41                	DEFB +0x41
 13885  0b3f  41                	DEFB +0x41
 13886  0b40  41                	DEFB +0x41
 13887  0b41  41                	DEFB +0x41
 13888  0b42  41                	DEFB +0x41
 13889  0b43  41                	DEFB +0x41
 13890  0b44  41                	DEFB +0x41
 13891  0b45  41                	DEFB +0x41
 13892  0b46  41                	DEFB +0x41
 13893  0b47  41                	DEFB +0x41
 13894  0b48  41                	DEFB +0x41
 13895  0b49  41                	DEFB +0x41
 13896  0b4a  41                	DEFB +0x41
 13897  0b4b  41                	DEFB +0x41
 13898  0b4c  41                	DEFB +0x41
 13899  0b4d  41                	DEFB +0x41
 13900  0b4e  41                	DEFB +0x41
 13901  0b4f  41                	DEFB +0x41
 13902  0b50  41                	DEFB +0x41
 13903  0b51  41                	DEFB +0x41
 13904  0b52  41                	DEFB +0x41
 13905  0b53  41                	DEFB +0x41
 13906  0b54  41                	DEFB +0x41
 13907  0b55  41                	DEFB +0x41
 13908  0b56  41                	DEFB +0x41
 13909  0b57  41                	DEFB +0x41
 13910  0b58  41                	DEFB +0x41
 13911  0b59  41                	DEFB +0x41
 13912  0b5a  41                	DEFB +0x41
 13913  0b5b  41                	DEFB +0x41
 13914  0b5c  41                	DEFB +0x41
 13915  0b5d  41                	DEFB +0x41
 13916  0b5e  41                	DEFB +0x41
 13917  0b5f  41                	DEFB +0x41
 13918  0b60  41                	DEFB +0x41
 13919  0b61  41                	DEFB +0x41
 13920  0b62  41                	DEFB +0x41
 13921  0b63  41                	DEFB +0x41
 13922  0b64  41                	DEFB +0x41
 13923  0b65  41                	DEFB +0x41
 13924  0b66  41                	DEFB +0x41
 13925  0b67  41                	DEFB +0x41
 13926  0b68  41                	DEFB +0x41
 13927  0b69  41                	DEFB +0x41
 13928  0b6a  41                	DEFB +0x41
 13929  0b6b  41                	DEFB +0x41
 13930  0b6c  41                	DEFB +0x41
 13931  0b6d  41                	DEFB +0x41
 13932  0b6e  41                	DEFB +0x41
 13933  0b6f  41                	DEFB +0x41
 13934  0b70  41                	DEFB +0x41
 13935  0b71  41                	DEFB +0x41
 13936  0b72  41                	DEFB +0x41
 13937  0b73  41                	DEFB +0x41
 13938  0b74  41                	DEFB +0x41
 13939  0b75  41                	DEFB +0x41
 13940  0b76  41                	DEFB +0x41
 13941  0b77  41                	DEFB +0x41
 13942  0b78  41                	DEFB +0x41
 13943  0b79  41                	DEFB +0x41
 13944  0b7a  41                	DEFB +0x41
 13945  0b7b  41                	DEFB +0x41
 13946  0b7c  41                	DEFB +0x41
 13947  0b7d  41                	DEFB +0x41
 13948  0b7e  41                	DEFB +0x41
 13949  0b7f  41                	DEFB +0x41
 13950  0b80  41                	DEFB +0x41
 13951  0b81  41                	DEFB +0x41
 13952  0b82  41                	DEFB +0x41
 13953  0b83  41                	DEFB +0x41
 13954  0b84  41                	DEFB +0x41
 13955  0b85  41                	DEFB +0x41
 13956  0b86  41                	DEFB +0x41
 13957  0b87  41                	DEFB +0x41
 13958  0b88  41                	DEFB +0x41
 13959  0b89  41                	DEFB +0x41
 13960  0b8a  41                	DEFB +0x41
 13961  0b8b  41                	DEFB +0x41
 13962  0b8c  41                	DEFB +0x41
 13963  0b8d  41                	DEFB +0x41
 13964  0b8e  41                	DEFB +0x41
 13965  0b8f  41                	DEFB +0x41
 13966  0b90  41                	DEFB +0x41
 13967  0b91  41                	DEFB +0x41
 13968  0b92  41                	DEFB +0x41
 13969  0b93  41                	DEFB +0x41
 13970  0b94  41                	DEFB +0x41
 13971  0b95  41                	DEFB +0x41
 13972  0b96  41                	DEFB +0x41
 13973  0b97  41                	DEFB +0x41
 13974  0b98  41                	DEFB +0x41
 13975  0b99  41                	DEFB +0x41
 13976  0b9a  41                	DEFB +0x41
 13977  0b9b  41                	DEFB +0x41
 13978  0b9c  41                	DEFB +0x41
 13979  0b9d  41                	DEFB +0x41
 13980  0b9e  41                	DEFB +0x41
 13981  0b9f  41                	DEFB +0x41
 13982  0ba0  41                	DEFB +0x41
 13983  0ba1  41                	DEFB +0x41
 13984  0ba2  41                	DEFB +0x41
 13985  0ba3  41                	DEFB +0x41
 13986  0ba4  41                	DEFB +0x41
 13987  0ba5  41                	DEFB +0x41
 13988  0ba6  41                	DEFB +0x41
 13989  0ba7  41                	DEFB +0x41
 13990  0ba8  41                	DEFB +0x41
 13991  0ba9  41                	DEFB +0x41
 13992  0baa  41                	DEFB +0x41
 13993  0bab  41                	DEFB +0x41
 13994  0bac  41                	DEFB +0x41
 13995  0bad  41                	DEFB +0x41
 13996  0bae  41                	DEFB +0x41
 13997  0baf  41                	DEFB +0x41
 13998  0bb0  41                	DEFB +0x41
 13999  0bb1  41                	DEFB +0x41
 14000  0bb2  41                	DEFB +0x41
 14001  0bb3  41                	DEFB +0x41
 14002  0bb4  41                	DEFB +0x41
 14003  0bb5  41                	DEFB +0x41
 14004  0bb6  41                	DEFB +0x41
 14005  0bb7  41                	DEFB +0x41
 14006  0bb8  41                	DEFB +0x41
 14007  0bb9  41                	DEFB +0x41
 14008  0bba  41                	DEFB +0x41
 14009  0bbb  41                	DEFB +0x41
 14010  0bbc  41                	DEFB +0x41
 14011  0bbd  41                	DEFB +0x41
 14012  0bbe  41                	DEFB +0x41
 14013  0bbf  41                	DEFB +0x41
 14014  0bc0  41                	DEFB +0x41
 14015  0bc1  41                	DEFB +0x41
 14016  0bc2  41                	DEFB +0x41
 14017  0bc3  41                	DEFB +0x41
 14018  0bc4  41                	DEFB +0x41
 14019  0bc5  41                	DEFB +0x41
 14020  0bc6  41                	DEFB +0x41
 14021  0bc7  41                	DEFB +0x41
 14022  0bc8  41                	DEFB +0x41
 14023  0bc9  41                	DEFB +0x41
 14024  0bca  41                	DEFB +0x41
 14025  0bcb  41                	DEFB +0x41
 14026  0bcc  41                	DEFB +0x41
 14027  0bcd  41                	DEFB +0x41
 14028  0bce  41                	DEFB +0x41
 14029  0bcf  41                	DEFB +0x41
 14030  0bd0  41                	DEFB +0x41
 14031  0bd1  41                	DEFB +0x41
 14032  0bd2  41                	DEFB +0x41
 14033  0bd3  41                	DEFB +0x41
 14034  0bd4  41                	DEFB +0x41
 14035  0bd5  41                	DEFB +0x41
 14036  0bd6  41                	DEFB +0x41
 14037  0bd7  41                	DEFB +0x41
 14038  0bd8  41                	DEFB +0x41
 14039  0bd9  41                	DEFB +0x41
 14040  0bda  41                	DEFB +0x41
 14041  0bdb  41                	DEFB +0x41
 14042  0bdc  41                	DEFB +0x41
 14043  0bdd  41                	DEFB +0x41
 14044  0bde  41                	DEFB +0x41
 14045  0bdf  41                	DEFB +0x41
 14046  0be0  41                	DEFB +0x41
 14047  0be1  41                	DEFB +0x41
 14048  0be2  41                	DEFB +0x41
 14049  0be3  41                	DEFB +0x41
 14050  0be4  41                	DEFB +0x41
 14051  0be5  41                	DEFB +0x41
 14052  0be6  41                	DEFB +0x41
 14053  0be7  41                	DEFB +0x41
 14054  0be8  41                	DEFB +0x41
 14055  0be9  41                	DEFB +0x41
 14056  0bea  41                	DEFB +0x41
 14057  0beb  41                	DEFB +0x41
 14058  0bec  41                	DEFB +0x41
 14059  0bed  41                	DEFB +0x41
 14060  0bee  41                	DEFB +0x41
 14061  0bef  41                	DEFB +0x41
 14062  0bf0  41                	DEFB +0x41
 14063  0bf1  41                	DEFB +0x41
 14064  0bf2  41                	DEFB +0x41
 14065  0bf3  41                	DEFB +0x41
 14066  0bf4  41                	DEFB +0x41
 14067  0bf5  41                	DEFB +0x41
 14068  0bf6  41                	DEFB +0x41
 14069  0bf7  41                	DEFB +0x41
 14070  0bf8  41                	DEFB +0x41
 14071  0bf9  41                	DEFB +0x41
 14072  0bfa  41                	DEFB +0x41
 14073  0bfb  41                	DEFB +0x41
 14074  0bfc  41                	DEFB +0x41
 14075  0bfd  41                	DEFB +0x41
 14076  0bfe  41                	DEFB +0x41
 14077  0bff  41                	DEFB +0x41
 14078  0c00  41                	DEFB +0x41
 14079  0c01  41                	DEFB +0x41
 14080  0c02  41                	DEFB +0x41
 14081  0c03  41                	DEFB +0x41
 14082  0c04  41                	DEFB +0x41
 14083  0c05  41                	DEFB +0x41
 14084  0c06  41                	DEFB +0x41
 14085  0c07  41                	DEFB +0x41
 14086  0c08  41                	DEFB +0x41
 14087  0c09  41                	DEFB +0x41
 14088  0c0a  41                	DEFB +0x41
 14089  0c0b  41                	DEFB +0x41
 14090  0c0c  41                	DEFB +0x41
 14091  0c0d  41                	DEFB +0x41
 14092  0c0e  41                	DEFB +0x41
 14093  0c0f  41                	DEFB +0x41
 14094  0c10  41                	DEFB +0x41
 14095  0c11  41                	DEFB +0x41
 14096  0c12  41                	DEFB +0x41
 14097  0c13  41                	DEFB +0x41
 14098  0c14  41                	DEFB +0x41
 14099  0c15  41                	DEFB +0x41
 14100  0c16  41                	DEFB +0x41
 14101  0c17  41                	DEFB +0x41
 14102  0c18  41                	DEFB +0x41
 14103  0c19  41                	DEFB +0x41
 14104  0c1a  41                	DEFB +0x41
 14105  0c1b  41                	DEFB +0x41
 14106  0c1c  41                	DEFB +0x41
 14107  0c1d  41                	DEFB +0x41
 14108  0c1e  41                	DEFB +0x41
 14109  0c1f  41                	DEFB +0x41
 14110  0c20  41                	DEFB +0x41
 14111  0c21  41                	DEFB +0x41
 14112  0c22  41                	DEFB +0x41
 14113  0c23  41                	DEFB +0x41
 14114  0c24  41                	DEFB +0x41
 14115  0c25  41                	DEFB +0x41
 14116  0c26  41                	DEFB +0x41
 14117  0c27  41                	DEFB +0x41
 14118  0c28  41                	DEFB +0x41
 14119  0c29  41                	DEFB +0x41
 14120  0c2a  41                	DEFB +0x41
 14121  0c2b  41                	DEFB +0x41
 14122  0c2c  41                	DEFB +0x41
 14123  0c2d  41                	DEFB +0x41
 14124  0c2e  41                	DEFB +0x41
 14125  0c2f  41                	DEFB +0x41
 14126  0c30  41                	DEFB +0x41
 14127  0c31  41                	DEFB +0x41
 14128  0c32  41                	DEFB +0x41
 14129  0c33  41                	DEFB +0x41
 14130  0c34  41                	DEFB +0x41
 14131  0c35  41                	DEFB +0x41
 14132  0c36  41                	DEFB +0x41
 14133  0c37  41                	DEFB +0x41
 14134  0c38  41                	DEFB +0x41
 14135  0c39  41                	DEFB +0x41
 14136  0c3a  41                	DEFB +0x41
 14137  0c3b  41                	DEFB +0x41
 14138  0c3c  41                	DEFB +0x41
 14139  0c3d  41                	DEFB +0x41
 14140  0c3e  41                	DEFB +0x41
 14141  0c3f  41                	DEFB +0x41
 14142  0c40  41                	DEFB +0x41
 14143  0c41  41                	DEFB +0x41
 14144  0c42  41                	DEFB +0x41
 14145  0c43  41                	DEFB +0x41
 14146  0c44  41                	DEFB +0x41
 14147  0c45  41                	DEFB +0x41
 14148  0c46  41                	DEFB +0x41
 14149  0c47  41                	DEFB +0x41
 14150  0c48  41                	DEFB +0x41
 14151  0c49  41                	DEFB +0x41
 14152  0c4a  41                	DEFB +0x41
 14153  0c4b  41                	DEFB +0x41
 14154  0c4c  41                	DEFB +0x41
 14155  0c4d  41                	DEFB +0x41
 14156  0c4e  41                	DEFB +0x41
 14157  0c4f  41                	DEFB +0x41
 14158  0c50  41                	DEFB +0x41
 14159  0c51  41                	DEFB +0x41
 14160  0c52  41                	DEFB +0x41
 14161  0c53  41                	DEFB +0x41
 14162  0c54  41                	DEFB +0x41
 14163  0c55  41                	DEFB +0x41
 14164  0c56  41                	DEFB +0x41
 14165  0c57  41                	DEFB +0x41
 14166  0c58  41                	DEFB +0x41
 14167  0c59  41                	DEFB +0x41
 14168  0c5a  41                	DEFB +0x41
 14169  0c5b  41                	DEFB +0x41
 14170  0c5c  41                	DEFB +0x41
 14171  0c5d  41                	DEFB +0x41
 14172  0c5e  41                	DEFB +0x41
 14173  0c5f  41                	DEFB +0x41
 14174  0c60  41                	DEFB +0x41
 14175  0c61  41                	DEFB +0x41
 14176  0c62  41                	DEFB +0x41
 14177  0c63  41                	DEFB +0x41
 14178  0c64  41                	DEFB +0x41
 14179  0c65  41                	DEFB +0x41
 14180  0c66  41                	DEFB +0x41
 14181  0c67  41                	DEFB +0x41
 14182  0c68  41                	DEFB +0x41
 14183  0c69  41                	DEFB +0x41
 14184  0c6a  41                	DEFB +0x41
 14185  0c6b  41                	DEFB +0x41
 14186  0c6c  41                	DEFB +0x41
 14187  0c6d  41                	DEFB +0x41
 14188  0c6e  41                	DEFB +0x41
 14189  0c6f  41                	DEFB +0x41
 14190  0c70  41                	DEFB +0x41
 14191  0c71  41                	DEFB +0x41
 14192  0c72  41                	DEFB +0x41
 14193  0c73  41                	DEFB +0x41
 14194  0c74  41                	DEFB +0x41
 14195  0c75  41                	DEFB +0x41
 14196  0c76  41                	DEFB +0x41
 14197  0c77  41                	DEFB +0x41
 14198  0c78  41                	DEFB +0x41
 14199  0c79  41                	DEFB +0x41
 14200  0c7a  41                	DEFB +0x41
 14201  0c7b  41                	DEFB +0x41
 14202  0c7c  41                	DEFB +0x41
 14203  0c7d  41                	DEFB +0x41
 14204  0c7e  41                	DEFB +0x41
 14205  0c7f  41                	DEFB +0x41
 14206  0c80  41                	DEFB +0x41
 14207  0c81  41                	DEFB +0x41
 14208  0c82  41                	DEFB +0x41
 14209  0c83  41                	DEFB +0x41
 14210  0c84  41                	DEFB +0x41
 14211  0c85  41                	DEFB +0x41
 14212  0c86  41                	DEFB +0x41
 14213  0c87  41                	DEFB +0x41
 14214  0c88  41                	DEFB +0x41
 14215  0c89  41                	DEFB +0x41
 14216  0c8a  41                	DEFB +0x41
 14217  0c8b  41                	DEFB +0x41
 14218  0c8c  41                	DEFB +0x41
 14219  0c8d  41                	DEFB +0x41
 14220  0c8e  41                	DEFB +0x41
 14221  0c8f  41                	DEFB +0x41
 14222  0c90  41                	DEFB +0x41
 14223  0c91  41                	DEFB +0x41
 14224  0c92  41                	DEFB +0x41
 14225  0c93  41                	DEFB +0x41
 14226  0c94  41                	DEFB +0x41
 14227  0c95  41                	DEFB +0x41
 14228  0c96  41                	DEFB +0x41
 14229  0c97  41                	DEFB +0x41
 14230  0c98  41                	DEFB +0x41
 14231  0c99  41                	DEFB +0x41
 14232  0c9a  41                	DEFB +0x41
 14233  0c9b  41                	DEFB +0x41
 14234  0c9c  41                	DEFB +0x41
 14235  0c9d  41                	DEFB +0x41
 14236  0c9e  41                	DEFB +0x41
 14237  0c9f  41                	DEFB +0x41
 14238  0ca0  41                	DEFB +0x41
 14239  0ca1  41                	DEFB +0x41
 14240  0ca2  41                	DEFB +0x41
 14241  0ca3  41                	DEFB +0x41
 14242  0ca4  41                	DEFB +0x41
 14243  0ca5  41                	DEFB +0x41
 14244  0ca6  41                	DEFB +0x41
 14245  0ca7  41                	DEFB +0x41
 14246  0ca8  41                	DEFB +0x41
 14247  0ca9  41                	DEFB +0x41
 14248  0caa  41                	DEFB +0x41
 14249  0cab  41                	DEFB +0x41
 14250  0cac  41                	DEFB +0x41
 14251  0cad  41                	DEFB +0x41
 14252  0cae  41                	DEFB +0x41
 14253  0caf  41                	DEFB +0x41
 14254  0cb0  41                	DEFB +0x41
 14255  0cb1  41                	DEFB +0x41
 14256  0cb2  41                	DEFB +0x41
 14257  0cb3  41                	DEFB +0x41
 14258  0cb4  41                	DEFB +0x41
 14259  0cb5  41                	DEFB +0x41
 14260  0cb6  41                	DEFB +0x41
 14261  0cb7  41                	DEFB +0x41
 14262  0cb8  41                	DEFB +0x41
 14263  0cb9  41                	DEFB +0x41
 14264  0cba  41                	DEFB +0x41
 14265  0cbb  41                	DEFB +0x41
 14266  0cbc  41                	DEFB +0x41
 14267  0cbd  41                	DEFB +0x41
 14268  0cbe  41                	DEFB +0x41
 14269  0cbf  41                	DEFB +0x41
 14270  0cc0  41                	DEFB +0x41
 14271  0cc1  41                	DEFB +0x41
 14272  0cc2  41                	DEFB +0x41
 14273  0cc3  41                	DEFB +0x41
 14274  0cc4  41                	DEFB +0x41
 14275  0cc5  41                	DEFB +0x41
 14276  0cc6  41                	DEFB +0x41
 14277  0cc7  41                	DEFB +0x41
 14278  0cc8  41                	DEFB +0x41
 14279  0cc9  41                	DEFB +0x41
 14280  0cca  41                	DEFB +0x41
 14281  0ccb  41                	DEFB +0x41
 14282  0ccc  41                	DEFB +0x41
 14283  0ccd  41                	DEFB +0x41
 14284  0cce  41                	DEFB +0x41
 14285  0ccf  41                	DEFB +0x41
 14286  0cd0  41                	DEFB +0x41
 14287  0cd1  41                	DEFB +0x41
 14288  0cd2  41                	DEFB +0x41
 14289  0cd3  41                	DEFB +0x41
 14290  0cd4  41                	DEFB +0x41
 14291  0cd5  41                	DEFB +0x41
 14292  0cd6  41                	DEFB +0x41
 14293  0cd7  41                	DEFB +0x41
 14294  0cd8  41                	DEFB +0x41
 14295  0cd9  41                	DEFB +0x41
 14296  0cda  41                	DEFB +0x41
 14297  0cdb  41                	DEFB +0x41
 14298  0cdc  41                	DEFB +0x41
 14299  0cdd  41                	DEFB +0x41
 14300  0cde  41                	DEFB +0x41
 14301  0cdf  41                	DEFB +0x41
 14302  0ce0  41                	DEFB +0x41
 14303  0ce1  41                	DEFB +0x41
 14304  0ce2  41                	DEFB +0x41
 14305  0ce3  41                	DEFB +0x41
 14306  0ce4  41                	DEFB +0x41
 14307  0ce5  41                	DEFB +0x41
 14308  0ce6  41                	DEFB +0x41
 14309  0ce7  41                	DEFB +0x41
 14310  0ce8  41                	DEFB +0x41
 14311  0ce9  41                	DEFB +0x41
 14312  0cea  41                	DEFB +0x41
 14313  0ceb  41                	DEFB +0x41
 14314  0cec  41                	DEFB +0x41
 14315  0ced  41                	DEFB +0x41
 14316  0cee  41                	DEFB +0x41
 14317  0cef  41                	DEFB +0x41
 14318  0cf0  41                	DEFB +0x41
 14319  0cf1  41                	DEFB +0x41
 14320  0cf2  41                	DEFB +0x41
 14321  0cf3  41                	DEFB +0x41
 14322  0cf4  41                	DEFB +0x41
 14323  0cf5  41                	DEFB +0x41
 14324  0cf6  41                	DEFB +0x41
 14325  0cf7  41                	DEFB +0x41
 14326  0cf8  41                	DEFB +0x41
 14327  0cf9  41                	DEFB +0x41
 14328  0cfa  41                	DEFB +0x41
 14329  0cfb  41                	DEFB +0x41
 14330  0cfc  41                	DEFB +0x41
 14331  0cfd  41                	DEFB +0x41
 14332  0cfe  41                	DEFB +0x41
 14333  0cff  41                	DEFB +0x41
 14334  0d00  41                	DEFB +0x41
 14335  0d01  41                	DEFB +0x41
 14336  0d02  41                	DEFB +0x41
 14337  0d03  41                	DEFB +0x41
 14338  0d04  41                	DEFB +0x41
 14339  0d05  41                	DEFB +0x41
 14340  0d06  41                	DEFB +0x41
 14341  0d07  41                	DEFB +0x41
 14342  0d08  41                	DEFB +0x41
 14343  0d09  41                	DEFB +0x41
 14344  0d0a  41                	DEFB +0x41
 14345  0d0b  41                	DEFB +0x41
 14346  0d0c  41                	DEFB +0x41
 14347  0d0d  41                	DEFB +0x41
 14348  0d0e  41                	DEFB +0x41
 14349  0d0f  41                	DEFB +0x41
 14350  0d10  41                	DEFB +0x41
 14351  0d11  41                	DEFB +0x41
 14352  0d12  41                	DEFB +0x41
 14353  0d13  41                	DEFB +0x41
 14354  0d14  41                	DEFB +0x41
 14355  0d15  41                	DEFB +0x41
 14356  0d16  41                	DEFB +0x41
 14357  0d17  41                	DEFB +0x41
 14358  0d18  41                	DEFB +0x41
 14359  0d19  41                	DEFB +0x41
 14360  0d1a  41                	DEFB +0x41
 14361  0d1b  41                	DEFB +0x41
 14362  0d1c  41                	DEFB +0x41
 14363  0d1d  41                	DEFB +0x41
 14364  0d1e  41                	DEFB +0x41
 14365  0d1f  41                	DEFB +0x41
 14366  0d20  41                	DEFB +0x41
 14367  0d21  41                	DEFB +0x41
 14368  0d22  41                	DEFB +0x41
 14369  0d23  41                	DEFB +0x41
 14370  0d24  41                	DEFB +0x41
 14371  0d25  41                	DEFB +0x41
 14372  0d26  41                	DEFB +0x41
 14373  0d27  41                	DEFB +0x41
 14374  0d28  41                	DEFB +0x41
 14375  0d29  41                	DEFB +0x41
 14376  0d2a  41                	DEFB +0x41
 14377  0d2b  41                	DEFB +0x41
 14378  0d2c  41                	DEFB +0x41
 14379  0d2d  41                	DEFB +0x41
 14380  0d2e  41                	DEFB +0x41
 14381  0d2f  41                	DEFB +0x41
 14382  0d30  41                	DEFB +0x41
 14383  0d31  41                	DEFB +0x41
 14384  0d32  41                	DEFB +0x41
 14385  0d33  41                	DEFB +0x41
 14386  0d34  41                	DEFB +0x41
 14387  0d35  41                	DEFB +0x41
 14388  0d36  41                	DEFB +0x41
 14389  0d37  41                	DEFB +0x41
 14390  0d38  41                	DEFB +0x41
 14391  0d39  41                	DEFB +0x41
 14392  0d3a  41                	DEFB +0x41
 14393  0d3b  41                	DEFB +0x41
 14394  0d3c  41                	DEFB +0x41
 14395  0d3d  41                	DEFB +0x41
 14396  0d3e  41                	DEFB +0x41
 14397  0d3f  41                	DEFB +0x41
 14398  0d40  41                	DEFB +0x41
 14399  0d41  41                	DEFB +0x41
 14400  0d42  41                	DEFB +0x41
 14401  0d43  41                	DEFB +0x41
 14402  0d44  41                	DEFB +0x41
 14403  0d45  41                	DEFB +0x41
 14404  0d46  41                	DEFB +0x41
 14405  0d47  41                	DEFB +0x41
 14406  0d48  41                	DEFB +0x41
 14407  0d49  41                	DEFB +0x41
 14408  0d4a  41                	DEFB +0x41
 14409  0d4b  41                	DEFB +0x41
 14410  0d4c  41                	DEFB +0x41
 14411  0d4d  41                	DEFB +0x41
 14412  0d4e  41                	DEFB +0x41
 14413  0d4f  41                	DEFB +0x41
 14414  0d50  41                	DEFB +0x41
 14415  0d51  41                	DEFB +0x41
 14416  0d52  41                	DEFB +0x41
 14417  0d53  41                	DEFB +0x41
 14418  0d54  41                	DEFB +0x41
 14419  0d55  41                	DEFB +0x41
 14420  0d56  41                	DEFB +0x41
 14421  0d57  41                	DEFB +0x41
 14422  0d58  41                	DEFB +0x41
 14423  0d59  41                	DEFB +0x41
 14424  0d5a  41                	DEFB +0x41
 14425  0d5b  41                	DEFB +0x41
 14426  0d5c  41                	DEFB +0x41
 14427  0d5d  41                	DEFB +0x41
 14428  0d5e  41                	DEFB +0x41
 14429  0d5f  41                	DEFB +0x41
 14430  0d60  41                	DEFB +0x41
 14431  0d61  41                	DEFB +0x41
 14432  0d62  41                	DEFB +0x41
 14433  0d63  41                	DEFB +0x41
 14434  0d64  41                	DEFB +0x41
 14435  0d65  41                	DEFB +0x41
 14436  0d66  41                	DEFB +0x41
 14437  0d67  41                	DEFB +0x41
 14438  0d68  41                	DEFB +0x41
 14439  0d69  41                	DEFB +0x41
 14440  0d6a  41                	DEFB +0x41
 14441  0d6b  41                	DEFB +0x41
 14442  0d6c  41                	DEFB +0x41
 14443  0d6d  41                	DEFB +0x41
 14444  0d6e  41                	DEFB +0x41
 14445  0d6f  41                	DEFB +0x41
 14446  0d70  41                	DEFB +0x41
 14447  0d71  41                	DEFB +0x41
 14448  0d72  41                	DEFB +0x41
 14449  0d73  41                	DEFB +0x41
 14450  0d74  41                	DEFB +0x41
 14451  0d75  41                	DEFB +0x41
 14452  0d76  41                	DEFB +0x41
 14453  0d77  41                	DEFB +0x41
 14454  0d78  41                	DEFB +0x41
 14455  0d79  41                	DEFB +0x41
 14456  0d7a  41                	DEFB +0x41
 14457  0d7b  41                	DEFB +0x41
 14458  0d7c  41                	DEFB +0x41
 14459  0d7d  41                	DEFB +0x41
 14460  0d7e  41                	DEFB +0x41
 14461  0d7f  41                	DEFB +0x41
 14462  0d80  41                	DEFB +0x41
 14463  0d81  41                	DEFB +0x41
 14464  0d82  41                	DEFB +0x41
 14465  0d83  41                	DEFB +0x41
 14466  0d84  41                	DEFB +0x41
 14467  0d85  41                	DEFB +0x41
 14468  0d86  41                	DEFB +0x41
 14469  0d87  41                	DEFB +0x41
 14470  0d88  41                	DEFB +0x41
 14471  0d89  41                	DEFB +0x41
 14472  0d8a  41                	DEFB +0x41
 14473  0d8b  41                	DEFB +0x41
 14474  0d8c  41                	DEFB +0x41
 14475  0d8d  41                	DEFB +0x41
 14476  0d8e  41                	DEFB +0x41
 14477  0d8f  41                	DEFB +0x41
 14478  0d90  41                	DEFB +0x41
 14479  0d91  41                	DEFB +0x41
 14480  0d92  41                	DEFB +0x41
 14481  0d93  41                	DEFB +0x41
 14482  0d94  41                	DEFB +0x41
 14483  0d95  41                	DEFB +0x41
 14484  0d96  41                	DEFB +0x41
 14485  0d97  41                	DEFB +0x41
 14486  0d98  41                	DEFB +0x41
 14487  0d99  41                	DEFB +0x41
 14488  0d9a  41                	DEFB +0x41
 14489  0d9b  41                	DEFB +0x41
 14490  0d9c  41                	DEFB +0x41
 14491  0d9d  41                	DEFB +0x41
 14492  0d9e  41                	DEFB +0x41
 14493  0d9f  41                	DEFB +0x41
 14494  0da0  41                	DEFB +0x41
 14495  0da1  41                	DEFB +0x41
 14496  0da2  41                	DEFB +0x41
 14497  0da3  41                	DEFB +0x41
 14498  0da4  41                	DEFB +0x41
 14499  0da5  41                	DEFB +0x41
 14500  0da6  41                	DEFB +0x41
 14501  0da7  41                	DEFB +0x41
 14502  0da8  41                	DEFB +0x41
 14503  0da9  41                	DEFB +0x41
 14504  0daa  41                	DEFB +0x41
 14505  0dab  41                	DEFB +0x41
 14506  0dac  41                	DEFB +0x41
 14507  0dad  41                	DEFB +0x41
 14508  0dae  41                	DEFB +0x41
 14509  0daf  41                	DEFB +0x41
 14510  0db0  41                	DEFB +0x41
 14511  0db1  41                	DEFB +0x41
 14512  0db2  41                	DEFB +0x41
 14513  0db3  41                	DEFB +0x41
 14514  0db4  41                	DEFB +0x41
 14515  0db5  41                	DEFB +0x41
 14516  0db6  41                	DEFB +0x41
 14517  0db7  41                	DEFB +0x41
 14518  0db8  41                	DEFB +0x41
 14519  0db9  41                	DEFB +0x41
 14520  0dba  41                	DEFB +0x41
 14521  0dbb  41                	DEFB +0x41
 14522  0dbc  41                	DEFB +0x41
 14523  0dbd  41                	DEFB +0x41
 14524  0dbe  41                	DEFB +0x41
 14525  0dbf  41                	DEFB +0x41
 14526  0dc0  41                	DEFB +0x41
 14527  0dc1  41                	DEFB +0x41
 14528  0dc2  41                	DEFB +0x41
 14529  0dc3  41                	DEFB +0x41
 14530  0dc4  41                	DEFB +0x41
 14531  0dc5  41                	DEFB +0x41
 14532  0dc6  41                	DEFB +0x41
 14533  0dc7  41                	DEFB +0x41
 14534  0dc8  41                	DEFB +0x41
 14535  0dc9  41                	DEFB +0x41
 14536  0dca  41                	DEFB +0x41
 14537  0dcb  41                	DEFB +0x41
 14538  0dcc  41                	DEFB +0x41
 14539  0dcd  41                	DEFB +0x41
 14540  0dce  41                	DEFB +0x41
 14541  0dcf  41                	DEFB +0x41
 14542  0dd0  41                	DEFB +0x41
 14543  0dd1  41                	DEFB +0x41
 14544  0dd2  41                	DEFB +0x41
 14545  0dd3  41                	DEFB +0x41
 14546  0dd4  41                	DEFB +0x41
 14547  0dd5  41                	DEFB +0x41
 14548  0dd6  41                	DEFB +0x41
 14549  0dd7  41                	DEFB +0x41
 14550  0dd8  41                	DEFB +0x41
 14551  0dd9  41                	DEFB +0x41
 14552  0dda  41                	DEFB +0x41
 14553  0ddb  41                	DEFB +0x41
 14554  0ddc  41                	DEFB +0x41
 14555  0ddd  41                	DEFB +0x41
 14556  0dde  41                	DEFB +0x41
 14557  0ddf  41                	DEFB +0x41
 14558  0de0  41                	DEFB +0x41
 14559  0de1  41                	DEFB +0x41
 14560  0de2  41                	DEFB +0x41
 14561  0de3  41                	DEFB +0x41
 14562  0de4  41                	DEFB +0x41
 14563  0de5  41                	DEFB +0x41
 14564  0de6  41                	DEFB +0x41
 14565  0de7  41                	DEFB +0x41
 14566  0de8  41                	DEFB +0x41
 14567  0de9  41                	DEFB +0x41
 14568  0dea  41                	DEFB +0x41
 14569  0deb  41                	DEFB +0x41
 14570  0dec  41                	DEFB +0x41
 14571  0ded  41                	DEFB +0x41
 14572  0dee  41                	DEFB +0x41
 14573  0def  41                	DEFB +0x41
 14574  0df0  41                	DEFB +0x41
 14575  0df1  41                	DEFB +0x41
 14576  0df2  41                	DEFB +0x41
 14577  0df3  41                	DEFB +0x41
 14578  0df4  41                	DEFB +0x41
 14579  0df5  41                	DEFB +0x41
 14580  0df6  41                	DEFB +0x41
 14581  0df7  41                	DEFB +0x41
 14582  0df8  41                	DEFB +0x41
 14583  0df9  41                	DEFB +0x41
 14584  0dfa  41                	DEFB +0x41
 14585  0dfb  41                	DEFB +0x41
 14586  0dfc  41                	DEFB +0x41
 14587  0dfd  41                	DEFB +0x41
 14588  0dfe  41                	DEFB +0x41
 14589  0dff  41                	DEFB +0x41
 14590  0e00  41                	DEFB +0x41
 14591  0e01  41                	DEFB +0x41
 14592  0e02  41                	DEFB +0x41
 14593  0e03  41                	DEFB +0x41
 14594  0e04  41                	DEFB +0x41
 14595  0e05  41                	DEFB +0x41
 14596  0e06  41                	DEFB +0x41
 14597  0e07  41                	DEFB +0x41
 14598  0e08  41                	DEFB +0x41
 14599  0e09  41                	DEFB +0x41
 14600  0e0a  41                	DEFB +0x41
 14601  0e0b  41                	DEFB +0x41
 14602  0e0c  41                	DEFB +0x41
 14603  0e0d  41                	DEFB +0x41
 14604  0e0e  41                	DEFB +0x41
 14605  0e0f  41                	DEFB +0x41
 14606  0e10  41                	DEFB +0x41
 14607  0e11  41                	DEFB +0x41
 14608  0e12  41                	DEFB +0x41
 14609  0e13  41                	DEFB +0x41
 14610  0e14  41                	DEFB +0x41
 14611  0e15  41                	DEFB +0x41
 14612  0e16  41                	DEFB +0x41
 14613  0e17  41                	DEFB +0x41
 14614  0e18  41                	DEFB +0x41
 14615  0e19  41                	DEFB +0x41
 14616  0e1a  41                	DEFB +0x41
 14617  0e1b  41                	DEFB +0x41
 14618  0e1c  41                	DEFB +0x41
 14619  0e1d  41                	DEFB +0x41
 14620  0e1e  41                	DEFB +0x41
 14621  0e1f  41                	DEFB +0x41
 14622  0e20  41                	DEFB +0x41
 14623  0e21  41                	DEFB +0x41
 14624  0e22  41                	DEFB +0x41
 14625  0e23  41                	DEFB +0x41
 14626  0e24  41                	DEFB +0x41
 14627  0e25  41                	DEFB +0x41
 14628  0e26  41                	DEFB +0x41
 14629  0e27  41                	DEFB +0x41
 14630  0e28  41                	DEFB +0x41
 14631  0e29  41                	DEFB +0x41
 14632  0e2a  41                	DEFB +0x41
 14633  0e2b  41                	DEFB +0x41
 14634  0e2c  41                	DEFB +0x41
 14635  0e2d  41                	DEFB +0x41
 14636  0e2e  41                	DEFB +0x41
 14637  0e2f  41                	DEFB +0x41
 14638  0e30  41                	DEFB +0x41
 14639  0e31  41                	DEFB +0x41
 14640  0e32  41                	DEFB +0x41
 14641  0e33  41                	DEFB +0x41
 14642  0e34  41                	DEFB +0x41
 14643  0e35  41                	DEFB +0x41
 14644  0e36  41                	DEFB +0x41
 14645  0e37  41                	DEFB +0x41
 14646  0e38  41                	DEFB +0x41
 14647  0e39  41                	DEFB +0x41
 14648  0e3a  41                	DEFB +0x41
 14649  0e3b  41                	DEFB +0x41
 14650  0e3c  41                	DEFB +0x41
 14651  0e3d  41                	DEFB +0x41
 14652  0e3e  41                	DEFB +0x41
 14653  0e3f  41                	DEFB +0x41
 14654  0e40  41                	DEFB +0x41
 14655  0e41  41                	DEFB +0x41
 14656  0e42  41                	DEFB +0x41
 14657  0e43  41                	DEFB +0x41
 14658  0e44  41                	DEFB +0x41
 14659  0e45  41                	DEFB +0x41
 14660  0e46  41                	DEFB +0x41
 14661  0e47  41                	DEFB +0x41
 14662  0e48  41                	DEFB +0x41
 14663  0e49  41                	DEFB +0x41
 14664  0e4a  41                	DEFB +0x41
 14665  0e4b  41                	DEFB +0x41
 14666  0e4c  41                	DEFB +0x41
 14667  0e4d  41                	DEFB +0x41
 14668  0e4e  41                	DEFB +0x41
 14669  0e4f  41                	DEFB +0x41
 14670  0e50  41                	DEFB +0x41
 14671  0e51  41                	DEFB +0x41
 14672  0e52  41                	DEFB +0x41
 14673  0e53  41                	DEFB +0x41
 14674  0e54  41                	DEFB +0x41
 14675  0e55  41                	DEFB +0x41
 14676  0e56  41                	DEFB +0x41
 14677  0e57  41                	DEFB +0x41
 14678  0e58  41                	DEFB +0x41
 14679  0e59  41                	DEFB +0x41
 14680  0e5a  41                	DEFB +0x41
 14681  0e5b  41                	DEFB +0x41
 14682  0e5c  41                	DEFB +0x41
 14683  0e5d  41                	DEFB +0x41
 14684  0e5e  41                	DEFB +0x41
 14685  0e5f  41                	DEFB +0x41
 14686  0e60  41                	DEFB +0x41
 14687  0e61  41                	DEFB +0x41
 14688  0e62  41                	DEFB +0x41
 14689  0e63  41                	DEFB +0x41
 14690  0e64  41                	DEFB +0x41
 14691  0e65  41                	DEFB +0x41
 14692  0e66  41                	DEFB +0x41
 14693  0e67  41                	DEFB +0x41
 14694  0e68  41                	DEFB +0x41
 14695  0e69  41                	DEFB +0x41
 14696  0e6a  41                	DEFB +0x41
 14697  0e6b  41                	DEFB +0x41
 14698  0e6c  41                	DEFB +0x41
 14699  0e6d  41                	DEFB +0x41
 14700  0e6e  41                	DEFB +0x41
 14701  0e6f  41                	DEFB +0x41
 14702  0e70  41                	DEFB +0x41
 14703  0e71  41                	DEFB +0x41
 14704  0e72  41                	DEFB +0x41
 14705  0e73  41                	DEFB +0x41
 14706  0e74  41                	DEFB +0x41
 14707  0e75  41                	DEFB +0x41
 14708  0e76  41                	DEFB +0x41
 14709  0e77  41                	DEFB +0x41
 14710  0e78  41                	DEFB +0x41
 14711  0e79  41                	DEFB +0x41
 14712  0e7a  41                	DEFB +0x41
 14713  0e7b  41                	DEFB +0x41
 14714  0e7c  41                	DEFB +0x41
 14715  0e7d  41                	DEFB +0x41
 14716  0e7e  41                	DEFB +0x41
 14717  0e7f  41                	DEFB +0x41
 14718  0e80  41                	DEFB +0x41
 14719  0e81  41                	DEFB +0x41
 14720  0e82  41                	DEFB +0x41
 14721  0e83  41                	DEFB +0x41
 14722  0e84  41                	DEFB +0x41
 14723  0e85  41                	DEFB +0x41
 14724  0e86  41                	DEFB +0x41
 14725  0e87  41                	DEFB +0x41
 14726  0e88  41                	DEFB +0x41
 14727  0e89  41                	DEFB +0x41
 14728  0e8a  41                	DEFB +0x41
 14729  0e8b  41                	DEFB +0x41
 14730  0e8c  41                	DEFB +0x41
 14731  0e8d  41                	DEFB +0x41
 14732  0e8e  41                	DEFB +0x41
 14733  0e8f  41                	DEFB +0x41
 14734  0e90  41                	DEFB +0x41
 14735  0e91  41                	DEFB +0x41
 14736  0e92  41                	DEFB +0x41
 14737  0e93  41                	DEFB +0x41
 14738  0e94  41                	DEFB +0x41
 14739  0e95  41                	DEFB +0x41
 14740  0e96  41                	DEFB +0x41
 14741  0e97  41                	DEFB +0x41
 14742  0e98  41                	DEFB +0x41
 14743  0e99  41                	DEFB +0x41
 14744  0e9a  41                	DEFB +0x41
 14745  0e9b  41                	DEFB +0x41
 14746  0e9c  41                	DEFB +0x41
 14747  0e9d  41                	DEFB +0x41
 14748  0e9e  41                	DEFB +0x41
 14749  0e9f  41                	DEFB +0x41
 14750  0ea0  41                	DEFB +0x41
 14751  0ea1  41                	DEFB +0x41
 14752  0ea2  41                	DEFB +0x41
 14753  0ea3  41                	DEFB +0x41
 14754  0ea4  41                	DEFB +0x41
 14755  0ea5  41                	DEFB +0x41
 14756  0ea6  41                	DEFB +0x41
 14757  0ea7  41                	DEFB +0x41
 14758  0ea8  41                	DEFB +0x41
 14759  0ea9  41                	DEFB +0x41
 14760  0eaa  41                	DEFB +0x41
 14761  0eab  41                	DEFB +0x41
 14762  0eac  41                	DEFB +0x41
 14763  0ead  41                	DEFB +0x41
 14764  0eae  41                	DEFB +0x41
 14765  0eaf  41                	DEFB +0x41
 14766  0eb0  41                	DEFB +0x41
 14767  0eb1  41                	DEFB +0x41
 14768  0eb2  41                	DEFB +0x41
 14769  0eb3  41                	DEFB +0x41
 14770  0eb4  41                	DEFB +0x41
 14771  0eb5  41                	DEFB +0x41
 14772  0eb6  41                	DEFB +0x41
 14773  0eb7  41                	DEFB +0x41
 14774  0eb8  41                	DEFB +0x41
 14775  0eb9  41                	DEFB +0x41
 14776  0eba  41                	DEFB +0x41
 14777  0ebb  41                	DEFB +0x41
 14778  0ebc  41                	DEFB +0x41
 14779  0ebd  41                	DEFB +0x41
 14780  0ebe  41                	DEFB +0x41
 14781  0ebf  41                	DEFB +0x41
 14782  0ec0  41                	DEFB +0x41
 14783  0ec1  41                	DEFB +0x41
 14784  0ec2  41                	DEFB +0x41
 14785  0ec3  41                	DEFB +0x41
 14786  0ec4  41                	DEFB +0x41
 14787  0ec5  41                	DEFB +0x41
 14788  0ec6  41                	DEFB +0x41
 14789  0ec7  41                	DEFB +0x41
 14790  0ec8  41                	DEFB +0x41
 14791  0ec9  41                	DEFB +0x41
 14792  0eca  41                	DEFB +0x41
 14793  0ecb  41                	DEFB +0x41
 14794  0ecc  41                	DEFB +0x41
 14795  0ecd  41                	DEFB +0x41
 14796  0ece  41                	DEFB +0x41
 14797  0ecf  41                	DEFB +0x41
 14798  0ed0  41                	DEFB +0x41
 14799  0ed1  41                	DEFB +0x41
 14800  0ed2  41                	DEFB +0x41
 14801  0ed3  41                	DEFB +0x41
 14802  0ed4  41                	DEFB +0x41
 14803  0ed5  41                	DEFB +0x41
 14804  0ed6  41                	DEFB +0x41
 14805  0ed7  41                	DEFB +0x41
 14806  0ed8  41                	DEFB +0x41
 14807  0ed9  41                	DEFB +0x41
 14808  0eda  41                	DEFB +0x41
 14809  0edb  41                	DEFB +0x41
 14810  0edc  41                	DEFB +0x41
 14811  0edd  41                	DEFB +0x41
 14812  0ede  41                	DEFB +0x41
 14813  0edf  41                	DEFB +0x41
 14814  0ee0  41                	DEFB +0x41
 14815  0ee1  41                	DEFB +0x41
 14816  0ee2  41                	DEFB +0x41
 14817  0ee3  41                	DEFB +0x41
 14818  0ee4  41                	DEFB +0x41
 14819  0ee5  41                	DEFB +0x41
 14820  0ee6  41                	DEFB +0x41
 14821  0ee7  41                	DEFB +0x41
 14822  0ee8  41                	DEFB +0x41
 14823  0ee9  41                	DEFB +0x41
 14824  0eea  41                	DEFB +0x41
 14825  0eeb  41                	DEFB +0x41
 14826  0eec  41                	DEFB +0x41
 14827  0eed  41                	DEFB +0x41
 14828  0eee  41                	DEFB +0x41
 14829  0eef  41                	DEFB +0x41
 14830  0ef0  41                	DEFB +0x41
 14831  0ef1  41                	DEFB +0x41
 14832  0ef2  41                	DEFB +0x41
 14833  0ef3  41                	DEFB +0x41
 14834  0ef4  41                	DEFB +0x41
 14835  0ef5  41                	DEFB +0x41
 14836  0ef6  41                	DEFB +0x41
 14837  0ef7  41                	DEFB +0x41
 14838  0ef8  41                	DEFB +0x41
 14839  0ef9  41                	DEFB +0x41
 14840  0efa  41                	DEFB +0x41
 14841  0efb  41                	DEFB +0x41
 14842  0efc  41                	DEFB +0x41
 14843  0efd  41                	DEFB +0x41
 14844  0efe  41                	DEFB +0x41
 14845  0eff  41                	DEFB +0x41
 14846  0f00  41                	DEFB +0x41
 14847  0f01  41                	DEFB +0x41
 14848  0f02  41                	DEFB +0x41
 14849  0f03  41                	DEFB +0x41
 14850  0f04  41                	DEFB +0x41
 14851  0f05  41                	DEFB +0x41
 14852  0f06  41                	DEFB +0x41
 14853  0f07  41                	DEFB +0x41
 14854  0f08  41                	DEFB +0x41
 14855  0f09  41                	DEFB +0x41
 14856  0f0a  41                	DEFB +0x41
 14857  0f0b  41                	DEFB +0x41
 14858  0f0c  41                	DEFB +0x41
 14859  0f0d  41                	DEFB +0x41
 14860  0f0e  41                	DEFB +0x41
 14861  0f0f  41                	DEFB +0x41
 14862  0f10  41                	DEFB +0x41
 14863  0f11  41                	DEFB +0x41
 14864  0f12  41                	DEFB +0x41
 14865  0f13  41                	DEFB +0x41
 14866  0f14  41                	DEFB +0x41
 14867  0f15  41                	DEFB +0x41
 14868  0f16  41                	DEFB +0x41
 14869  0f17  41                	DEFB +0x41
 14870  0f18  41                	DEFB +0x41
 14871  0f19  41                	DEFB +0x41
 14872  0f1a  41                	DEFB +0x41
 14873  0f1b  41                	DEFB +0x41
 14874  0f1c  41                	DEFB +0x41
 14875  0f1d  41                	DEFB +0x41
 14876  0f1e  41                	DEFB +0x41
 14877  0f1f  41                	DEFB +0x41
 14878  0f20  41                	DEFB +0x41
 14879  0f21  41                	DEFB +0x41
 14880  0f22  41                	DEFB +0x41
 14881  0f23  41                	DEFB +0x41
 14882  0f24  41                	DEFB +0x41
 14883  0f25  41                	DEFB +0x41
 14884  0f26  41                	DEFB +0x41
 14885  0f27  41                	DEFB +0x41
 14886  0f28  41                	DEFB +0x41
 14887  0f29  41                	DEFB +0x41
 14888  0f2a  41                	DEFB +0x41
 14889  0f2b  41                	DEFB +0x41
 14890  0f2c  41                	DEFB +0x41
 14891  0f2d  41                	DEFB +0x41
 14892  0f2e  41                	DEFB +0x41
 14893  0f2f  41                	DEFB +0x41
 14894  0f30  41                	DEFB +0x41
 14895  0f31  41                	DEFB +0x41
 14896  0f32  41                	DEFB +0x41
 14897  0f33  41                	DEFB +0x41
 14898  0f34  41                	DEFB +0x41
 14899  0f35  41                	DEFB +0x41
 14900  0f36  41                	DEFB +0x41
 14901  0f37  41                	DEFB +0x41
 14902  0f38  41                	DEFB +0x41
 14903  0f39  41                	DEFB +0x41
 14904  0f3a  41                	DEFB +0x41
 14905  0f3b  41                	DEFB +0x41
 14906  0f3c  41                	DEFB +0x41
 14907  0f3d  41                	DEFB +0x41
 14908  0f3e  41                	DEFB +0x41
 14909  0f3f  41                	DEFB +0x41
 14910  0f40  41                	DEFB +0x41
 14911  0f41  41                	DEFB +0x41
 14912  0f42  41                	DEFB +0x41
 14913  0f43  41                	DEFB +0x41
 14914  0f44  41                	DEFB +0x41
 14915  0f45  41                	DEFB +0x41
 14916  0f46  41                	DEFB +0x41
 14917  0f47  41                	DEFB +0x41
 14918  0f48  41                	DEFB +0x41
 14919  0f49  41                	DEFB +0x41
 14920  0f4a  41                	DEFB +0x41
 14921  0f4b  41                	DEFB +0x41
 14922  0f4c  41                	DEFB +0x41
 14923  0f4d  41                	DEFB +0x41
 14924  0f4e  41                	DEFB +0x41
 14925  0f4f  41                	DEFB +0x41
 14926  0f50  41                	DEFB +0x41
 14927  0f51  41                	DEFB +0x41
 14928  0f52  41                	DEFB +0x41
 14929  0f53  41                	DEFB +0x41
 14930  0f54  41                	DEFB +0x41
 14931  0f55  41                	DEFB +0x41
 14932  0f56  41                	DEFB +0x41
 14933  0f57  41                	DEFB +0x41
 14934  0f58  41                	DEFB +0x41
 14935  0f59  41                	DEFB +0x41
 14936  0f5a  41                	DEFB +0x41
 14937  0f5b  41                	DEFB +0x41
 14938  0f5c  41                	DEFB +0x41
 14939  0f5d  41                	DEFB +0x41
 14940  0f5e  41                	DEFB +0x41
 14941  0f5f  41                	DEFB +0x41
 14942  0f60  41                	DEFB +0x41
 14943  0f61  41                	DEFB +0x41
 14944  0f62  41                	DEFB +0x41
 14945  0f63  41                	DEFB +0x41
 14946  0f64  41                	DEFB +0x41
 14947  0f65  41                	DEFB +0x41
 14948  0f66  41                	DEFB +0x41
 14949  0f67  41                	DEFB +0x41
 14950  0f68  41                	DEFB +0x41
 14951  0f69  41                	DEFB +0x41
 14952  0f6a  41                	DEFB +0x41
 14953  0f6b  41                	DEFB +0x41
 14954  0f6c  41                	DEFB +0x41
 14955  0f6d  41                	DEFB +0x41
 14956  0f6e  41                	DEFB +0x41
 14957  0f6f  41                	DEFB +0x41
 14958  0f70  41                	DEFB +0x41
 14959  0f71  41                	DEFB +0x41
 14960  0f72  41                	DEFB +0x41
 14961  0f73  41                	DEFB +0x41
 14962  0f74  41                	DEFB +0x41
 14963  0f75  41                	DEFB +0x41
 14964  0f76  41                	DEFB +0x41
 14965  0f77  41                	DEFB +0x41
 14966  0f78  41                	DEFB +0x41
 14967  0f79  41                	DEFB +0x41
 14968  0f7a  41                	DEFB +0x41
 14969  0f7b  41                	DEFB +0x41
 14970  0f7c  41                	DEFB +0x41
 14971  0f7d  41                	DEFB +0x41
 14972  0f7e  41                	DEFB +0x41
 14973  0f7f  41                	DEFB +0x41
 14974  0f80  41                	DEFB +0x41
 14975  0f81  41                	DEFB +0x41
 14976  0f82  41                	DEFB +0x41
 14977  0f83  41                	DEFB +0x41
 14978  0f84  41                	DEFB +0x41
 14979  0f85  41                	DEFB +0x41
 14980  0f86  41                	DEFB +0x41
 14981  0f87  41                	DEFB +0x41
 14982  0f88  41                	DEFB +0x41
 14983  0f89  41                	DEFB +0x41
 14984  0f8a  41                	DEFB +0x41
 14985  0f8b  41                	DEFB +0x41
 14986  0f8c  41                	DEFB +0x41
 14987  0f8d  41                	DEFB +0x41
 14988  0f8e  41                	DEFB +0x41
 14989  0f8f  41                	DEFB +0x41
 14990  0f90  41                	DEFB +0x41
 14991  0f91  41                	DEFB +0x41
 14992  0f92  41                	DEFB +0x41
 14993  0f93  41                	DEFB +0x41
 14994  0f94  41                	DEFB +0x41
 14995  0f95  41                	DEFB +0x41
 14996  0f96  41                	DEFB +0x41
 14997  0f97  41                	DEFB +0x41
 14998  0f98  41                	DEFB +0x41
 14999  0f99  41                	DEFB +0x41
 15000  0f9a  41                	DEFB +0x41
 15001  0f9b  41                	DEFB +0x41
 15002  0f9c  41                	DEFB +0x41
 15003  0f9d  41                	DEFB +0x41
 15004  0f9e  41                	DEFB +0x41
 15005  0f9f  41                	DEFB +0x41
 15006  0fa0  41                	DEFB +0x41
 15007  0fa1  41                	DEFB +0x41
 15008  0fa2  41                	DEFB +0x41
 15009  0fa3  41                	DEFB +0x41
 15010  0fa4  41                	DEFB +0x41
 15011  0fa5  41                	DEFB +0x41
 15012  0fa6  41                	DEFB +0x41
 15013  0fa7  41                	DEFB +0x41
 15014  0fa8  41                	DEFB +0x41
 15015  0fa9  41                	DEFB +0x41
 15016  0faa  41                	DEFB +0x41
 15017  0fab  41                	DEFB +0x41
 15018  0fac  41                	DEFB +0x41
 15019  0fad  41                	DEFB +0x41
 15020  0fae  41                	DEFB +0x41
 15021  0faf  41                	DEFB +0x41
 15022  0fb0  41                	DEFB +0x41
 15023  0fb1  41                	DEFB +0x41
 15024  0fb2  41                	DEFB +0x41
 15025  0fb3  41                	DEFB +0x41
 15026  0fb4  41                	DEFB +0x41
 15027  0fb5  41                	DEFB +0x41
 15028  0fb6  41                	DEFB +0x41
 15029  0fb7  41                	DEFB +0x41
 15030  0fb8  41                	DEFB +0x41
 15031  0fb9  41                	DEFB +0x41
 15032  0fba  41                	DEFB +0x41
 15033  0fbb  41                	DEFB +0x41
 15034  0fbc  41                	DEFB +0x41
 15035  0fbd  41                	DEFB +0x41
 15036  0fbe  41                	DEFB +0x41
 15037  0fbf  41                	DEFB +0x41
 15038  0fc0  41                	DEFB +0x41
 15039  0fc1  41                	DEFB +0x41
 15040  0fc2  41                	DEFB +0x41
 15041  0fc3  41                	DEFB +0x41
 15042  0fc4  41                	DEFB +0x41
 15043  0fc5  41                	DEFB +0x41
 15044  0fc6  41                	DEFB +0x41
 15045  0fc7  41                	DEFB +0x41
 15046  0fc8  41                	DEFB +0x41
 15047  0fc9  41                	DEFB +0x41
 15048  0fca  41                	DEFB +0x41
 15049  0fcb  41                	DEFB +0x41
 15050  0fcc  41                	DEFB +0x41
 15051  0fcd  41                	DEFB +0x41
 15052  0fce  41                	DEFB +0x41
 15053  0fcf  41                	DEFB +0x41
 15054  0fd0  41                	DEFB +0x41
 15055  0fd1  41                	DEFB +0x41
 15056  0fd2  41                	DEFB +0x41
 15057  0fd3  41                	DEFB +0x41
 15058  0fd4  41                	DEFB +0x41
 15059  0fd5  41                	DEFB +0x41
 15060  0fd6  41                	DEFB +0x41
 15061  0fd7  41                	DEFB +0x41
 15062  0fd8  41                	DEFB +0x41
 15063  0fd9  41                	DEFB +0x41
 15064  0fda  41                	DEFB +0x41
 15065  0fdb  41                	DEFB +0x41
 15066  0fdc  41                	DEFB +0x41
 15067  0fdd  41                	DEFB +0x41
 15068  0fde  41                	DEFB +0x41
 15069  0fdf  41                	DEFB +0x41
 15070  0fe0  41                	DEFB +0x41
 15071  0fe1  41                	DEFB +0x41
 15072  0fe2  41                	DEFB +0x41
 15073  0fe3  41                	DEFB +0x41
 15074  0fe4  41                	DEFB +0x41
 15075  0fe5  41                	DEFB +0x41
 15076  0fe6  41                	DEFB +0x41
 15077  0fe7  41                	DEFB +0x41
 15078  0fe8  41                	DEFB +0x41
 15079  0fe9  41                	DEFB +0x41
 15080  0fea  41                	DEFB +0x41
 15081  0feb  41                	DEFB +0x41
 15082  0fec  41                	DEFB +0x41
 15083  0fed  41                	DEFB +0x41
 15084  0fee  41                	DEFB +0x41
 15085  0fef  41                	DEFB +0x41
 15086  0ff0  41                	DEFB +0x41
 15087  0ff1  41                	DEFB +0x41
 15088  0ff2  41                	DEFB +0x41
 15089  0ff3  41                	DEFB +0x41
 15090  0ff4  41                	DEFB +0x41
 15091  0ff5  41                	DEFB +0x41
 15092  0ff6  41                	DEFB +0x41
 15093  0ff7  41                	DEFB +0x41
 15094  0ff8  41                	DEFB +0x41
 15095  0ff9  41                	DEFB +0x41
 15096  0ffa  41                	DEFB +0x41
 15097  0ffb  41                	DEFB +0x41
 15098  0ffc  41                	DEFB +0x41
 15099  0ffd  41                	DEFB +0x41
 15100  0ffe  41                	DEFB +0x41
 15101  0fff  41                	DEFB +0x41
 15102  1000  41                	DEFB +0x41
 15103  1001  41                	DEFB +0x41
 15104  1002  41                	DEFB +0x41
 15105  1003  41                	DEFB +0x41
 15106  1004  41                	DEFB +0x41
 15107  1005  41                	DEFB +0x41
 15108  1006  41                	DEFB +0x41
 15109  1007  41                	DEFB +0x41
 15110  1008  41                	DEFB +0x41
 15111  1009  41                	DEFB +0x41
 15112  100a  41                	DEFB +0x41
 15113  100b  41                	DEFB +0x41
 15114  100c  41                	DEFB +0x41
 15115  100d  41                	DEFB +0x41
 15116  100e  41                	DEFB +0x41
 15117  100f  41                	DEFB +0x41
 15118  1010  41                	DEFB +0x41
 15119                          _loop1_nt:
 15120  1011  00                	DEFB +0x00
 15121  1012  14                	DEFB +0x14
 15122  1013  01                	DEFB +0x01
 15123  1014  0c                	DEFB +0x0c
 15124  1015  0f                	DEFB +0x0f
 15125  1016  01                	DEFB +0x01
 15126  1017  0a                	DEFB +0x0a
 15127  1018  01                	DEFB +0x01
 15128  1019  02                	DEFB +0x02
 15129  101a  14                	DEFB +0x14
 15130  101b  01                	DEFB +0x01
 15131  101c  0a                	DEFB +0x0a
 15132  101d  0f                	DEFB +0x0f
 15133  101e  03                	DEFB +0x03
 15134  101f  0a                	DEFB +0x0a
 15135  1020  01                	DEFB +0x01
 15136  1021  04                	DEFB +0x04
 15137  1022  14                	DEFB +0x14
 15138  1023  01                	DEFB +0x01
 15139  1024  0c                	DEFB +0x0c
 15140  1025  0f                	DEFB +0x0f
 15141  1026  05                	DEFB +0x05
 15142  1027  0a                	DEFB +0x0a
 15143  1028  01                	DEFB +0x01
 15144  1029  06                	DEFB +0x06
 15145  102a  0a                	DEFB +0x0a
 15146  102b  01                	DEFB +0x01
 15147  102c  06                	DEFB +0x06
 15148  102d  14                	DEFB +0x14
 15149  102e  01                	DEFB +0x01
 15150  102f  0a                	DEFB +0x0a
 15151  1030  0f                	DEFB +0x0f
 15152  1031  07                	DEFB +0x07
 15153  1032  0a                	DEFB +0x0a
 15154  1033  01                	DEFB +0x01
 15155  1034  07                	DEFB +0x07
 15156  1035  14                	DEFB +0x14
 15157  1036  01                	DEFB +0x01
 15158  1037  0c                	DEFB +0x0c
 15159  1038  0e                	DEFB +0x0e
 15160  1039  09                	DEFB +0x09
 15161  103a  0a                	DEFB +0x0a
 15162  103b  01                	DEFB +0x01
 15163  103c  09                	DEFB +0x09
 15164  103d  14                	DEFB +0x14
 15165  103e  01                	DEFB +0x01
 15166  103f  0c                	DEFB +0x0c
 15167  1040  0e                	DEFB +0x0e
 15168  1041  0a                	DEFB +0x0a
 15169  1042  14                	DEFB +0x14
 15170  1043  01                	DEFB +0x01
 15171  1044  0a                	DEFB +0x0a
 15172  1045  0e                	DEFB +0x0e
 15173  1046  0b                	DEFB +0x0b
 15174  1047  0a                	DEFB +0x0a
 15175  1048  01                	DEFB +0x01
 15176  1049  0c                	DEFB +0x0c
 15177  104a  14                	DEFB +0x14
 15178  104b  01                	DEFB +0x01
 15179  104c  0c                	DEFB +0x0c
 15180  104d  0e                	DEFB +0x0e
 15181  104e  0d                	DEFB +0x0d
 15182  104f  0a                	DEFB +0x0a
 15183  1050  01                	DEFB +0x01
 15184  1051  0e                	DEFB +0x0e
 15185  1052  0a                	DEFB +0x0a
 15186  1053  01                	DEFB +0x01
 15187  1054  0e                	DEFB +0x0e
 15188  1055  14                	DEFB +0x14
 15189  1056  01                	DEFB +0x01
 15190  1057  0f                	DEFB +0x0f
 15191  1058  0e                	DEFB +0x0e
 15192  1059  10                	DEFB +0x10
 15193  105a  14                	DEFB +0x14
 15194  105b  01                	DEFB +0x01
 15195  105c  0c                	DEFB +0x0c
 15196  105d  0e                	DEFB +0x0e
 15197  105e  11                	DEFB +0x11
 15198  105f  0a                	DEFB +0x0a
 15199  1060  01                	DEFB +0x01
 15200  1061  12                	DEFB +0x12
 15201  1062  0a                	DEFB +0x0a
 15202  1063  01                	DEFB +0x01
 15203  1064  12                	DEFB +0x12
 15204  1065  14                	DEFB +0x14
 15205  1066  01                	DEFB +0x01
 15206  1067  0a                	DEFB +0x0a
 15207  1068  0e                	DEFB +0x0e
 15208  1069  14                	DEFB +0x14
 15209  106a  14                	DEFB +0x14
 15210  106b  01                	DEFB +0x01
 15211  106c  0c                	DEFB +0x0c
 15212  106d  0e                	DEFB +0x0e
 15213  106e  15                	DEFB +0x15
 15214  106f  0a                	DEFB +0x0a
 15215  1070  01                	DEFB +0x01
 15216  1071  16                	DEFB +0x16
 15217  1072  0a                	DEFB +0x0a
 15218  1073  01                	DEFB +0x01
 15219  1074  16                	DEFB +0x16
 15220  1075  14                	DEFB +0x14
 15221  1076  01                	DEFB +0x01
 15222  1077  0a                	DEFB +0x0a
 15223  1078  0e                	DEFB +0x0e
 15224  1079  17                	DEFB +0x17
 15225  107a  0a                	DEFB +0x0a
 15226  107b  01                	DEFB +0x01
 15227  107c  17                	DEFB +0x17
 15228  107d  14                	DEFB +0x14
 15229  107e  01                	DEFB +0x01
 15230  107f  0c                	DEFB +0x0c
 15231  1080  0e                	DEFB +0x0e
 15232  1081  19                	DEFB +0x19
 15233  1082  0a                	DEFB +0x0a
 15234  1083  01                	DEFB +0x01
 15235  1084  19                	DEFB +0x19
 15236  1085  14                	DEFB +0x14
 15237  1086  01                	DEFB +0x01
 15238  1087  0c                	DEFB +0x0c
 15239  1088  0e                	DEFB +0x0e
 15240  1089  1a                	DEFB +0x1a
 15241  108a  14                	DEFB +0x14
 15242  108b  01                	DEFB +0x01
 15243  108c  0a                	DEFB +0x0a
 15244  108d  0e                	DEFB +0x0e
 15245  108e  1b                	DEFB +0x1b
 15246  108f  0a                	DEFB +0x0a
 15247  1090  01                	DEFB +0x01
 15248  1091  1c                	DEFB +0x1c
 15249  1092  0a                	DEFB +0x0a
 15250  1093  01                	DEFB +0x01
 15251  1094  1c                	DEFB +0x1c
 15252  1095  14                	DEFB +0x14
 15253  1096  01                	DEFB +0x01
 15254  1097  0c                	DEFB +0x0c
 15255  1098  0e                	DEFB +0x0e
 15256  1099  1d                	DEFB +0x1d
 15257  109a  0a                	DEFB +0x0a
 15258  109b  01                	DEFB +0x01
 15259  109c  1d                	DEFB +0x1d
 15260  109d  14                	DEFB +0x14
 15261  109e  01                	DEFB +0x01
 15262  109f  07                	DEFB +0x07
 15263  10a0  0e                	DEFB +0x0e
 15264  10a1  1e                	DEFB +0x1e
 15265  10a2  0a                	DEFB +0x0a
 15266  10a3  00                	DEFB +0x00
 15267  10a4  1e                	DEFB +0x1e
 15268  10a5  0a                	DEFB +0x0a
 15269  10a6  01                	DEFB +0x01
 15270  10a7  1e                	DEFB +0x1e
 15271  10a8  14                	DEFB +0x14
 15272  10a9  00                	DEFB +0x00
 15273  10aa  18                	DEFB +0x18
 15274  10ab  07                	DEFB +0x07
 15275  10ac  1e                	DEFB +0x1e
 15276  10ad  14                	DEFB +0x14
 15277  10ae  01                	DEFB +0x01
 15278  10af  0a                	DEFB +0x0a
 15279  10b0  0e                	DEFB +0x0e
 15280  10b1  1f                	DEFB +0x1f
 15281  10b2  0a                	DEFB +0x0a
 15282  10b3  01                	DEFB +0x01
 15283  10b4  1f                	DEFB +0x1f
 15284  10b5  14                	DEFB +0x14
 15285  10b6  01                	DEFB +0x01
 15286  10b7  0b                	DEFB +0x0b
 15287  10b8  0e                	DEFB +0x0e
 15288  10b9  20                	DEFB +0x20
 15289  10ba  14                	DEFB +0x14
 15290  10bb  01                	DEFB +0x01
 15291  10bc  0c                	DEFB +0x0c
 15292  10bd  0e                	DEFB +0x0e
 15293  10be  20                	DEFB +0x20
 15294  10bf  14                	DEFB +0x14
 15295  10c0  02                	DEFB +0x02
 15296  10c1  24                	DEFB +0x24
 15297  10c2  0b                	DEFB +0x0b
 15298  10c3  21                	DEFB +0x21
 15299  10c4  0a                	DEFB +0x0a
 15300  10c5  01                	DEFB +0x01
 15301  10c6  22                	DEFB +0x22
 15302  10c7  14                	DEFB +0x14
 15303  10c8  01                	DEFB +0x01
 15304  10c9  0a                	DEFB +0x0a
 15305  10ca  0e                	DEFB +0x0e
 15306  10cb  23                	DEFB +0x23
 15307  10cc  0a                	DEFB +0x0a
 15308  10cd  01                	DEFB +0x01
 15309  10ce  24                	DEFB +0x24
 15310  10cf  0a                	DEFB +0x0a
 15311  10d0  02                	DEFB +0x02
 15312  10d1  24                	DEFB +0x24
 15313  10d2  14                	DEFB +0x14
 15314  10d3  01                	DEFB +0x01
 15315  10d4  0c                	DEFB +0x0c
 15316  10d5  0e                	DEFB +0x0e
 15317  10d6  25                	DEFB +0x25
 15318  10d7  0a                	DEFB +0x0a
 15319  10d8  01                	DEFB +0x01
 15320  10d9  26                	DEFB +0x26
 15321  10da  0a                	DEFB +0x0a
 15322  10db  01                	DEFB +0x01
 15323  10dc  26                	DEFB +0x26
 15324  10dd  14                	DEFB +0x14
 15325  10de  01                	DEFB +0x01
 15326  10df  0a                	DEFB +0x0a
 15327  10e0  0e                	DEFB +0x0e
 15328  10e1  27                	DEFB +0x27
 15329  10e2  0a                	DEFB +0x0a
 15330  10e3  01                	DEFB +0x01
 15331  10e4  27                	DEFB +0x27
 15332  10e5  14                	DEFB +0x14
 15333  10e6  01                	DEFB +0x01
 15334  10e7  0c                	DEFB +0x0c
 15335  10e8  0e                	DEFB +0x0e
 15336  10e9  28                	DEFB +0x28
 15337  10ea  14                	DEFB +0x14
 15338  10eb  02                	DEFB +0x02
 15339  10ec  24                	DEFB +0x24
 15340  10ed  0b                	DEFB +0x0b
 15341  10ee  29                	DEFB +0x29
 15342  10ef  0a                	DEFB +0x0a
 15343  10f0  01                	DEFB +0x01
 15344  10f1  29                	DEFB +0x29
 15345  10f2  14                	DEFB +0x14
 15346  10f3  01                	DEFB +0x01
 15347  10f4  0c                	DEFB +0x0c
 15348  10f5  0e                	DEFB +0x0e
 15349  10f6  2a                	DEFB +0x2a
 15350  10f7  14                	DEFB +0x14
 15351  10f8  01                	DEFB +0x01
 15352  10f9  0a                	DEFB +0x0a
 15353  10fa  0e                	DEFB +0x0e
 15354  10fb  2b                	DEFB +0x2b
 15355  10fc  0a                	DEFB +0x0a
 15356  10fd  01                	DEFB +0x01
 15357  10fe  2c                	DEFB +0x2c
 15358  10ff  0a                	DEFB +0x0a
 15359  1100  01                	DEFB +0x01
 15360  1101  2c                	DEFB +0x2c
 15361  1102  0a                	DEFB +0x0a
 15362  1103  02                	DEFB +0x02
 15363  1104  2c                	DEFB +0x2c
 15364  1105  14                	DEFB +0x14
 15365  1106  01                	DEFB +0x01
 15366  1107  0c                	DEFB +0x0c
 15367  1108  0e                	DEFB +0x0e
 15368  1109  2d                	DEFB +0x2d
 15369  110a  0a                	DEFB +0x0a
 15370  110b  01                	DEFB +0x01
 15371  110c  2d                	DEFB +0x2d
 15372  110d  14                	DEFB +0x14
 15373  110e  01                	DEFB +0x01
 15374  110f  07                	DEFB +0x07
 15375  1110  0e                	DEFB +0x0e
 15376  1111  2e                	DEFB +0x2e
 15377  1112  0a                	DEFB +0x0a
 15378  1113  00                	DEFB +0x00
 15379  1114  2e                	DEFB +0x2e
 15380  1115  0a                	DEFB +0x0a
 15381  1116  01                	DEFB +0x01
 15382  1117  2e                	DEFB +0x2e
 15383  1118  14                	DEFB +0x14
 15384  1119  00                	DEFB +0x00
 15385  111a  18                	DEFB +0x18
 15386  111b  08                	DEFB +0x08
 15387  111c  2e                	DEFB +0x2e
 15388  111d  14                	DEFB +0x14
 15389  111e  01                	DEFB +0x01
 15390  111f  0a                	DEFB +0x0a
 15391  1120  0e                	DEFB +0x0e
 15392  1121  2f                	DEFB +0x2f
 15393  1122  0a                	DEFB +0x0a
 15394  1123  01                	DEFB +0x01
 15395  1124  2f                	DEFB +0x2f
 15396  1125  14                	DEFB +0x14
 15397  1126  01                	DEFB +0x01
 15398  1127  0b                	DEFB +0x0b
 15399  1128  0e                	DEFB +0x0e
 15400  1129  30                	DEFB +0x30
 15401  112a  14                	DEFB +0x14
 15402  112b  01                	DEFB +0x01
 15403  112c  0c                	DEFB +0x0c
 15404  112d  0e                	DEFB +0x0e
 15405  112e  30                	DEFB +0x30
 15406  112f  14                	DEFB +0x14
 15407  1130  02                	DEFB +0x02
 15408  1131  24                	DEFB +0x24
 15409  1132  0c                	DEFB +0x0c
 15410  1133  31                	DEFB +0x31
 15411  1134  0a                	DEFB +0x0a
 15412  1135  01                	DEFB +0x01
 15413  1136  32                	DEFB +0x32
 15414  1137  0a                	DEFB +0x0a
 15415  1138  01                	DEFB +0x01
 15416  1139  32                	DEFB +0x32
 15417  113a  14                	DEFB +0x14
 15418  113b  01                	DEFB +0x01
 15419  113c  0a                	DEFB +0x0a
 15420  113d  0e                	DEFB +0x0e
 15421  113e  34                	DEFB +0x34
 15422  113f  0a                	DEFB +0x0a
 15423  1140  02                	DEFB +0x02
 15424  1141  34                	DEFB +0x34
 15425  1142  14                	DEFB +0x14
 15426  1143  01                	DEFB +0x01
 15427  1144  0c                	DEFB +0x0c
 15428  1145  0e                	DEFB +0x0e
 15429  1146  35                	DEFB +0x35
 15430  1147  0a                	DEFB +0x0a
 15431  1148  01                	DEFB +0x01
 15432  1149  36                	DEFB +0x36
 15433  114a  0a                	DEFB +0x0a
 15434  114b  01                	DEFB +0x01
 15435  114c  36                	DEFB +0x36
 15436  114d  14                	DEFB +0x14
 15437  114e  01                	DEFB +0x01
 15438  114f  0a                	DEFB +0x0a
 15439  1150  0e                	DEFB +0x0e
 15440  1151  37                	DEFB +0x37
 15441  1152  0a                	DEFB +0x0a
 15442  1153  01                	DEFB +0x01
 15443  1154  37                	DEFB +0x37
 15444  1155  14                	DEFB +0x14
 15445  1156  01                	DEFB +0x01
 15446  1157  0c                	DEFB +0x0c
 15447  1158  0e                	DEFB +0x0e
 15448  1159  38                	DEFB +0x38
 15449  115a  14                	DEFB +0x14
 15450  115b  02                	DEFB +0x02
 15451  115c  24                	DEFB +0x24
 15452  115d  0c                	DEFB +0x0c
 15453  115e  39                	DEFB +0x39
 15454  115f  0a                	DEFB +0x0a
 15455  1160  01                	DEFB +0x01
 15456  1161  39                	DEFB +0x39
 15457  1162  14                	DEFB +0x14
 15458  1163  01                	DEFB +0x01
 15459  1164  0c                	DEFB +0x0c
 15460  1165  0e                	DEFB +0x0e
 15461  1166  3a                	DEFB +0x3a
 15462  1167  0a                	DEFB +0x0a
 15463  1168  01                	DEFB +0x01
 15464  1169  3a                	DEFB +0x3a
 15465  116a  14                	DEFB +0x14
 15466  116b  01                	DEFB +0x01
 15467  116c  0c                	DEFB +0x0c
 15468  116d  0e                	DEFB +0x0e
 15469  116e  3c                	DEFB +0x3c
 15470  116f  0a                	DEFB +0x0a
 15471  1170  01                	DEFB +0x01
 15472  1171  3c                	DEFB +0x3c
 15473  1172  0a                	DEFB +0x0a
 15474  1173  02                	DEFB +0x02
 15475  1174  3c                	DEFB +0x3c
 15476  1175  14                	DEFB +0x14
 15477  1176  01                	DEFB +0x01
 15478  1177  07                	DEFB +0x07
 15479  1178  0e                	DEFB +0x0e
 15480  1179  3c                	DEFB +0x3c
 15481  117a  14                	DEFB +0x14
 15482  117b  02                	DEFB +0x02
 15483  117c  27                	DEFB +0x27
 15484  117d  0c                	DEFB +0x0c
 15485  117e  3d                	DEFB +0x3d
 15486  117f  0a                	DEFB +0x0a
 15487  1180  01                	DEFB +0x01
 15488  1181  3d                	DEFB +0x3d
 15489  1182  14                	DEFB +0x14
 15490  1183  01                	DEFB +0x01
 15491  1184  0c                	DEFB +0x0c
 15492  1185  0e                	DEFB +0x0e
 15493  1186  3e                	DEFB +0x3e
 15494  1187  14                	DEFB +0x14
 15495  1188  01                	DEFB +0x01
 15496  1189  0c                	DEFB +0x0c
 15497  118a  0e                	DEFB +0x0e
 15498  118b  3f                	DEFB +0x3f
 15499  118c  0a                	DEFB +0x0a
 15500  118d  01                	DEFB +0x01
 15501  118e  40                	DEFB +0x40
 15502  118f  0a                	DEFB +0x0a
 15503  1190  02                	DEFB +0x02
 15504  1191  40                	DEFB +0x40
 15505  1192  14                	DEFB +0x14
 15506  1193  01                	DEFB +0x01
 15507  1194  0c                	DEFB +0x0c
 15508  1195  0f                	DEFB +0x0f
 15509  1196  40                	DEFB +0x40
 15510  1197  14                	DEFB +0x14
 15511  1198  02                	DEFB +0x02
 15512  1199  2b                	DEFB +0x2b
 15513  119a  0c                	DEFB +0x0c
 15514  119b  41                	DEFB +0x41
 15515  119c  0a                	DEFB +0x0a
 15516  119d  01                	DEFB +0x01
 15517  119e  42                	DEFB +0x42
 15518  119f  14                	DEFB +0x14
 15519  11a0  01                	DEFB +0x01
 15520  11a1  0a                	DEFB +0x0a
 15521  11a2  0f                	DEFB +0x0f
 15522  11a3  43                	DEFB +0x43
 15523  11a4  0a                	DEFB +0x0a
 15524  11a5  01                	DEFB +0x01
 15525  11a6  44                	DEFB +0x44
 15526  11a7  0a                	DEFB +0x0a
 15527  11a8  02                	DEFB +0x02
 15528  11a9  44                	DEFB +0x44
 15529  11aa  14                	DEFB +0x14
 15530  11ab  01                	DEFB +0x01
 15531  11ac  0c                	DEFB +0x0c
 15532  11ad  0f                	DEFB +0x0f
 15533  11ae  45                	DEFB +0x45
 15534  11af  0a                	DEFB +0x0a
 15535  11b0  01                	DEFB +0x01
 15536  11b1  46                	DEFB +0x46
 15537  11b2  0a                	DEFB +0x0a
 15538  11b3  01                	DEFB +0x01
 15539  11b4  46                	DEFB +0x46
 15540  11b5  14                	DEFB +0x14
 15541  11b6  01                	DEFB +0x01
 15542  11b7  0a                	DEFB +0x0a
 15543  11b8  0f                	DEFB +0x0f
 15544  11b9  47                	DEFB +0x47
 15545  11ba  0a                	DEFB +0x0a
 15546  11bb  01                	DEFB +0x01
 15547  11bc  47                	DEFB +0x47
 15548  11bd  14                	DEFB +0x14
 15549  11be  01                	DEFB +0x01
 15550  11bf  0c                	DEFB +0x0c
 15551  11c0  0e                	DEFB +0x0e
 15552  11c1  48                	DEFB +0x48
 15553  11c2  14                	DEFB +0x14
 15554  11c3  02                	DEFB +0x02
 15555  11c4  2b                	DEFB +0x2b
 15556  11c5  0b                	DEFB +0x0b
 15557  11c6  49                	DEFB +0x49
 15558  11c7  0a                	DEFB +0x0a
 15559  11c8  01                	DEFB +0x01
 15560  11c9  49                	DEFB +0x49
 15561  11ca  14                	DEFB +0x14
 15562  11cb  01                	DEFB +0x01
 15563  11cc  0c                	DEFB +0x0c
 15564  11cd  0e                	DEFB +0x0e
 15565  11ce  4a                	DEFB +0x4a
 15566  11cf  14                	DEFB +0x14
 15567  11d0  01                	DEFB +0x01
 15568  11d1  0a                	DEFB +0x0a
 15569  11d2  0e                	DEFB +0x0e
 15570  11d3  4b                	DEFB +0x4b
 15571  11d4  0a                	DEFB +0x0a
 15572  11d5  01                	DEFB +0x01
 15573  11d6  4c                	DEFB +0x4c
 15574  11d7  0a                	DEFB +0x0a
 15575  11d8  02                	DEFB +0x02
 15576  11d9  4c                	DEFB +0x4c
 15577  11da  14                	DEFB +0x14
 15578  11db  01                	DEFB +0x01
 15579  11dc  0c                	DEFB +0x0c
 15580  11dd  0e                	DEFB +0x0e
 15581  11de  4d                	DEFB +0x4d
 15582  11df  0a                	DEFB +0x0a
 15583  11e0  01                	DEFB +0x01
 15584  11e1  4d                	DEFB +0x4d
 15585  11e2  0a                	DEFB +0x0a
 15586  11e3  02                	DEFB +0x02
 15587  11e4  4d                	DEFB +0x4d
 15588  11e5  14                	DEFB +0x14
 15589  11e6  02                	DEFB +0x02
 15590  11e7  29                	DEFB +0x29
 15591  11e8  0b                	DEFB +0x0b
 15592  11e9  4e                	DEFB +0x4e
 15593  11ea  0a                	DEFB +0x0a
 15594  11eb  01                	DEFB +0x01
 15595  11ec  4e                	DEFB +0x4e
 15596  11ed  0a                	DEFB +0x0a
 15597  11ee  02                	DEFB +0x02
 15598  11ef  4e                	DEFB +0x4e
 15599  11f0  14                	DEFB +0x14
 15600  11f1  01                	DEFB +0x01
 15601  11f2  0f                	DEFB +0x0f
 15602  11f3  0e                	DEFB +0x0e
 15603  11f4  4e                	DEFB +0x4e
 15604  11f5  14                	DEFB +0x14
 15605  11f6  02                	DEFB +0x02
 15606  11f7  27                	DEFB +0x27
 15607  11f8  0a                	DEFB +0x0a
 15608  11f9  4f                	DEFB +0x4f
 15609  11fa  0a                	DEFB +0x0a
 15610  11fb  02                	DEFB +0x02
 15611  11fc  4f                	DEFB +0x4f
 15612  11fd  14                	DEFB +0x14
 15613  11fe  02                	DEFB +0x02
 15614  11ff  26                	DEFB +0x26
 15615  1200  0b                	DEFB +0x0b
 15616  1201  50                	DEFB +0x50
 15617  1202  14                	DEFB +0x14
 15618  1203  01                	DEFB +0x01
 15619  1204  0c                	DEFB +0x0c
 15620  1205  0e                	DEFB +0x0e
 15621  1206  50                	DEFB +0x50
 15622  1207  14                	DEFB +0x14
 15623  1208  02                	DEFB +0x02
 15624  1209  27                	DEFB +0x27
 15625  120a  0a                	DEFB +0x0a
 15626  120b  51                	DEFB +0x51
 15627  120c  0a                	DEFB +0x0a
 15628  120d  01                	DEFB +0x01
 15629  120e  52                	DEFB +0x52
 15630  120f  0a                	DEFB +0x0a
 15631  1210  01                	DEFB +0x01
 15632  1211  52                	DEFB +0x52
 15633  1212  14                	DEFB +0x14
 15634  1213  01                	DEFB +0x01
 15635  1214  0a                	DEFB +0x0a
 15636  1215  0e                	DEFB +0x0e
 15637  1216  54                	DEFB +0x54
 15638  1217  14                	DEFB +0x14
 15639  1218  01                	DEFB +0x01
 15640  1219  0c                	DEFB +0x0c
 15641  121a  0e                	DEFB +0x0e
 15642  121b  55                	DEFB +0x55
 15643  121c  0a                	DEFB +0x0a
 15644  121d  01                	DEFB +0x01
 15645  121e  56                	DEFB +0x56
 15646  121f  0a                	DEFB +0x0a
 15647  1220  01                	DEFB +0x01
 15648  1221  56                	DEFB +0x56
 15649  1222  14                	DEFB +0x14
 15650  1223  01                	DEFB +0x01
 15651  1224  0a                	DEFB +0x0a
 15652  1225  0e                	DEFB +0x0e
 15653  1226  57                	DEFB +0x57
 15654  1227  0a                	DEFB +0x0a
 15655  1228  01                	DEFB +0x01
 15656  1229  57                	DEFB +0x57
 15657  122a  14                	DEFB +0x14
 15658  122b  01                	DEFB +0x01
 15659  122c  0c                	DEFB +0x0c
 15660  122d  0e                	DEFB +0x0e
 15661  122e  59                	DEFB +0x59
 15662  122f  0a                	DEFB +0x0a
 15663  1230  01                	DEFB +0x01
 15664  1231  59                	DEFB +0x59
 15665  1232  0a                	DEFB +0x0a
 15666  1233  02                	DEFB +0x02
 15667  1234  59                	DEFB +0x59
 15668  1235  14                	DEFB +0x14
 15669  1236  01                	DEFB +0x01
 15670  1237  0c                	DEFB +0x0c
 15671  1238  0e                	DEFB +0x0e
 15672  1239  5a                	DEFB +0x5a
 15673  123a  0a                	DEFB +0x0a
 15674  123b  02                	DEFB +0x02
 15675  123c  5a                	DEFB +0x5a
 15676  123d  14                	DEFB +0x14
 15677  123e  01                	DEFB +0x01
 15678  123f  0a                	DEFB +0x0a
 15679  1240  0e                	DEFB +0x0e
 15680  1241  5a                	DEFB +0x5a
 15681  1242  14                	DEFB +0x14
 15682  1243  02                	DEFB +0x02
 15683  1244  26                	DEFB +0x26
 15684  1245  0a                	DEFB +0x0a
 15685  1246  5b                	DEFB +0x5b
 15686  1247  0a                	DEFB +0x0a
 15687  1248  01                	DEFB +0x01
 15688  1249  5b                	DEFB +0x5b
 15689  124a  0a                	DEFB +0x0a
 15690  124b  02                	DEFB +0x02
 15691  124c  5b                	DEFB +0x5b
 15692  124d  14                	DEFB +0x14
 15693  124e  02                	DEFB +0x02
 15694  124f  27                	DEFB +0x27
 15695  1250  09                	DEFB +0x09
 15696  1251  5c                	DEFB +0x5c
 15697  1252  0a                	DEFB +0x0a
 15698  1253  01                	DEFB +0x01
 15699  1254  5c                	DEFB +0x5c
 15700  1255  0a                	DEFB +0x0a
 15701  1256  02                	DEFB +0x02
 15702  1257  5c                	DEFB +0x5c
 15703  1258  14                	DEFB +0x14
 15704  1259  01                	DEFB +0x01
 15705  125a  0c                	DEFB +0x0c
 15706  125b  0e                	DEFB +0x0e
 15707  125c  5c                	DEFB +0x5c
 15708  125d  14                	DEFB +0x14
 15709  125e  02                	DEFB +0x02
 15710  125f  26                	DEFB +0x26
 15711  1260  0a                	DEFB +0x0a
 15712  1261  5d                	DEFB +0x5d
 15713  1262  0a                	DEFB +0x0a
 15714  1263  01                	DEFB +0x01
 15715  1264  5d                	DEFB +0x5d
 15716  1265  0a                	DEFB +0x0a
 15717  1266  02                	DEFB +0x02
 15718  1267  5d                	DEFB +0x5d
 15719  1268  14                	DEFB +0x14
 15720  1269  01                	DEFB +0x01
 15721  126a  07                	DEFB +0x07
 15722  126b  0e                	DEFB +0x0e
 15723  126c  5d                	DEFB +0x5d
 15724  126d  14                	DEFB +0x14
 15725  126e  02                	DEFB +0x02
 15726  126f  24                	DEFB +0x24
 15727  1270  0a                	DEFB +0x0a
 15728  1271  5e                	DEFB +0x5e
 15729  1272  0a                	DEFB +0x0a
 15730  1273  01                	DEFB +0x01
 15731  1274  5e                	DEFB +0x5e
 15732  1275  14                	DEFB +0x14
 15733  1276  01                	DEFB +0x01
 15734  1277  0a                	DEFB +0x0a
 15735  1278  0e                	DEFB +0x0e
 15736  1279  5e                	DEFB +0x5e
 15737  127a  14                	DEFB +0x14
 15738  127b  02                	DEFB +0x02
 15739  127c  22                	DEFB +0x22
 15740  127d  0a                	DEFB +0x0a
 15741  127e  5f                	DEFB +0x5f
 15742  127f  0a                	DEFB +0x0a
 15743  1280  01                	DEFB +0x01
 15744  1281  5f                	DEFB +0x5f
 15745  1282  0a                	DEFB +0x0a
 15746  1283  02                	DEFB +0x02
 15747  1284  5f                	DEFB +0x5f
 15748  1285  14                	DEFB +0x14
 15749  1286  01                	DEFB +0x01
 15750  1287  0b                	DEFB +0x0b
 15751  1288  0e                	DEFB +0x0e
 15752  1289  60                	DEFB +0x60
 15753  128a  14                	DEFB +0x14
 15754  128b  01                	DEFB +0x01
 15755  128c  0c                	DEFB +0x0c
 15756  128d  0e                	DEFB +0x0e
 15757  128e  60                	DEFB +0x60
 15758  128f  14                	DEFB +0x14
 15759  1290  02                	DEFB +0x02
 15760  1291  24                	DEFB +0x24
 15761  1292  0b                	DEFB +0x0b
 15762  1293  61                	DEFB +0x61
 15763  1294  0a                	DEFB +0x0a
 15764  1295  01                	DEFB +0x01
 15765  1296  62                	DEFB +0x62
 15766  1297  14                	DEFB +0x14
 15767  1298  01                	DEFB +0x01
 15768  1299  0a                	DEFB +0x0a
 15769  129a  0e                	DEFB +0x0e
 15770  129b  63                	DEFB +0x63
 15771  129c  0a                	DEFB +0x0a
 15772  129d  01                	DEFB +0x01
 15773  129e  64                	DEFB +0x64
 15774  129f  14                	DEFB +0x14
 15775  12a0  01                	DEFB +0x01
 15776  12a1  0c                	DEFB +0x0c
 15777  12a2  0e                	DEFB +0x0e
 15778  12a3  65                	DEFB +0x65
 15779  12a4  0a                	DEFB +0x0a
 15780  12a5  01                	DEFB +0x01
 15781  12a6  66                	DEFB +0x66
 15782  12a7  0a                	DEFB +0x0a
 15783  12a8  01                	DEFB +0x01
 15784  12a9  66                	DEFB +0x66
 15785  12aa  14                	DEFB +0x14
 15786  12ab  01                	DEFB +0x01
 15787  12ac  0a                	DEFB +0x0a
 15788  12ad  0e                	DEFB +0x0e
 15789  12ae  67                	DEFB +0x67
 15790  12af  0a                	DEFB +0x0a
 15791  12b0  01                	DEFB +0x01
 15792  12b1  67                	DEFB +0x67
 15793  12b2  14                	DEFB +0x14
 15794  12b3  01                	DEFB +0x01
 15795  12b4  0c                	DEFB +0x0c
 15796  12b5  0e                	DEFB +0x0e
 15797  12b6  69                	DEFB +0x69
 15798  12b7  0a                	DEFB +0x0a
 15799  12b8  01                	DEFB +0x01
 15800  12b9  69                	DEFB +0x69
 15801  12ba  14                	DEFB +0x14
 15802  12bb  01                	DEFB +0x01
 15803  12bc  0c                	DEFB +0x0c
 15804  12bd  0e                	DEFB +0x0e
 15805  12be  6a                	DEFB +0x6a
 15806  12bf  14                	DEFB +0x14
 15807  12c0  01                	DEFB +0x01
 15808  12c1  0a                	DEFB +0x0a
 15809  12c2  0e                	DEFB +0x0e
 15810  12c3  6b                	DEFB +0x6b
 15811  12c4  0a                	DEFB +0x0a
 15812  12c5  01                	DEFB +0x01
 15813  12c6  6c                	DEFB +0x6c
 15814  12c7  0a                	DEFB +0x0a
 15815  12c8  01                	DEFB +0x01
 15816  12c9  6c                	DEFB +0x6c
 15817  12ca  14                	DEFB +0x14
 15818  12cb  01                	DEFB +0x01
 15819  12cc  0c                	DEFB +0x0c
 15820  12cd  0e                	DEFB +0x0e
 15821  12ce  6d                	DEFB +0x6d
 15822  12cf  0a                	DEFB +0x0a
 15823  12d0  01                	DEFB +0x01
 15824  12d1  6d                	DEFB +0x6d
 15825  12d2  0a                	DEFB +0x0a
 15826  12d3  02                	DEFB +0x02
 15827  12d4  6d                	DEFB +0x6d
 15828  12d5  14                	DEFB +0x14
 15829  12d6  01                	DEFB +0x01
 15830  12d7  07                	DEFB +0x07
 15831  12d8  0e                	DEFB +0x0e
 15832  12d9  6e                	DEFB +0x6e
 15833  12da  0a                	DEFB +0x0a
 15834  12db  01                	DEFB +0x01
 15835  12dc  6e                	DEFB +0x6e
 15836  12dd  14                	DEFB +0x14
 15837  12de  01                	DEFB +0x01
 15838  12df  0a                	DEFB +0x0a
 15839  12e0  0e                	DEFB +0x0e
 15840  12e1  6f                	DEFB +0x6f
 15841  12e2  0a                	DEFB +0x0a
 15842  12e3  01                	DEFB +0x01
 15843  12e4  6f                	DEFB +0x6f
 15844  12e5  14                	DEFB +0x14
 15845  12e6  01                	DEFB +0x01
 15846  12e7  0b                	DEFB +0x0b
 15847  12e8  0e                	DEFB +0x0e
 15848  12e9  70                	DEFB +0x70
 15849  12ea  14                	DEFB +0x14
 15850  12eb  01                	DEFB +0x01
 15851  12ec  0c                	DEFB +0x0c
 15852  12ed  0e                	DEFB +0x0e
 15853  12ee  70                	DEFB +0x70
 15854  12ef  14                	DEFB +0x14
 15855  12f0  02                	DEFB +0x02
 15856  12f1  24                	DEFB +0x24
 15857  12f2  0c                	DEFB +0x0c
 15858  12f3  71                	DEFB +0x71
 15859  12f4  0a                	DEFB +0x0a
 15860  12f5  01                	DEFB +0x01
 15861  12f6  71                	DEFB +0x71
 15862  12f7  0a                	DEFB +0x0a
 15863  12f8  02                	DEFB +0x02
 15864  12f9  72                	DEFB +0x72
 15865  12fa  0a                	DEFB +0x0a
 15866  12fb  01                	DEFB +0x01
 15867  12fc  72                	DEFB +0x72
 15868  12fd  14                	DEFB +0x14
 15869  12fe  01                	DEFB +0x01
 15870  12ff  0a                	DEFB +0x0a
 15871  1300  0e                	DEFB +0x0e
 15872  1301  74                	DEFB +0x74
 15873  1302  14                	DEFB +0x14
 15874  1303  01                	DEFB +0x01
 15875  1304  0c                	DEFB +0x0c
 15876  1305  0e                	DEFB +0x0e
 15877  1306  74                	DEFB +0x74
 15878  1307  14                	DEFB +0x14
 15879  1308  02                	DEFB +0x02
 15880  1309  24                	DEFB +0x24
 15881  130a  0c                	DEFB +0x0c
 15882  130b  75                	DEFB +0x75
 15883  130c  0a                	DEFB +0x0a
 15884  130d  01                	DEFB +0x01
 15885  130e  75                	DEFB +0x75
 15886  130f  0a                	DEFB +0x0a
 15887  1310  02                	DEFB +0x02
 15888  1311  76                	DEFB +0x76
 15889  1312  0a                	DEFB +0x0a
 15890  1313  01                	DEFB +0x01
 15891  1314  76                	DEFB +0x76
 15892  1315  14                	DEFB +0x14
 15893  1316  01                	DEFB +0x01
 15894  1317  0a                	DEFB +0x0a
 15895  1318  0e                	DEFB +0x0e
 15896  1319  77                	DEFB +0x77
 15897  131a  0a                	DEFB +0x0a
 15898  131b  01                	DEFB +0x01
 15899  131c  77                	DEFB +0x77
 15900  131d  14                	DEFB +0x14
 15901  131e  01                	DEFB +0x01
 15902  131f  0c                	DEFB +0x0c
 15903  1320  0e                	DEFB +0x0e
 15904  1321  78                	DEFB +0x78
 15905  1322  14                	DEFB +0x14
 15906  1323  02                	DEFB +0x02
 15907  1324  24                	DEFB +0x24
 15908  1325  0c                	DEFB +0x0c
 15909  1326  79                	DEFB +0x79
 15910  1327  0a                	DEFB +0x0a
 15911  1328  01                	DEFB +0x01
 15912  1329  79                	DEFB +0x79
 15913  132a  0a                	DEFB +0x0a
 15914  132b  02                	DEFB +0x02
 15915  132c  79                	DEFB +0x79
 15916  132d  14                	DEFB +0x14
 15917  132e  01                	DEFB +0x01
 15918  132f  0c                	DEFB +0x0c
 15919  1330  0e                	DEFB +0x0e
 15920  1331  7a                	DEFB +0x7a
 15921  1332  0a                	DEFB +0x0a
 15922  1333  01                	DEFB +0x01
 15923  1334  7a                	DEFB +0x7a
 15924  1335  14                	DEFB +0x14
 15925  1336  01                	DEFB +0x01
 15926  1337  0c                	DEFB +0x0c
 15927  1338  0e                	DEFB +0x0e
 15928  1339  7b                	DEFB +0x7b
 15929  133a  14                	DEFB +0x14
 15930  133b  02                	DEFB +0x02
 15931  133c  27                	DEFB +0x27
 15932  133d  0c                	DEFB +0x0c
 15933  133e  7c                	DEFB +0x7c
 15934  133f  0a                	DEFB +0x0a
 15935  1340  01                	DEFB +0x01
 15936  1341  7c                	DEFB +0x7c
 15937  1342  14                	DEFB +0x14
 15938  1343  01                	DEFB +0x01
 15939  1344  07                	DEFB +0x07
 15940  1345  0e                	DEFB +0x0e
 15941  1346  7d                	DEFB +0x7d
 15942  1347  0a                	DEFB +0x0a
 15943  1348  01                	DEFB +0x01
 15944  1349  7d                	DEFB +0x7d
 15945  134a  0a                	DEFB +0x0a
 15946  134b  02                	DEFB +0x02
 15947  134c  7d                	DEFB +0x7d
 15948  134d  14                	DEFB +0x14
 15949  134e  01                	DEFB +0x01
 15950  134f  0c                	DEFB +0x0c
 15951  1350  0e                	DEFB +0x0e
 15952  1351  7e                	DEFB +0x7e
 15953  1352  14                	DEFB +0x14
 15954  1353  01                	DEFB +0x01
 15955  1354  0c                	DEFB +0x0c
 15956  1355  0e                	DEFB +0x0e
 15957  1356  7f                	DEFB +0x7f
 15958  1357  0a                	DEFB +0x0a
 15959  1358  01                	DEFB +0x01
 15960  1359  80                	DEFB +0x80
 15961  135a  14                	DEFB +0x14
 15962  135b  00                	DEFB +0x00
 15963  135c  24                	DEFB +0x24
 15964  135d  0c                	DEFB +0x0c
 15965  135e  80                	DEFB +0x80
 15966  135f  14                	DEFB +0x14
 15967  1360  01                	DEFB +0x01
 15968  1361  0c                	DEFB +0x0c
 15969  1362  0f                	DEFB +0x0f
 15970  1363  81                	DEFB +0x81
 15971  1364  0a                	DEFB +0x0a
 15972  1365  01                	DEFB +0x01
 15973  1366  82                	DEFB +0x82
 15974  1367  0a                	DEFB +0x0a
 15975  1368  00                	DEFB +0x00
 15976  1369  82                	DEFB +0x82
 15977  136a  14                	DEFB +0x14
 15978  136b  01                	DEFB +0x01
 15979  136c  0a                	DEFB +0x0a
 15980  136d  0f                	DEFB +0x0f
 15981  136e  83                	DEFB +0x83
 15982  136f  0a                	DEFB +0x0a
 15983  1370  01                	DEFB +0x01
 15984  1371  83                	DEFB +0x83
 15985  1372  14                	DEFB +0x14
 15986  1373  00                	DEFB +0x00
 15987  1374  1f                	DEFB +0x1f
 15988  1375  0c                	DEFB +0x0c
 15989  1376  84                	DEFB +0x84
 15990  1377  14                	DEFB +0x14
 15991  1378  01                	DEFB +0x01
 15992  1379  0c                	DEFB +0x0c
 15993  137a  0f                	DEFB +0x0f
 15994  137b  85                	DEFB +0x85
 15995  137c  0a                	DEFB +0x0a
 15996  137d  00                	DEFB +0x00
 15997  137e  85                	DEFB +0x85
 15998  137f  0a                	DEFB +0x0a
 15999  1380  01                	DEFB +0x01
 16000  1381  86                	DEFB +0x86
 16001  1382  0a                	DEFB +0x0a
 16002  1383  01                	DEFB +0x01
 16003  1384  86                	DEFB +0x86
 16004  1385  14                	DEFB +0x14
 16005  1386  00                	DEFB +0x00
 16006  1387  24                	DEFB +0x24
 16007  1388  0c                	DEFB +0x0c
 16008  1389  86                	DEFB +0x86
 16009  138a  14                	DEFB +0x14
 16010  138b  01                	DEFB +0x01
 16011  138c  0a                	DEFB +0x0a
 16012  138d  0f                	DEFB +0x0f
 16013  138e  87                	DEFB +0x87
 16014  138f  0a                	DEFB +0x0a
 16015  1390  01                	DEFB +0x01
 16016  1391  87                	DEFB +0x87
 16017  1392  14                	DEFB +0x14
 16018  1393  01                	DEFB +0x01
 16019  1394  0c                	DEFB +0x0c
 16020  1395  0e                	DEFB +0x0e
 16021  1396  88                	DEFB +0x88
 16022  1397  0a                	DEFB +0x0a
 16023  1398  00                	DEFB +0x00
 16024  1399  89                	DEFB +0x89
 16025  139a  0a                	DEFB +0x0a
 16026  139b  01                	DEFB +0x01
 16027  139c  89                	DEFB +0x89
 16028  139d  14                	DEFB +0x14
 16029  139e  00                	DEFB +0x00
 16030  139f  1f                	DEFB +0x1f
 16031  13a0  0c                	DEFB +0x0c
 16032  13a1  89                	DEFB +0x89
 16033  13a2  14                	DEFB +0x14
 16034  13a3  01                	DEFB +0x01
 16035  13a4  0c                	DEFB +0x0c
 16036  13a5  0e                	DEFB +0x0e
 16037  13a6  8a                	DEFB +0x8a
 16038  13a7  14                	DEFB +0x14
 16039  13a8  01                	DEFB +0x01
 16040  13a9  0a                	DEFB +0x0a
 16041  13aa  0e                	DEFB +0x0e
 16042  13ab  8b                	DEFB +0x8b
 16043  13ac  0a                	DEFB +0x0a
 16044  13ad  00                	DEFB +0x00
 16045  13ae  8b                	DEFB +0x8b
 16046  13af  0a                	DEFB +0x0a
 16047  13b0  01                	DEFB +0x01
 16048  13b1  8c                	DEFB +0x8c
 16049  13b2  14                	DEFB +0x14
 16050  13b3  00                	DEFB +0x00
 16051  13b4  24                	DEFB +0x24
 16052  13b5  0c                	DEFB +0x0c
 16053  13b6  8c                	DEFB +0x8c
 16054  13b7  14                	DEFB +0x14
 16055  13b8  01                	DEFB +0x01
 16056  13b9  0c                	DEFB +0x0c
 16057  13ba  0e                	DEFB +0x0e
 16058  13bb  8d                	DEFB +0x8d
 16059  13bc  0a                	DEFB +0x0a
 16060  13bd  00                	DEFB +0x00
 16061  13be  8d                	DEFB +0x8d
 16062  13bf  0a                	DEFB +0x0a
 16063  13c0  01                	DEFB +0x01
 16064  13c1  8e                	DEFB +0x8e
 16065  13c2  0a                	DEFB +0x0a
 16066  13c3  00                	DEFB +0x00
 16067  13c4  8e                	DEFB +0x8e
 16068  13c5  0a                	DEFB +0x0a
 16069  13c6  01                	DEFB +0x01
 16070  13c7  8e                	DEFB +0x8e
 16071  13c8  14                	DEFB +0x14
 16072  13c9  00                	DEFB +0x00
 16073  13ca  1f                	DEFB +0x1f
 16074  13cb  0c                	DEFB +0x0c
 16075  13cc  8e                	DEFB +0x8e
 16076  13cd  14                	DEFB +0x14
 16077  13ce  01                	DEFB +0x01
 16078  13cf  0f                	DEFB +0x0f
 16079  13d0  0e                	DEFB +0x0e
 16080  13d1  8f                	DEFB +0x8f
 16081  13d2  0a                	DEFB +0x0a
 16082  13d3  00                	DEFB +0x00
 16083  13d4  8f                	DEFB +0x8f
 16084  13d5  14                	DEFB +0x14
 16085  13d6  00                	DEFB +0x00
 16086  13d7  1f                	DEFB +0x1f
 16087  13d8  0c                	DEFB +0x0c
 16088  13d9  90                	DEFB +0x90
 16089  13da  14                	DEFB +0x14
 16090  13db  00                	DEFB +0x00
 16091  13dc  24                	DEFB +0x24
 16092  13dd  0c                	DEFB +0x0c
 16093  13de  90                	DEFB +0x90
 16094  13df  14                	DEFB +0x14
 16095  13e0  01                	DEFB +0x01
 16096  13e1  0c                	DEFB +0x0c
 16097  13e2  0e                	DEFB +0x0e
 16098  13e3  91                	DEFB +0x91
 16099  13e4  0a                	DEFB +0x0a
 16100  13e5  01                	DEFB +0x01
 16101  13e6  92                	DEFB +0x92
 16102  13e7  0a                	DEFB +0x0a
 16103  13e8  00                	DEFB +0x00
 16104  13e9  92                	DEFB +0x92
 16105  13ea  0a                	DEFB +0x0a
 16106  13eb  01                	DEFB +0x01
 16107  13ec  92                	DEFB +0x92
 16108  13ed  14                	DEFB +0x14
 16109  13ee  01                	DEFB +0x01
 16110  13ef  0a                	DEFB +0x0a
 16111  13f0  0e                	DEFB +0x0e
 16112  13f1  93                	DEFB +0x93
 16113  13f2  14                	DEFB +0x14
 16114  13f3  00                	DEFB +0x00
 16115  13f4  1f                	DEFB +0x1f
 16116  13f5  0c                	DEFB +0x0c
 16117  13f6  94                	DEFB +0x94
 16118  13f7  14                	DEFB +0x14
 16119  13f8  01                	DEFB +0x01
 16120  13f9  0c                	DEFB +0x0c
 16121  13fa  0e                	DEFB +0x0e
 16122  13fb  95                	DEFB +0x95
 16123  13fc  0a                	DEFB +0x0a
 16124  13fd  00                	DEFB +0x00
 16125  13fe  95                	DEFB +0x95
 16126  13ff  0a                	DEFB +0x0a
 16127  1400  01                	DEFB +0x01
 16128  1401  96                	DEFB +0x96
 16129  1402  0a                	DEFB +0x0a
 16130  1403  01                	DEFB +0x01
 16131  1404  96                	DEFB +0x96
 16132  1405  14                	DEFB +0x14
 16133  1406  00                	DEFB +0x00
 16134  1407  24                	DEFB +0x24
 16135  1408  0c                	DEFB +0x0c
 16136  1409  96                	DEFB +0x96
 16137  140a  14                	DEFB +0x14
 16138  140b  01                	DEFB +0x01
 16139  140c  0a                	DEFB +0x0a
 16140  140d  0e                	DEFB +0x0e
 16141  140e  97                	DEFB +0x97
 16142  140f  0a                	DEFB +0x0a
 16143  1410  01                	DEFB +0x01
 16144  1411  97                	DEFB +0x97
 16145  1412  14                	DEFB +0x14
 16146  1413  01                	DEFB +0x01
 16147  1414  0c                	DEFB +0x0c
 16148  1415  0e                	DEFB +0x0e
 16149  1416  98                	DEFB +0x98
 16150  1417  0a                	DEFB +0x0a
 16151  1418  00                	DEFB +0x00
 16152  1419  99                	DEFB +0x99
 16153  141a  0a                	DEFB +0x0a
 16154  141b  01                	DEFB +0x01
 16155  141c  99                	DEFB +0x99
 16156  141d  14                	DEFB +0x14
 16157  141e  00                	DEFB +0x00
 16158  141f  1f                	DEFB +0x1f
 16159  1420  0c                	DEFB +0x0c
 16160  1421  99                	DEFB +0x99
 16161  1422  14                	DEFB +0x14
 16162  1423  01                	DEFB +0x01
 16163  1424  0c                	DEFB +0x0c
 16164  1425  0e                	DEFB +0x0e
 16165  1426  9a                	DEFB +0x9a
 16166  1427  14                	DEFB +0x14
 16167  1428  01                	DEFB +0x01
 16168  1429  0a                	DEFB +0x0a
 16169  142a  0e                	DEFB +0x0e
 16170  142b  9b                	DEFB +0x9b
 16171  142c  0a                	DEFB +0x0a
 16172  142d  00                	DEFB +0x00
 16173  142e  9b                	DEFB +0x9b
 16174  142f  0a                	DEFB +0x0a
 16175  1430  01                	DEFB +0x01
 16176  1431  9c                	DEFB +0x9c
 16177  1432  0a                	DEFB +0x0a
 16178  1433  01                	DEFB +0x01
 16179  1434  9c                	DEFB +0x9c
 16180  1435  14                	DEFB +0x14
 16181  1436  00                	DEFB +0x00
 16182  1437  24                	DEFB +0x24
 16183  1438  0c                	DEFB +0x0c
 16184  1439  9c                	DEFB +0x9c
 16185  143a  14                	DEFB +0x14
 16186  143b  01                	DEFB +0x01
 16187  143c  0c                	DEFB +0x0c
 16188  143d  0e                	DEFB +0x0e
 16189  143e  9d                	DEFB +0x9d
 16190  143f  0a                	DEFB +0x0a
 16191  1440  00                	DEFB +0x00
 16192  1441  9d                	DEFB +0x9d
 16193  1442  0a                	DEFB +0x0a
 16194  1443  01                	DEFB +0x01
 16195  1444  9d                	DEFB +0x9d
 16196  1445  14                	DEFB +0x14
 16197  1446  01                	DEFB +0x01
 16198  1447  07                	DEFB +0x07
 16199  1448  0e                	DEFB +0x0e
 16200  1449  9e                	DEFB +0x9e
 16201  144a  0a                	DEFB +0x0a
 16202  144b  01                	DEFB +0x01
 16203  144c  9e                	DEFB +0x9e
 16204  144d  14                	DEFB +0x14
 16205  144e  01                	DEFB +0x01
 16206  144f  0a                	DEFB +0x0a
 16207  1450  0e                	DEFB +0x0e
 16208  1451  9f                	DEFB +0x9f
 16209  1452  0a                	DEFB +0x0a
 16210  1453  00                	DEFB +0x00
 16211  1454  9f                	DEFB +0x9f
 16212  1455  0a                	DEFB +0x0a
 16213  1456  01                	DEFB +0x01
 16214  1457  9f                	DEFB +0x9f
 16215  1458  14                	DEFB +0x14
 16216  1459  00                	DEFB +0x00
 16217  145a  1f                	DEFB +0x1f
 16218  145b  0c                	DEFB +0x0c
 16219  145c  9f                	DEFB +0x9f
 16220  145d  14                	DEFB +0x14
 16221  145e  01                	DEFB +0x01
 16222  145f  0b                	DEFB +0x0b
 16223  1460  0e                	DEFB +0x0e
 16224  1461  a0                	DEFB +0xa0
 16225  1462  14                	DEFB +0x14
 16226  1463  00                	DEFB +0x00
 16227  1464  24                	DEFB +0x24
 16228  1465  0c                	DEFB +0x0c
 16229  1466  a0                	DEFB +0xa0
 16230  1467  14                	DEFB +0x14
 16231  1468  01                	DEFB +0x01
 16232  1469  0c                	DEFB +0x0c
 16233  146a  0e                	DEFB +0x0e
 16234  146b  a1                	DEFB +0xa1
 16235  146c  0a                	DEFB +0x0a
 16236  146d  01                	DEFB +0x01
 16237  146e  a2                	DEFB +0xa2
 16238  146f  0a                	DEFB +0x0a
 16239  1470  00                	DEFB +0x00
 16240  1471  a2                	DEFB +0xa2
 16241  1472  14                	DEFB +0x14
 16242  1473  01                	DEFB +0x01
 16243  1474  0a                	DEFB +0x0a
 16244  1475  0e                	DEFB +0x0e
 16245  1476  a3                	DEFB +0xa3
 16246  1477  0a                	DEFB +0x0a
 16247  1478  01                	DEFB +0x01
 16248  1479  a3                	DEFB +0xa3
 16249  147a  14                	DEFB +0x14
 16250  147b  00                	DEFB +0x00
 16251  147c  1f                	DEFB +0x1f
 16252  147d  0c                	DEFB +0x0c
 16253  147e  a4                	DEFB +0xa4
 16254  147f  14                	DEFB +0x14
 16255  1480  01                	DEFB +0x01
 16256  1481  0c                	DEFB +0x0c
 16257  1482  0e                	DEFB +0x0e
 16258  1483  a5                	DEFB +0xa5
 16259  1484  0a                	DEFB +0x0a
 16260  1485  00                	DEFB +0x00
 16261  1486  a5                	DEFB +0xa5
 16262  1487  0a                	DEFB +0x0a
 16263  1488  01                	DEFB +0x01
 16264  1489  a6                	DEFB +0xa6
 16265  148a  0a                	DEFB +0x0a
 16266  148b  01                	DEFB +0x01
 16267  148c  a6                	DEFB +0xa6
 16268  148d  14                	DEFB +0x14
 16269  148e  00                	DEFB +0x00
 16270  148f  24                	DEFB +0x24
 16271  1490  0c                	DEFB +0x0c
 16272  1491  a6                	DEFB +0xa6
 16273  1492  14                	DEFB +0x14
 16274  1493  01                	DEFB +0x01
 16275  1494  0a                	DEFB +0x0a
 16276  1495  0e                	DEFB +0x0e
 16277  1496  a7                	DEFB +0xa7
 16278  1497  0a                	DEFB +0x0a
 16279  1498  01                	DEFB +0x01
 16280  1499  a7                	DEFB +0xa7
 16281  149a  14                	DEFB +0x14
 16282  149b  01                	DEFB +0x01
 16283  149c  0c                	DEFB +0x0c
 16284  149d  0e                	DEFB +0x0e
 16285  149e  a8                	DEFB +0xa8
 16286  149f  0a                	DEFB +0x0a
 16287  14a0  00                	DEFB +0x00
 16288  14a1  a9                	DEFB +0xa9
 16289  14a2  0a                	DEFB +0x0a
 16290  14a3  01                	DEFB +0x01
 16291  14a4  a9                	DEFB +0xa9
 16292  14a5  14                	DEFB +0x14
 16293  14a6  00                	DEFB +0x00
 16294  14a7  1f                	DEFB +0x1f
 16295  14a8  0c                	DEFB +0x0c
 16296  14a9  a9                	DEFB +0xa9
 16297  14aa  14                	DEFB +0x14
 16298  14ab  01                	DEFB +0x01
 16299  14ac  0c                	DEFB +0x0c
 16300  14ad  0e                	DEFB +0x0e
 16301  14ae  aa                	DEFB +0xaa
 16302  14af  14                	DEFB +0x14
 16303  14b0  01                	DEFB +0x01
 16304  14b1  0a                	DEFB +0x0a
 16305  14b2  0e                	DEFB +0x0e
 16306  14b3  ab                	DEFB +0xab
 16307  14b4  0a                	DEFB +0x0a
 16308  14b5  00                	DEFB +0x00
 16309  14b6  ab                	DEFB +0xab
 16310  14b7  0a                	DEFB +0x0a
 16311  14b8  01                	DEFB +0x01
 16312  14b9  ac                	DEFB +0xac
 16313  14ba  0a                	DEFB +0x0a
 16314  14bb  01                	DEFB +0x01
 16315  14bc  ac                	DEFB +0xac
 16316  14bd  14                	DEFB +0x14
 16317  14be  00                	DEFB +0x00
 16318  14bf  24                	DEFB +0x24
 16319  14c0  0c                	DEFB +0x0c
 16320  14c1  ac                	DEFB +0xac
 16321  14c2  14                	DEFB +0x14
 16322  14c3  01                	DEFB +0x01
 16323  14c4  0c                	DEFB +0x0c
 16324  14c5  0e                	DEFB +0x0e
 16325  14c6  ad                	DEFB +0xad
 16326  14c7  0a                	DEFB +0x0a
 16327  14c8  00                	DEFB +0x00
 16328  14c9  ad                	DEFB +0xad
 16329  14ca  0a                	DEFB +0x0a
 16330  14cb  01                	DEFB +0x01
 16331  14cc  ad                	DEFB +0xad
 16332  14cd  14                	DEFB +0x14
 16333  14ce  01                	DEFB +0x01
 16334  14cf  07                	DEFB +0x07
 16335  14d0  0e                	DEFB +0x0e
 16336  14d1  ae                	DEFB +0xae
 16337  14d2  0a                	DEFB +0x0a
 16338  14d3  01                	DEFB +0x01
 16339  14d4  ae                	DEFB +0xae
 16340  14d5  14                	DEFB +0x14
 16341  14d6  01                	DEFB +0x01
 16342  14d7  0a                	DEFB +0x0a
 16343  14d8  0e                	DEFB +0x0e
 16344  14d9  af                	DEFB +0xaf
 16345  14da  0a                	DEFB +0x0a
 16346  14db  00                	DEFB +0x00
 16347  14dc  af                	DEFB +0xaf
 16348  14dd  0a                	DEFB +0x0a
 16349  14de  01                	DEFB +0x01
 16350  14df  af                	DEFB +0xaf
 16351  14e0  14                	DEFB +0x14
 16352  14e1  00                	DEFB +0x00
 16353  14e2  1f                	DEFB +0x1f
 16354  14e3  0c                	DEFB +0x0c
 16355  14e4  af                	DEFB +0xaf
 16356  14e5  14                	DEFB +0x14
 16357  14e6  01                	DEFB +0x01
 16358  14e7  0b                	DEFB +0x0b
 16359  14e8  0e                	DEFB +0x0e
 16360  14e9  b0                	DEFB +0xb0
 16361  14ea  14                	DEFB +0x14
 16362  14eb  00                	DEFB +0x00
 16363  14ec  24                	DEFB +0x24
 16364  14ed  0c                	DEFB +0x0c
 16365  14ee  b0                	DEFB +0xb0
 16366  14ef  14                	DEFB +0x14
 16367  14f0  01                	DEFB +0x01
 16368  14f1  0c                	DEFB +0x0c
 16369  14f2  0e                	DEFB +0x0e
 16370  14f3  b1                	DEFB +0xb1
 16371  14f4  0a                	DEFB +0x0a
 16372  14f5  01                	DEFB +0x01
 16373  14f6  b2                	DEFB +0xb2
 16374  14f7  0a                	DEFB +0x0a
 16375  14f8  00                	DEFB +0x00
 16376  14f9  b2                	DEFB +0xb2
 16377  14fa  0a                	DEFB +0x0a
 16378  14fb  01                	DEFB +0x01
 16379  14fc  b2                	DEFB +0xb2
 16380  14fd  14                	DEFB +0x14
 16381  14fe  01                	DEFB +0x01
 16382  14ff  0a                	DEFB +0x0a
 16383  1500  0e                	DEFB +0x0e
 16384  1501  b3                	DEFB +0xb3
 16385  1502  14                	DEFB +0x14
 16386  1503  00                	DEFB +0x00
 16387  1504  1f                	DEFB +0x1f
 16388  1505  0c                	DEFB +0x0c
 16389  1506  b4                	DEFB +0xb4
 16390  1507  14                	DEFB +0x14
 16391  1508  01                	DEFB +0x01
 16392  1509  0c                	DEFB +0x0c
 16393  150a  0e                	DEFB +0x0e
 16394  150b  b5                	DEFB +0xb5
 16395  150c  0a                	DEFB +0x0a
 16396  150d  00                	DEFB +0x00
 16397  150e  b5                	DEFB +0xb5
 16398  150f  0a                	DEFB +0x0a
 16399  1510  01                	DEFB +0x01
 16400  1511  b6                	DEFB +0xb6
 16401  1512  0a                	DEFB +0x0a
 16402  1513  01                	DEFB +0x01
 16403  1514  b6                	DEFB +0xb6
 16404  1515  14                	DEFB +0x14
 16405  1516  00                	DEFB +0x00
 16406  1517  24                	DEFB +0x24
 16407  1518  0c                	DEFB +0x0c
 16408  1519  b6                	DEFB +0xb6
 16409  151a  14                	DEFB +0x14
 16410  151b  01                	DEFB +0x01
 16411  151c  0a                	DEFB +0x0a
 16412  151d  0e                	DEFB +0x0e
 16413  151e  b7                	DEFB +0xb7
 16414  151f  0a                	DEFB +0x0a
 16415  1520  01                	DEFB +0x01
 16416  1521  b7                	DEFB +0xb7
 16417  1522  14                	DEFB +0x14
 16418  1523  01                	DEFB +0x01
 16419  1524  0c                	DEFB +0x0c
 16420  1525  0e                	DEFB +0x0e
 16421  1526  b8                	DEFB +0xb8
 16422  1527  0a                	DEFB +0x0a
 16423  1528  00                	DEFB +0x00
 16424  1529  b9                	DEFB +0xb9
 16425  152a  0a                	DEFB +0x0a
 16426  152b  01                	DEFB +0x01
 16427  152c  b9                	DEFB +0xb9
 16428  152d  14                	DEFB +0x14
 16429  152e  00                	DEFB +0x00
 16430  152f  1f                	DEFB +0x1f
 16431  1530  0c                	DEFB +0x0c
 16432  1531  b9                	DEFB +0xb9
 16433  1532  14                	DEFB +0x14
 16434  1533  01                	DEFB +0x01
 16435  1534  0c                	DEFB +0x0c
 16436  1535  0e                	DEFB +0x0e
 16437  1536  ba                	DEFB +0xba
 16438  1537  0a                	DEFB +0x0a
 16439  1538  01                	DEFB +0x01
 16440  1539  ba                	DEFB +0xba
 16441  153a  14                	DEFB +0x14
 16442  153b  01                	DEFB +0x01
 16443  153c  0c                	DEFB +0x0c
 16444  153d  0e                	DEFB +0x0e
 16445  153e  bb                	DEFB +0xbb
 16446  153f  0a                	DEFB +0x0a
 16447  1540  00                	DEFB +0x00
 16448  1541  bc                	DEFB +0xbc
 16449  1542  0a                	DEFB +0x0a
 16450  1543  01                	DEFB +0x01
 16451  1544  bc                	DEFB +0xbc
 16452  1545  14                	DEFB +0x14
 16453  1546  00                	DEFB +0x00
 16454  1547  24                	DEFB +0x24
 16455  1548  0c                	DEFB +0x0c
 16456  1549  bc                	DEFB +0xbc
 16457  154a  14                	DEFB +0x14
 16458  154b  01                	DEFB +0x01
 16459  154c  07                	DEFB +0x07
 16460  154d  0e                	DEFB +0x0e
 16461  154e  bd                	DEFB +0xbd
 16462  154f  0a                	DEFB +0x0a
 16463  1550  01                	DEFB +0x01
 16464  1551  bd                	DEFB +0xbd
 16465  1552  14                	DEFB +0x14
 16466  1553  01                	DEFB +0x01
 16467  1554  0c                	DEFB +0x0c
 16468  1555  0e                	DEFB +0x0e
 16469  1556  be                	DEFB +0xbe
 16470  1557  0a                	DEFB +0x0a
 16471  1558  00                	DEFB +0x00
 16472  1559  be                	DEFB +0xbe
 16473  155a  14                	DEFB +0x14
 16474  155b  00                	DEFB +0x00
 16475  155c  1f                	DEFB +0x1f
 16476  155d  0c                	DEFB +0x0c
 16477  155e  be                	DEFB +0xbe
 16478  155f  14                	DEFB +0x14
 16479  1560  01                	DEFB +0x01
 16480  1561  0c                	DEFB +0x0c
 16481  1562  0e                	DEFB +0x0e
 16482  1563  bf                	DEFB +0xbf
 16483  1564  0a                	DEFB +0x0a
 16484  1565  01                	DEFB +0x01
 16485  1566  c0                	DEFB +0xc0
 16486  1567  0a                	DEFB +0x0a
 16487  1568  00                	DEFB +0x00
 16488  1569  c0                	DEFB +0xc0
 16489  156a  63                	DEFB +0x63
 16490                          _SPRITE_DATA:
 16491  156b  00                	DEFB +0x00
 16492  156c  00                	DEFB +0x00
 16493  156d  00                	DEFB +0x00
 16494  156e  00                	DEFB +0x00
 16495  156f  00                	DEFB +0x00
 16496  1570  00                	DEFB +0x00
 16497  1571  00                	DEFB +0x00
 16498  1572  00                	DEFB +0x00
 16499  1573  00                	DEFB +0x00
 16500  1574  00                	DEFB +0x00
 16501  1575  00                	DEFB +0x00
 16502  1576  00                	DEFB +0x00
 16503  1577  00                	DEFB +0x00
 16504  1578  00                	DEFB +0x00
 16505  1579  00                	DEFB +0x00
 16506  157a  00                	DEFB +0x00
 16507  157b  00                	DEFB +0x00
 16508  157c  00                	DEFB +0x00
 16509  157d  00                	DEFB +0x00
 16510  157e  00                	DEFB +0x00
 16511  157f  00                	DEFB +0x00
 16512  1580  00                	DEFB +0x00
 16513  1581  00                	DEFB +0x00
 16514  1582  00                	DEFB +0x00
 16515  1583  00                	DEFB +0x00
 16516  1584  00                	DEFB +0x00
 16517  1585  00                	DEFB +0x00
 16518  1586  00                	DEFB +0x00
 16519  1587  00                	DEFB +0x00
 16520  1588  00                	DEFB +0x00
 16521  1589  00                	DEFB +0x00
 16522  158a  00                	DEFB +0x00
 16523  158b  00                	DEFB +0x00
 16524  158c  00                	DEFB +0x00
 16525  158d  00                	DEFB +0x00
 16526  158e  03                	DEFB +0x03
 16527  158f  04                	DEFB +0x04
 16528  1590  08                	DEFB +0x08
 16529  1591  28                	DEFB +0x28
 16530  1592  68                	DEFB +0x68
 16531  1593  7f                	DEFB +0x7f
 16532  1594  3f                	DEFB +0x3f
 16533  1595  0f                	DEFB +0x0f
 16534  1596  00                	DEFB +0x00
 16535  1597  00                	DEFB +0x00
 16536  1598  00                	DEFB +0x00
 16537  1599  00                	DEFB +0x00
 16538  159a  00                	DEFB +0x00
 16539  159b  00                	DEFB +0x00
 16540  159c  00                	DEFB +0x00
 16541  159d  00                	DEFB +0x00
 16542  159e  80                	DEFB +0x80
 16543  159f  40                	DEFB +0x40
 16544  15a0  20                	DEFB +0x20
 16545  15a1  28                	DEFB +0x28
 16546  15a2  2c                	DEFB +0x2c
 16547  15a3  fc                	DEFB +0xfc
 16548  15a4  f8                	DEFB +0xf8
 16549  15a5  e0                	DEFB +0xe0
 16550  15a6  00                	DEFB +0x00
 16551  15a7  00                	DEFB +0x00
 16552  15a8  00                	DEFB +0x00
 16553  15a9  00                	DEFB +0x00
 16554  15aa  00                	DEFB +0x00
 16555  15ab  12                	DEFB +0x12
 16556  15ac  1b                	DEFB +0x1b
 16557  15ad  1f                	DEFB +0x1f
 16558  15ae  7f                	DEFB +0x7f
 16559  15af  ff                	DEFB +0xff
 16560  15b0  ff                	DEFB +0xff
 16561  15b1  7f                	DEFB +0x7f
 16562  15b2  3f                	DEFB +0x3f
 16563  15b3  3f                	DEFB +0x3f
 16564  15b4  ff                	DEFB +0xff
 16565  15b5  ff                	DEFB +0xff
 16566  15b6  df                	DEFB +0xdf
 16567  15b7  1f                	DEFB +0x1f
 16568  15b8  3f                	DEFB +0x3f
 16569  15b9  7c                	DEFB +0x7c
 16570  15ba  60                	DEFB +0x60
 16571  15bb  38                	DEFB +0x38
 16572  15bc  38                	DEFB +0x38
 16573  15bd  f8                	DEFB +0xf8
 16574  15be  fc                	DEFB +0xfc
 16575  15bf  ff                	DEFB +0xff
 16576  15c0  ff                	DEFB +0xff
 16577  15c1  ff                	DEFB +0xff
 16578  15c2  fd                	DEFB +0xfd
 16579  15c3  fe                	DEFB +0xfe
 16580  15c4  fe                	DEFB +0xfe
 16581  15c5  fc                	DEFB +0xfc
 16582  15c6  fc                	DEFB +0xfc
 16583  15c7  fc                	DEFB +0xfc
 16584  15c8  be                	DEFB +0xbe
 16585  15c9  18                	DEFB +0x18
 16586  15ca  18                	DEFB +0x18
 16587  15cb  00                	DEFB +0x00
 16588  15cc  0f                	DEFB +0x0f
 16589  15cd  3f                	DEFB +0x3f
 16590  15ce  3f                	DEFB +0x3f
 16591  15cf  3f                	DEFB +0x3f
 16592  15d0  7f                	DEFB +0x7f
 16593  15d1  7f                	DEFB +0x7f
 16594  15d2  7f                	DEFB +0x7f
 16595  15d3  3f                	DEFB +0x3f
 16596  15d4  3f                	DEFB +0x3f
 16597  15d5  3f                	DEFB +0x3f
 16598  15d6  3f                	DEFB +0x3f
 16599  15d7  3f                	DEFB +0x3f
 16600  15d8  1f                	DEFB +0x1f
 16601  15d9  3f                	DEFB +0x3f
 16602  15da  00                	DEFB +0x00
 16603  15db  00                	DEFB +0x00
 16604  15dc  cc                	DEFB +0xcc
 16605  15dd  fc                	DEFB +0xfc
 16606  15de  fe                	DEFB +0xfe
 16607  15df  fe                	DEFB +0xfe
 16608  15e0  fe                	DEFB +0xfe
 16609  15e1  ff                	DEFB +0xff
 16610  15e2  ff                	DEFB +0xff
 16611  15e3  fe                	DEFB +0xfe
 16612  15e4  fe                	DEFB +0xfe
 16613  15e5  fe                	DEFB +0xfe
 16614  15e6  fc                	DEFB +0xfc
 16615  15e7  fc                	DEFB +0xfc
 16616  15e8  c4                	DEFB +0xc4
 16617  15e9  00                	DEFB +0x00
 16618  15ea  00                	DEFB +0x00
 16619  15eb  00                	DEFB +0x00
 16620  15ec  17                	DEFB +0x17
 16621  15ed  3f                	DEFB +0x3f
 16622  15ee  3f                	DEFB +0x3f
 16623  15ef  1f                	DEFB +0x1f
 16624  15f0  3f                	DEFB +0x3f
 16625  15f1  7f                	DEFB +0x7f
 16626  15f2  ff                	DEFB +0xff
 16627  15f3  7f                	DEFB +0x7f
 16628  15f4  3f                	DEFB +0x3f
 16629  15f5  3f                	DEFB +0x3f
 16630  15f6  1f                	DEFB +0x1f
 16631  15f7  3f                	DEFB +0x3f
 16632  15f8  3f                	DEFB +0x3f
 16633  15f9  33                	DEFB +0x33
 16634  15fa  01                	DEFB +0x01
 16635  15fb  00                	DEFB +0x00
 16636  15fc  c0                	DEFB +0xc0
 16637  15fd  f8                	DEFB +0xf8
 16638  15fe  fc                	DEFB +0xfc
 16639  15ff  fc                	DEFB +0xfc
 16640  1600  fe                	DEFB +0xfe
 16641  1601  fe                	DEFB +0xfe
 16642  1602  fc                	DEFB +0xfc
 16643  1603  fc                	DEFB +0xfc
 16644  1604  f8                	DEFB +0xf8
 16645  1605  fc                	DEFB +0xfc
 16646  1606  fe                	DEFB +0xfe
 16647  1607  fe                	DEFB +0xfe
 16648  1608  fe                	DEFB +0xfe
 16649  1609  b4                	DEFB +0xb4
 16650  160a  00                	DEFB +0x00
 16651  160b  00                	DEFB +0x00
 16652  160c  00                	DEFB +0x00
 16653  160d  03                	DEFB +0x03
 16654  160e  01                	DEFB +0x01
 16655  160f  09                	DEFB +0x09
 16656  1610  1f                	DEFB +0x1f
 16657  1611  1f                	DEFB +0x1f
 16658  1612  1f                	DEFB +0x1f
 16659  1613  0f                	DEFB +0x0f
 16660  1614  1f                	DEFB +0x1f
 16661  1615  1f                	DEFB +0x1f
 16662  1616  1f                	DEFB +0x1f
 16663  1617  07                	DEFB +0x07
 16664  1618  03                	DEFB +0x03
 16665  1619  03                	DEFB +0x03
 16666  161a  00                	DEFB +0x00
 16667  161b  00                	DEFB +0x00
 16668  161c  80                	DEFB +0x80
 16669  161d  f8                	DEFB +0xf8
 16670  161e  f8                	DEFB +0xf8
 16671  161f  fc                	DEFB +0xfc
 16672  1620  fc                	DEFB +0xfc
 16673  1621  fc                	DEFB +0xfc
 16674  1622  fc                	DEFB +0xfc
 16675  1623  fc                	DEFB +0xfc
 16676  1624  f8                	DEFB +0xf8
 16677  1625  fc                	DEFB +0xfc
 16678  1626  fe                	DEFB +0xfe
 16679  1627  fc                	DEFB +0xfc
 16680  1628  f8                	DEFB +0xf8
 16681  1629  30                	DEFB +0x30
 16682  162a  00                	DEFB +0x00
 16683  162b  00                	DEFB +0x00
 16684  162c  00                	DEFB +0x00
 16685  162d  00                	DEFB +0x00
 16686  162e  00                	DEFB +0x00
 16687  162f  00                	DEFB +0x00
 16688  1630  07                	DEFB +0x07
 16689  1631  07                	DEFB +0x07
 16690  1632  07                	DEFB +0x07
 16691  1633  0f                	DEFB +0x0f
 16692  1634  0f                	DEFB +0x0f
 16693  1635  07                	DEFB +0x07
 16694  1636  07                	DEFB +0x07
 16695  1637  03                	DEFB +0x03
 16696  1638  01                	DEFB +0x01
 16697  1639  00                	DEFB +0x00
 16698  163a  00                	DEFB +0x00
 16699  163b  00                	DEFB +0x00
 16700  163c  00                	DEFB +0x00
 16701  163d  60                	DEFB +0x60
 16702  163e  e0                	DEFB +0xe0
 16703  163f  f0                	DEFB +0xf0
 16704  1640  f8                	DEFB +0xf8
 16705  1641  f8                	DEFB +0xf8
 16706  1642  f8                	DEFB +0xf8
 16707  1643  f8                	DEFB +0xf8
 16708  1644  e0                	DEFB +0xe0
 16709  1645  e0                	DEFB +0xe0
 16710  1646  e0                	DEFB +0xe0
 16711  1647  f0                	DEFB +0xf0
 16712  1648  e0                	DEFB +0xe0
 16713  1649  00                	DEFB +0x00
 16714  164a  00                	DEFB +0x00
 16715  164b  00                	DEFB +0x00
 16716  164c  00                	DEFB +0x00
 16717  164d  19                	DEFB +0x19
 16718  164e  1f                	DEFB +0x1f
 16719  164f  1f                	DEFB +0x1f
 16720  1650  0f                	DEFB +0x0f
 16721  1651  1f                	DEFB +0x1f
 16722  1652  1f                	DEFB +0x1f
 16723  1653  1f                	DEFB +0x1f
 16724  1654  3f                	DEFB +0x3f
 16725  1655  3f                	DEFB +0x3f
 16726  1656  3f                	DEFB +0x3f
 16727  1657  1b                	DEFB +0x1b
 16728  1658  01                	DEFB +0x01
 16729  1659  00                	DEFB +0x00
 16730  165a  00                	DEFB +0x00
 16731  165b  00                	DEFB +0x00
 16732  165c  00                	DEFB +0x00
 16733  165d  60                	DEFB +0x60
 16734  165e  f0                	DEFB +0xf0
 16735  165f  f8                	DEFB +0xf8
 16736  1660  f8                	DEFB +0xf8
 16737  1661  fc                	DEFB +0xfc
 16738  1662  fc                	DEFB +0xfc
 16739  1663  fc                	DEFB +0xfc
 16740  1664  fc                	DEFB +0xfc
 16741  1665  f8                	DEFB +0xf8
 16742  1666  e0                	DEFB +0xe0
 16743  1667  f0                	DEFB +0xf0
 16744  1668  e0                	DEFB +0xe0
 16745  1669  00                	DEFB +0x00
 16746  166a  00                	DEFB +0x00
 16747  166b  00                	DEFB +0x00
 16748  166c  00                	DEFB +0x00
 16749  166d  07                	DEFB +0x07
 16750  166e  0f                	DEFB +0x0f
 16751  166f  1f                	DEFB +0x1f
 16752  1670  3f                	DEFB +0x3f
 16753  1671  7f                	DEFB +0x7f
 16754  1672  7f                	DEFB +0x7f
 16755  1673  7f                	DEFB +0x7f
 16756  1674  7f                	DEFB +0x7f
 16757  1675  7f                	DEFB +0x7f
 16758  1676  3f                	DEFB +0x3f
 16759  1677  1b                	DEFB +0x1b
 16760  1678  0c                	DEFB +0x0c
 16761  1679  07                	DEFB +0x07
 16762  167a  00                	DEFB +0x00
 16763  167b  00                	DEFB +0x00
 16764  167c  00                	DEFB +0x00
 16765  167d  c0                	DEFB +0xc0
 16766  167e  e0                	DEFB +0xe0
 16767  167f  b0                	DEFB +0xb0
 16768  1680  d8                	DEFB +0xd8
 16769  1681  dc                	DEFB +0xdc
 16770  1682  ec                	DEFB +0xec
 16771  1683  ec                	DEFB +0xec
 16772  1684  fc                	DEFB +0xfc
 16773  1685  fc                	DEFB +0xfc
 16774  1686  f8                	DEFB +0xf8
 16775  1687  f0                	DEFB +0xf0
 16776  1688  e0                	DEFB +0xe0
 16777  1689  c0                	DEFB +0xc0
 16778  168a  00                	DEFB +0x00
 16779  168b  06                	DEFB +0x06
 16780  168c  02                	DEFB +0x02
 16781  168d  07                	DEFB +0x07
 16782  168e  0d                	DEFB +0x0d
 16783  168f  0f                	DEFB +0x0f
 16784  1690  06                	DEFB +0x06
 16785  1691  03                	DEFB +0x03
 16786  1692  01                	DEFB +0x01
 16787  1693  07                	DEFB +0x07
 16788  1694  09                	DEFB +0x09
 16789  1695  09                	DEFB +0x09
 16790  1696  01                	DEFB +0x01
 16791  1697  02                	DEFB +0x02
 16792  1698  04                	DEFB +0x04
 16793  1699  04                	DEFB +0x04
 16794  169a  0c                	DEFB +0x0c
 16795  169b  c0                	DEFB +0xc0
 16796  169c  80                	DEFB +0x80
 16797  169d  c0                	DEFB +0xc0
 16798  169e  60                	DEFB +0x60
 16799  169f  e0                	DEFB +0xe0
 16800  16a0  c0                	DEFB +0xc0
 16801  16a1  80                	DEFB +0x80
 16802  16a2  00                	DEFB +0x00
 16803  16a3  c0                	DEFB +0xc0
 16804  16a4  20                	DEFB +0x20
 16805  16a5  20                	DEFB +0x20
 16806  16a6  00                	DEFB +0x00
 16807  16a7  80                	DEFB +0x80
 16808  16a8  40                	DEFB +0x40
 16809  16a9  40                	DEFB +0x40
 16810  16aa  60                	DEFB +0x60
 16811  16ab  07                	DEFB +0x07
 16812  16ac  18                	DEFB +0x18
 16813  16ad  20                	DEFB +0x20
 16814  16ae  40                	DEFB +0x40
 16815  16af  40                	DEFB +0x40
 16816  16b0  80                	DEFB +0x80
 16817  16b1  80                	DEFB +0x80
 16818  16b2  80                	DEFB +0x80
 16819  16b3  80                	DEFB +0x80
 16820  16b4  80                	DEFB +0x80
 16821  16b5  40                	DEFB +0x40
 16822  16b6  40                	DEFB +0x40
 16823  16b7  20                	DEFB +0x20
 16824  16b8  18                	DEFB +0x18
 16825  16b9  07                	DEFB +0x07
 16826  16ba  00                	DEFB +0x00
 16827  16bb  c0                	DEFB +0xc0
 16828  16bc  30                	DEFB +0x30
 16829  16bd  08                	DEFB +0x08
 16830  16be  04                	DEFB +0x04
 16831  16bf  04                	DEFB +0x04
 16832  16c0  02                	DEFB +0x02
 16833  16c1  02                	DEFB +0x02
 16834  16c2  02                	DEFB +0x02
 16835  16c3  02                	DEFB +0x02
 16836  16c4  02                	DEFB +0x02
 16837  16c5  04                	DEFB +0x04
 16838  16c6  04                	DEFB +0x04
 16839  16c7  08                	DEFB +0x08
 16840  16c8  30                	DEFB +0x30
 16841  16c9  c0                	DEFB +0xc0
 16842  16ca  00                	DEFB +0x00
 16843                          _PLAYER_LIVES:
 16844  16cb  03                	DEFB +0x03
 16845                          _PLAYER_CNT:
 16846  16cc  01                	DEFB +0x01
 16847                          _PELLET_CNT:
 16848  16cd  04                	DEFB +0x04
 16849                          _TIME:
 16850  16ce  3c                	DEFB +0x3c
 16851                          __loopCntr:
 16852  16cf  0000              	DEFW +0x0000
 16853                          __timeCntr:
 16854  16d1  00                	DEFB +0x00
 16855                          __isGamePlaying:
 16856  16d2  00                	DEFB +0x00
 16857                          __speedCurve:
 16858  16d3  00                	DEFB +0x00
 16859  16d4  0f                	DEFB +0x0f
 16860  16d5  0a                	DEFB +0x0a
 16861  16d6  08                	DEFB +0x08
 16862  16d7  05                	DEFB +0x05
 16863  16d8  03                	DEFB +0x03
 16864  16d9  01                	DEFB +0x01
 16865                          __player:
 16866  16da  00                	DEFB +0x00
 16867  16db  00                	DEFB +0x00
 16868  16dc  00                	DEFB +0x00
 16869  16dd  00                	DEFB +0x00
 16870  16de  00                	DEFB +0x00
 16871  16df  00                	DEFB +0x00
 16872  16e0  00                	DEFB +0x00
 16873  16e1  00                	DEFB +0x00
 16874  16e2  00                	DEFB +0x00
 16875  16e3  00                	DEFB +0x00
 16876  16e4  00                	DEFB +0x00
 16877  16e5  00                	DEFB +0x00
 16878  16e6  00                	DEFB +0x00
 16879  16e7  00                	DEFB +0x00
 16880  16e8  00                	DEFB +0x00
 16881  16e9  00                	DEFB +0x00
 16882  16ea  00                	DEFB +0x00
 16883  16eb  00                	DEFB +0x00
 16884  16ec  00                	DEFB +0x00
 16885  16ed  00                	DEFB +0x00
 16886  16ee  00                	DEFB +0x00
 16887  16ef  00                	DEFB +0x00
 16888  16f0  00                	DEFB +0x00
 16889  16f1  00                	DEFB +0x00
 16890  16f2  00                	DEFB +0x00
 16891  16f3  00                	DEFB +0x00
 16892  16f4  00                	DEFB +0x00
 16893  16f5  00                	DEFB +0x00
 16894  16f6  00                	DEFB +0x00
 16895  16f7  00                	DEFB +0x00
 16896  16f8  00                	DEFB +0x00
 16897  16f9  00                	DEFB +0x00
 16898  16fa  00                	DEFB +0x00
 16899  16fb  00                	DEFB +0x00
 16900  16fc  00                	DEFB +0x00
 16901  16fd  00                	DEFB +0x00
 16902  16fe  00                	DEFB +0x00
 16903  16ff  00                	DEFB +0x00
 16904  1700  00                	DEFB +0x00
 16905  1701  00                	DEFB +0x00
 16906  1702  00                	DEFB +0x00
 16907  1703  00                	DEFB +0x00
 16908  1704  00                	DEFB +0x00
 16909  1705  00                	DEFB +0x00
 16910                          __rock:
 16911  1706  00                	DEFB +0x00
 16912  1707  00                	DEFB +0x00
 16913  1708  00                	DEFB +0x00
 16914  1709  00                	DEFB +0x00
 16915  170a  00                	DEFB +0x00
 16916  170b  00                	DEFB +0x00
 16917  170c  00                	DEFB +0x00
 16918  170d  00                	DEFB +0x00
 16919  170e  00                	DEFB +0x00
 16920  170f  00                	DEFB +0x00
 16921  1710  00                	DEFB +0x00
 16922  1711  00                	DEFB +0x00
 16923  1712  00                	DEFB +0x00
 16924  1713  00                	DEFB +0x00
 16925  1714  00                	DEFB +0x00
 16926  1715  00                	DEFB +0x00
 16927  1716  00                	DEFB +0x00
 16928  1717  00                	DEFB +0x00
 16929  1718  00                	DEFB +0x00
 16930  1719  00                	DEFB +0x00
 16931  171a  00                	DEFB +0x00
 16932  171b  00                	DEFB +0x00
 16933  171c  00                	DEFB +0x00
 16934  171d  00                	DEFB +0x00
 16935  171e  00                	DEFB +0x00
 16936  171f  00                	DEFB +0x00
 16937  1720  00                	DEFB +0x00
 16938  1721  00                	DEFB +0x00
 16939  1722  00                	DEFB +0x00
 16940  1723  00                	DEFB +0x00
 16941  1724  00                	DEFB +0x00
 16942  1725  00                	DEFB +0x00
 16943  1726  00                	DEFB +0x00
 16944  1727  00                	DEFB +0x00
 16945  1728  00                	DEFB +0x00
 16946  1729  00                	DEFB +0x00
 16947  172a  00                	DEFB +0x00
 16948  172b  00                	DEFB +0x00
 16949  172c  00                	DEFB +0x00
 16950  172d  00                	DEFB +0x00
 16951  172e  00                	DEFB +0x00
 16952  172f  00                	DEFB +0x00
 16953  1730  00                	DEFB +0x00
 16954  1731  00                	DEFB +0x00
 16955  1732  00                	DEFB +0x00
 16956  1733  00                	DEFB +0x00
 16957  1734  00                	DEFB +0x00
 16958  1735  00                	DEFB +0x00
 16959                          __pellets:
 16960  1736  00                	DEFB +0x00
 16961  1737  00                	DEFB +0x00
 16962  1738  00                	DEFB 0x00
 16963  1739  00                	DEFB 0x00
 16964  173a  00                	DEFB 0x00
 16965  173b  00                	DEFB 0x00
 16966  173c  00                	DEFB 0x00
 16967  173d  00                	DEFB 0x00
 16968  173e  00                	DEFB 0x00
 16969  173f  00                	DEFB 0x00
 16970  1740  00                	DEFB 0x00
 16971  1741  00                	DEFB 0x00
 16972  1742  00                	DEFB 0x00
 16973  1743  00                	DEFB 0x00
 16974  1744  00                	DEFB 0x00
 16975  1745  00                	DEFB 0x00
 16976  1746  00                	DEFB 0x00
 16977  1747  00                	DEFB 0x00
 16978  1748  00                	DEFB 0x00
 16979  1749  00                	DEFB 0x00
 16980                          	SECTION IGNORE
 16981                          
